 FreePcb

 Timestamp is 6861639b (Sun Jun 29 21:02:35 2025)

 Preferred load address is 00400000

 Start         Length     Name                   Class
 0001:00000000 0017ac0aH .textbss                DATA
 0002:00000000 002deb76H .text                   CODE
 0002:002deb80 00022b1dH .text$x                 CODE
 0002:003016a0 00002307H .text$yc                CODE
 0002:003039b0 00001b15H .text$yd                CODE
 0003:00000000 00000104H .CRT$XCA                DATA
 0003:00000104 00000104H .CRT$XCAA               DATA
 0003:00000208 0000010eH .CRT$XCC                DATA
 0003:00000318 0000018aH .CRT$XCL                DATA
 0003:000004a4 000001c2H .CRT$XCU                DATA
 0003:00000668 00000104H .CRT$XCZ                DATA
 0003:0000076c 00000104H .CRT$XIA                DATA
 0003:00000870 00000104H .CRT$XIAA               DATA
 0003:00000974 00000104H .CRT$XIC                DATA
 0003:00000a78 00000104H .CRT$XIY                DATA
 0003:00000b7c 00000104H .CRT$XIZ                DATA
 0003:00000c80 000348cdH .rdata                  DATA
 0003:00035550 0000014fH .rdata$debug            DATA
 0003:000356a0 0000348bH .rdata$r                DATA
 0003:00038b2c 00000104H .rtc$IAA                DATA
 0003:00038c30 0000034eH .rtc$IMZ                DATA
 0003:00038f80 00000104H .rtc$IZZ                DATA
 0003:00039084 00000104H .rtc$TAA                DATA
 0003:00039188 0000034eH .rtc$TMZ                DATA
 0003:000394d8 00000104H .rtc$TZZ                DATA
 0003:000395e0 00013d0aH .xdata$x                DATA
 0003:0004d2ec 00000104H ATL$__a                 DATA
 0003:0004d3f0 00000104H ATL$__z                 DATA
 0003:0004d4f4 00000000H .edata                  DATA
 0004:00000000 0001354dH .data                   DATA
 0004:00013550 00134aa4H .bss                    DATA
 0005:00000000 000000c8H .idata$2                DATA
 0005:000000c8 00000014H .idata$3                DATA
 0005:000000dc 00001464H .idata$4                DATA
 0005:00001540 00001464H .idata$5                DATA
 0005:000029a4 000013cdH .idata$6                DATA
 0006:00000000 00002744H .rsrc$01                DATA
 0006:00002750 000b4e16H .rsrc$02                DATA

  Address         Publics by Value              Rva+Base       Lib:Object

 0000:00000000       ___safe_se_handler_count   00000000     <absolute>
 0000:00000000       ___safe_se_handler_table   00000000     <absolute>
 0000:00000000       __except_list              00000000     <absolute>
 0000:00009876       __fltused                  00009876     <absolute>
 0000:00009876       __ldused                   00009876     <absolute>
 0000:00000000       ___ImageBase               00400000     <linker-defined>
 0001:00000000       __enc$textbss$begin        00401000     <linker-defined>
 0001:0017ac0a       __enc$textbss$end          0057bc0a     <linker-defined>
 0002:0000c670       ?AlignGroupByRatline@@YAXPAVCFreePcbDoc@@@Z 00588670 f   Additional.obj
 0002:0000c8e0       ??0?$CArray@PAUgpc_polygon@@ABQAU1@@@QAE@XZ 005888e0 f i NetList.obj
 0002:0000c970       ?AfxAssertFailedLine@@YGHPBDH@Z 00588970 f   afxasert.obj
 0002:0000ca60       ??0Cuid@@QAE@XZ            00588a60 f   Cuid.obj
 0002:0000cb80       ?GetNewUID@Cuid@@QAEHXZ    00588b80 f   Cuid.obj
 0002:0000cd00       ??$strcpy@$0CI@@@YAPADAAY0CI@DPBD@Z 00588d00 f i NetList.obj
 0002:0000cd60       ?ReleaseUID@Cuid@@QAEXI@Z  00588d60 f   Cuid.obj
 0002:0000ce50       ??0DRError@@QAE@XZ         00588e50 f   DesignRules.obj
 0002:0000cfa0       ??1DRError@@QAE@XZ         00588fa0 f   DesignRules.obj
 0002:0000d0e0       ??0DRErrorList@@QAE@XZ     005890e0 f   DesignRules.obj
 0002:0000d150       ??1DRErrorList@@QAE@XZ     00589150 f   DesignRules.obj
 0002:0000d200       ?SetLists@DRErrorList@@QAEXPAVCPartList@@PAVCNetList@@PAVCDisplayList@@PAVCTextList@@PAV?$CArray@VCPolyLine@@ABV1@@@@Z 00589200 f   DesignRules.obj
 0002:0000d270       ?Clear@DRErrorList@@QAEXXZ 00589270 f   DesignRules.obj
 0002:0000d340       ??_GDRError@@QAEPAXI@Z     00589340 f i DesignRules.obj
 0002:0000d3b0       ?Remove@DRErrorList@@QAEXPAVDRError@@@Z 005893b0 f   DesignRules.obj
 0002:0000d480       ?Add@DRErrorList@@QAEPAVDRError@@JHPAV?$CStringT@DV?$StrTraitMFC_DLL@DV?$ChTraitsCRT@D@ATL@@@@@ATL@@00Vid@@1HHHHHH@Z 00589480 f   DesignRules.obj
 0002:0000d850       ?SetViaVisible@CNetList@@QAEXPAVcnet@@HHH@Z 00589850 f   NetList.obj
 0002:0000d940       ?GetPadElement@@YAPAVdl_element@@PAVpart_pin@@H@Z 00589940 f   DesignRules.obj
 0002:0000da20       ?HighLight@DRErrorList@@QAEXPAVDRError@@@Z 00589a20 f   DesignRules.obj
 0002:0000e0c0       ?RemoveNetConnect@CNetList@@QAEHPAVcnet@@HH@Z 0058a0c0 f   NetList.obj
 0002:0000e260       ?MakeSolidCircles@DRErrorList@@QAEXXZ 0058a260 f   DesignRules.obj
 0002:0000e3f0       ?MakeHollowCircles@DRErrorList@@QAEXXZ 0058a3f0 f   DesignRules.obj
 0002:0000e5f0       ?GetSize@?$CArray@PAVdl_element@@ABQAV1@@@QBEHXZ 0058a5f0 f i DesignRules.obj
 0002:0000e630       ??A?$CArray@PAVdl_element@@ABQAV1@@@QAEAAPAVdl_element@@H@Z 0058a630 f i DesignRules.obj
 0002:0000e690       ?GetSize@?$CArray@VCPolyLine@@ABV1@@@QBEHXZ 0058a690 f i DesignRules.obj
 0002:0000e6d0       ?GetAt@?$CArray@VCPolyLine@@ABV1@@@QAEAAVCPolyLine@@H@Z 0058a6d0 f i DesignRules.obj
 0002:0000e780       ?GetSize@?$CArray@Vpart_pin@@ABV1@@@QBEHXZ 0058a780 f i DesignRules.obj
 0002:0000e7c0       ??A?$CArray@Vpart_pin@@ABV1@@@QAEAAVpart_pin@@H@Z 0058a7c0 f i DesignRules.obj
 0002:0000e820       ??A?$CArray@Vcseg@@ABV1@@@QAEAAVcseg@@H@Z 0058a820 f i DesignRules.obj
 0002:0000e880       ??A?$CArray@Vcvertex@@ABV1@@@QAEAAVcvertex@@H@Z 0058a880 f i DesignRules.obj
 0002:0000e8e0       ??A?$CArray@Vcconnect@@ABV1@@@QAEAAVcconnect@@H@Z 0058a8e0 f i DesignRules.obj
 0002:0000e940       ??A?$CArray@Vcarea@@V1@@@QAEAAVcarea@@H@Z 0058a940 f i DesignRules.obj
 0002:0000e9a0       ?ElementAt@?$CArray@PAVdl_element@@ABQAV1@@@QAEAAPAVdl_element@@H@Z 0058a9a0 f i DesignRules.obj
 0002:0000ea50       ?ElementAt@?$CArray@Vpart_pin@@ABV1@@@QAEAAVpart_pin@@H@Z 0058aa50 f i DesignRules.obj
 0002:0000eb00       ?ElementAt@?$CArray@Vcseg@@ABV1@@@QAEAAVcseg@@H@Z 0058ab00 f i DesignRules.obj
 0002:0000ebb0       ?ElementAt@?$CArray@Vcvertex@@ABV1@@@QAEAAVcvertex@@H@Z 0058abb0 f i DesignRules.obj
 0002:0000ec60       ?ElementAt@?$CArray@Vcconnect@@ABV1@@@QAEAAVcconnect@@H@Z 0058ac60 f i DesignRules.obj
 0002:0000ed10       ?ElementAt@?$CArray@Vcarea@@V1@@@QAEAAVcarea@@H@Z 0058ad10 f i DesignRules.obj
 0002:0000edc0       ??0id@@QAE@HHHHH@Z         0058adc0 f i DesignRules.obj
 0002:0000ee40       ??0CBoardOutlineImage@@QAE@XZ 0058ae40 f   DisplayList.obj
 0002:0000f000       ??0dl_element@@QAE@XZ      0058b000 f i DisplayList.obj
 0002:0000f070       ??1dl_element@@QAE@XZ      0058b070 f i DisplayList.obj
 0002:0000f0d0       ??1CBoardOutlineImage@@QAE@XZ 0058b0d0 f   DisplayList.obj
 0002:0000f2b0       ?Load@CBoardOutlineImage@@QAEXPAV?$CStringT@DV?$StrTraitMFC_DLL@DV?$ChTraitsCRT@D@ATL@@@@@ATL@@H@Z 0058b2b0 f   DisplayList.obj
 0002:0000f620       ?MoveAreaCorner@CNetList@@QAEXPAVcnet@@HHHHH@Z 0058b620 f   NetList.obj
 0002:0000f6f0       ?UpdateBoardOutline@CBoardOutlineImage@@QAEXXZ 0058b6f0 f   DisplayList.obj
 0002:0000f880       ?Clear@CBoardOutlineImage@@QAEXXZ 0058b880 f   DisplayList.obj
 0002:0000f8f0       ?Mirror@CBoardOutlineImage@@QAEXXZ 0058b8f0 f   DisplayList.obj
 0002:0000fd50       ?SetAreaConnections@CNetList@@QAEXXZ 0058bd50 f   NetList.obj
 0002:0000fe70       ?InvertColors@CBoardOutlineImage@@QAEXXZ 0058be70 f   DisplayList.obj
 0002:0000fec0       ?Intersection@CDisplayList@@QAEHPAVdl_element@@0@Z 0058bec0 f   DisplayList.obj
 0002:00010b20       ?ChangeSegmentLayer@CNetList@@QAEHPAVcnet@@HHHHHH@Z 0058cb20 f   NetList.obj
 0002:00010db0       ?GetInode@cpath@@QAEHH@Z   0058cdb0 f i NetList.obj
 0002:00010e30       ??0CDisplayList@@QAE@XZ    0058ce30 f   DisplayList.obj
 0002:00011110       ?GetNetPtrByName@CNetList@@QAEPAVcnet@@PAV?$CStringT@DV?$StrTraitMFC_DLL@DV?$ChTraitsCRT@D@ATL@@@@@ATL@@@Z 0058d110 f   NetList.obj
 0002:000111d0       ??1CDisplayList@@QAE@XZ    0058d1d0 f   DisplayList.obj
 0002:000112a0       ?RemoveAll@CDisplayList@@QAEXXZ 0058d2a0 f   DisplayList.obj
 0002:000113f0       ?SetMapping@CDisplayList@@QAEXPAVCRect@@0HHNHH@Z 0058d3f0 f   DisplayList.obj
 0002:000116b0       ?GetAt@?$CArray@PAUgpc_polygon@@ABQAU1@@@QAEAAPAUgpc_polygon@@H@Z 0058d6b0 f i NetList.obj
 0002:00011760       ?AddSelector@CDisplayList@@QAEPAVdl_element@@Vid@@PAXHHPAUtagRECT@@HPAVCPoint@@HH@Z 0058d760 f   DisplayList.obj
 0002:00011830       ?AddSelector@CDisplayList@@QAEXPAVdl_element@@@Z 0058d830 f   DisplayList.obj
 0002:00011890       ?Add@CDisplayList@@QAEPAVdl_element@@Vid@@PAXHHHPAUtagRECT@@HPAVCPoint@@HH@Z 0058d890 f   DisplayList.obj
 0002:00011c30       ?GetNewTeeID@CNetList@@QAEHXZ 0058dc30 f   NetList.obj
 0002:00011d20       ?HighLight@CDisplayList@@QAEXPAVdl_element@@@Z 0058dd20 f   DisplayList.obj
 0002:00011d80       ?HighlightAll@CDisplayList@@QAEHXZ 0058dd80 f   DisplayList.obj
 0002:00011f30       ?GetHighlightedBounds@CDisplayList@@QAE?AUtagRECT@@PAH@Z 0058df30 f   DisplayList.obj
 0002:00012180       ?GetAt@?$CArray@PAVCPolyLine@@ABQAV1@@@QAEAAPAVCPolyLine@@H@Z 0058e180 f i NetList.obj
 0002:00012210       ?Cpy@CDisplayList@@QAEPAVdl_element@@PAV2@@Z 0058e210 f   DisplayList.obj
 0002:000123c0       ?Move@CDisplayList@@QAEXPAVdl_element@@HH@Z 0058e3c0 f   DisplayList.obj
 0002:000124a0       ?Get_Start@CDisplayList@@QAEPAVdl_element@@XZ 0058e4a0 f   DisplayList.obj
 0002:000124e0       ?Get_End@CDisplayList@@QAEPAVdl_element@@XZ 0058e4e0 f   DisplayList.obj
 0002:00012520       ?Get_Rect@CDisplayList@@QAEPAUtagRECT@@PAVdl_element@@PAU2@@Z 0058e520 f   DisplayList.obj
 0002:000125c0       ?Get_Points@CDisplayList@@QAEPAV?$CArray@VCPoint@@ABV1@@@PAVdl_element@@PAVCPoint@@PAHHH@Z 0058e5c0 f   DisplayList.obj
 0002:00012710       ?Get_el_w@CDisplayList@@QAEHPAVdl_element@@@Z 0058e710 f   DisplayList.obj
 0002:00012760       ?Get_Selected@CDisplayList@@QAEHXZ 0058e760 f   DisplayList.obj
 0002:00012800       ?Set_RectGroup@CDisplayList@@QAEXPAVdl_element@@HHHH@Z 0058e800 f   DisplayList.obj
 0002:00012890       ?Get_RectGroup@CDisplayList@@QAEHPAVdl_element@@PAUtagRECT@@@Z 0058e890 f   DisplayList.obj
 0002:00012940       ?Get_Endpoints@CDisplayList@@QAEXPAVCPoint@@0@Z 0058e940 f   DisplayList.obj
 0002:000129e0       ?Remove@CDisplayList@@QAE?AVid@@PAVdl_element@@@Z 0058e9e0 f   DisplayList.obj
 0002:00012bb0       ??_Gdl_element@@QAEPAXI@Z  0058ebb0 f i DisplayList.obj
 0002:00012c20       ?MoveCanvas@CDisplayList@@QAEXPAVCDC@@HH@Z 0058ec20 f   DisplayList.obj
 0002:00012d10       ?ProcessMessages@CDisplayList@@QAEHXZ 0058ed10 f   DisplayList.obj
 0002:00012de0       ?Draw@CDisplayList@@QAEXPAVCDC@@H@Z 0058ede0 f   DisplayList.obj
 0002:00017be0       ?ReverseNetConnect@CNetList@@QAEHPAVcnet@@HH@Z 00593be0 f   NetList.obj
 0002:000183e0       ?AddNetStub@CNetList@@QAEHPAVcnet@@HHH@Z 005943e0 f   NetList.obj
 0002:000188d0       ?CleanUpAllConnections@CNetList@@QAEXPAV?$CStringT@DV?$StrTraitMFC_DLL@DV?$ChTraitsCRT@D@ATL@@@@@ATL@@@Z 005948d0 f   NetList.obj
 0002:00018e50       ?TestPointInArea@CNetList@@QAEHPAVcnet@@HHHPAH@Z 00594e50 f   NetList.obj
 0002:00018f50       ?abs@@YAJJ@Z               00594f50 f i DisplayList.obj
 0002:00018fa0       ??_H@YGXPAXIHP6EPAX0@Z@Z   00594fa0 f i DisplayList.obj
 0002:00019010       ?SetLayerRGB@CDisplayList@@QAEXHHHH@Z 00595010 f   DisplayList.obj
 0002:00019090       ?SetLayerVisible@CDisplayList@@QAEXHH@Z 00595090 f   DisplayList.obj
 0002:000190e0       ?TestSelect@CDisplayList@@QAEPAXHHPAVid@@PAH0PAX0H@Z 005950e0 f   DisplayList.obj
 0002:0001a180       ?RouteSegment@CNetList@@QAEHPAVcnet@@HHHHHHHH@Z 00596180 f   NetList.obj
 0002:0001a320       ?SetSegmentWidth@CNetList@@QAEHPAVcnet@@HHHHH@Z 00596320 f   NetList.obj
 0002:0001a460       ?CancelDraggingStub@CNetList@@QAEXPAVcnet@@HH@Z 00596460 f   NetList.obj
 0002:0001a5a0       ??_Fid@@QAEXXZ             005965a0 f i DisplayList.obj
 0002:0001a600       ?StartDraggingArray@CDisplayList@@QAEHPAVCDC@@HHH@Z 00596600 f   DisplayList.obj
 0002:0001a700       ?StartDraggingRectangle@CDisplayList@@QAEHPAVCDC@@HHHHHHH@Z 00596700 f   DisplayList.obj
 0002:0001a8b0       ?StartDraggingRatLine@CDisplayList@@QAEHPAVCDC@@HHHHHHH@Z 005968b0 f   DisplayList.obj
 0002:0001a9c0       ?SetDragArcStyle@CDisplayList@@QAEXH@Z 005969c0 f   DisplayList.obj
 0002:0001aa50       ?StartDraggingArc@CDisplayList@@QAEHPAVCDC@@HHHHHHHH@Z 00596a50 f   DisplayList.obj
 0002:0001abc0       ?StartDraggingLine@CDisplayList@@QAEHPAVCDC@@HHHHHHHHHHHH@Z 00596bc0 f   DisplayList.obj
 0002:0001ad60       ?StartDraggingLineVertex@CDisplayList@@QAEHPAVCDC@@HHHHHHHHHHHHHHHHH@Z 00596d60 f   DisplayList.obj
 0002:0001afc0       ?StartDraggingLineSegment@CDisplayList@@QAEHPAVCDC@@HHHHHHHHHHHHHHHHHHHHHHH@Z 00596fc0 f   DisplayList.obj
 0002:0001b260       ?Drag@CDisplayList@@QAEXPAVCDC@@HH@Z 00597260 f   DisplayList.obj
 0002:0001d1a0       ?DrawSegment@CNetList@@QAEHPAVcnet@@HH@Z 005991a0 f   NetList.obj
 0002:0001d570       ?PartAdded@CNetList@@QAEXPAVcpart@@@Z 00599570 f   NetList.obj
 0002:0001d7e0       ?PartCheckConnect@CNetList@@QAEHPAVcpart@@@Z 005997e0 f   NetList.obj
 0002:0001d970       ?StopDragging@CDisplayList@@QAEHXZ 00599970 f   DisplayList.obj
 0002:0001da00       ?ChangeRoutingLayer@CDisplayList@@QAEXPAVCDC@@HHH@Z 00599a00 f   DisplayList.obj
 0002:0001e040       ?CancelDraggingEndVertex@CNetList@@QAEXPAVcnet@@HH@Z 0059a040 f   NetList.obj
 0002:0001e1d0       ?IncrementDragAngle@CDisplayList@@QAEXPAVCDC@@@Z 0059a1d0 f   DisplayList.obj
 0002:0001e650       ?HighlightNet@CNetList@@QAEXPAVcnet@@H@Z 0059a650 f   NetList.obj
 0002:0001e770       ?FlipDragSide@CDisplayList@@QAEXPAVCDC@@@Z 0059a770 f   DisplayList.obj
 0002:0001ec10       ?InsertAreaCorner@CNetList@@QAEHPAVcnet@@HHHHHH@Z 0059ac10 f   NetList.obj
 0002:0001ed40       ?GetDragSide@CDisplayList@@QAEHXZ 0059ad40 f   DisplayList.obj
 0002:0001ed80       ?GetDragAngle@CDisplayList@@QAEHXZ 0059ad80 f   DisplayList.obj
 0002:0001edc0       ?MakeDragLineArray@CDisplayList@@QAEHH@Z 0059adc0 f   DisplayList.obj
 0002:0001eeb0       ?MakeDragRatlineArray@CDisplayList@@QAEHHH@Z 0059aeb0 f   DisplayList.obj
 0002:0001f040       ?AddDragLine@CDisplayList@@QAEHVCPoint@@0@Z 0059b040 f   DisplayList.obj
 0002:0001f170       ?AddDragRatline@CDisplayList@@QAEHVCPoint@@0@Z 0059b170 f   DisplayList.obj
 0002:0001f290       ?CancelHighLight@CDisplayList@@QAEHHH@Z 0059b290 f   DisplayList.obj
 0002:0001f400       ?SetDCToWorldCoords@CDisplayList@@QAEXPAVCDC@@00HH@Z 0059b400 f   DisplayList.obj
 0002:0001f710       ?SetAtGrow@?$CArray@UtagRECT@@ABU1@@@QAEXHABUtagRECT@@@Z 0059b710 f i NetList.obj
 0002:0001f7e0       ?SetVisibleGrid@CDisplayList@@QAEXHN@Z 0059b7e0 f   DisplayList.obj
 0002:0001f840       ?GetPDFLayer@CDisplayList@@QAEHHHPAH@Z 0059b840 f   DisplayList.obj
 0002:0001fbb0       ??$DumpElements@Vcarea@@@@YGXAAVCDumpContext@@PBVcarea@@H@Z 0059bbb0 f i NetList.obj
 0002:0001fc80       ?SetStatic@CDisplayList@@QAEXH@Z 0059bc80 f   DisplayList.obj
 0002:0001fd70       ?SetUpCrosshairs@CDisplayList@@QAEXHHH@Z 0059bd70 f   DisplayList.obj
 0002:000200a0       ?WindowToPCB@CDisplayList@@QAE?AVCPoint@@V2@@Z 0059c0a0 f   DisplayList.obj
 0002:000201e0       ?ScreenToPCB@CDisplayList@@QAE?AVCPoint@@V2@@Z 0059c1e0 f   DisplayList.obj
 0002:000202d0       ?PCBToScreen@CDisplayList@@QAE?AVCPoint@@V2@@Z 0059c2d0 f   DisplayList.obj
 0002:00020420       ?GetWindowRect@CDisplayList@@QAE?AUtagRECT@@XZ 0059c420 f   DisplayList.obj
 0002:00020510       ??HATL@@YA?AV?$CStringT@DV?$StrTraitMFC_DLL@DV?$ChTraitsCRT@D@ATL@@@@@0@ABV10@PBD@Z 0059c510 f i DisplayList.obj
 0002:000206c0       ??8ATL@@YA_NABV?$CStringT@DV?$StrTraitMFC_DLL@DV?$ChTraitsCRT@D@ATL@@@@@0@PBD@Z 0059c6c0 f i DisplayList.obj
 0002:00020730       ??0?$CArray@VCPoint@@ABV1@@@QAE@XZ 0059c730 f i DisplayList.obj
 0002:000207c0       ?GetSize@?$CArray@VCPoint@@ABV1@@@QBEHXZ 0059c7c0 f i DisplayList.obj
 0002:00020800       ??A?$CArray@VCPoint@@ABV1@@@QAEAAVCPoint@@H@Z 0059c800 f i DisplayList.obj
 0002:00020860       ?ElementAt@?$CArray@VCPoint@@ABV1@@@QAEAAVCPoint@@H@Z 0059c860 f i DisplayList.obj
 0002:00020910       ??8@YAHVid@@0@Z            0059c910 f i DisplayList.obj
 0002:000209a0       ??1?$CArray@VCPoint@@ABV1@@@UAE@XZ 0059c9a0 f i DisplayList.obj
 0002:00020ab0       ?Serialize@?$CArray@VCPoint@@ABV1@@@UAEXAAVCArchive@@@Z 0059cab0 f i DisplayList.obj
 0002:00020b80       ?Dump@?$CArray@VCPoint@@ABV1@@@UBEXAAVCDumpContext@@@Z 0059cb80 f i DisplayList.obj
 0002:00020c60       ?AssertValid@?$CArray@VCPoint@@ABV1@@@UBEXXZ 0059cc60 f i DisplayList.obj
 0002:00020dc0       ??_E?$CArray@VCPoint@@ABV1@@@UAEPAXI@Z 0059cdc0 f i DisplayList.obj
 0002:00020dc0       ??_G?$CArray@VCPoint@@ABV1@@@UAEPAXI@Z 0059cdc0 f i DisplayList.obj
 0002:00020e30       ?SetSize@?$CArray@VCPoint@@ABV1@@@QAEXHH@Z 0059ce30 f i DisplayList.obj
 0002:00021320       ??1?$CArray@PAUgpc_polygon@@ABQAU1@@@UAE@XZ 0059d320 f i NetList.obj
 0002:00021450       ??2@YAPAXIPAX@Z            0059d450 f i DisplayList.obj
 0002:00021490       ?memcpy_s@Checked@ATL@@YAXPAXIPBXI@Z 0059d490 f i DisplayList.obj
 0002:00021510       ?AfxCrtErrorCheck@@YAHH@Z  0059d510 f i DisplayList.obj
 0002:00021620       ??$SerializeElements@VCPoint@@@@YGXAAVCArchive@@PAVCPoint@@H@Z 0059d620 f i DisplayList.obj
 0002:00021810       ??$DumpElements@VCPoint@@@@YGXAAVCDumpContext@@PBVCPoint@@H@Z 0059d810 f i DisplayList.obj
 0002:00021900       ?_GetBaseClass@CDlgAddArea@@KGPAUCRuntimeClass@@XZ 0059d900 f   DlgAddArea.obj
 0002:00021950       ?GetThisClass@CDlgAddArea@@SGPAUCRuntimeClass@@XZ 0059d950 f   DlgAddArea.obj
 0002:00021990       ?GetRuntimeClass@CDlgAddArea@@UBEPAUCRuntimeClass@@XZ 0059d990 f   DlgAddArea.obj
 0002:000219d0       ??0CDlgAddArea@@QAE@PAVCWnd@@@Z 0059d9d0 f   DlgAddArea.obj
 0002:00021b30       ??_ECDlgAddArea@@UAEPAXI@Z 0059db30 f i DlgAddArea.obj
 0002:00021b30       ??_GCDlgAddArea@@UAEPAXI@Z 0059db30 f i DlgAddArea.obj
 0002:00021ba0       ??1CDlgAddArea@@UAE@XZ     0059dba0 f   DlgAddArea.obj
 0002:00021cf0       ?DoDataExchange@CDlgAddArea@@MAEXPAVCDataExchange@@@Z 0059dcf0 f   DlgAddArea.obj
 0002:000222c0       ?RemoveAt@?$CArray@PAVdl_element@@ABQAV1@@@QAEXHH@Z 0059e2c0 f i NetList.obj
 0002:00022430       ?GetMessageMap@CDlgAddArea@@MBEPBUAFX_MSGMAP@@XZ 0059e430 f   DlgAddArea.obj
 0002:00022480       ?GetThisMessageMap@CDlgAddArea@@KGPBUAFX_MSGMAP@@XZ 0059e480 f   DlgAddArea.obj
 0002:000224c0       ?Initialize@CDlgAddArea@@QAEXPAVCNetList@@HPAVcnet@@HHHHH@Z 0059e4c0 f   DlgAddArea.obj
 0002:000225a0       ?OnBnClickedQ1@CDlgAddArea@@QAEXXZ 0059e5a0 f   DlgAddArea.obj
 0002:00022610       ?OnBnClickedQ2@CDlgAddArea@@QAEXXZ 0059e610 f   DlgAddArea.obj
 0002:00022680       ?OnBnClickedQ3@CDlgAddArea@@QAEXXZ 0059e680 f   DlgAddArea.obj
 0002:000226f0       ?OnBnClickedRadioNone@CDlgAddArea@@QAEXXZ 0059e6f0 f   DlgAddArea.obj
 0002:00022750       ?OnBnClickedRadioEdge@CDlgAddArea@@QAEXXZ 0059e750 f   DlgAddArea.obj
 0002:000227b0       ?OnBnClickedRadioFull@CDlgAddArea@@QAEXXZ 0059e7b0 f   DlgAddArea.obj
 0002:00022810       ?_GetBaseClass@CDlgAddCode@@KGPAUCRuntimeClass@@XZ 0059e810 f   DlgAddCode.obj
 0002:00022860       ?GetThisClass@CDlgAddCode@@SGPAUCRuntimeClass@@XZ 0059e860 f   DlgAddCode.obj
 0002:000228a0       ?GetRuntimeClass@CDlgAddCode@@UBEPAUCRuntimeClass@@XZ 0059e8a0 f   DlgAddCode.obj
 0002:000228e0       ??0CDlgAddCode@@QAE@PAVCWnd@@@Z 0059e8e0 f   DlgAddCode.obj
 0002:00022a00       ??_GCDlgAddCode@@UAEPAXI@Z 0059ea00 f i DlgAddCode.obj
 0002:00022a00       ??_ECDlgAddCode@@UAEPAXI@Z 0059ea00 f i DlgAddCode.obj
 0002:00022a70       ??1CDlgAddCode@@UAE@XZ     0059ea70 f   DlgAddCode.obj
 0002:00022b40       ?DoDataExchange@CDlgAddCode@@MAEXPAVCDataExchange@@@Z 0059eb40 f   DlgAddCode.obj
 0002:00022ff0       ?AssertValid@?$CArray@PAUgpc_polygon@@ABQAU1@@@UBEXXZ 0059eff0 f i NetList.obj
 0002:00023120       ?Outgoing@CDlgAddCode@@QAEXXZ 0059f120 f   DlgAddCode.obj
 0002:000234e0       ?GetMessageMap@CDlgAddCode@@MBEPBUAFX_MSGMAP@@XZ 0059f4e0 f   DlgAddCode.obj
 0002:00023530       ?GetThisMessageMap@CDlgAddCode@@KGPBUAFX_MSGMAP@@XZ 0059f530 f   DlgAddCode.obj
 0002:00023570       ?Initialize@CDlgAddCode@@QAEXPAVCShape@@@Z 0059f570 f   DlgAddCode.obj
 0002:000235d0       ?OnBnClickedCancel@CDlgAddCode@@QAEXXZ 0059f5d0 f   DlgAddCode.obj
 0002:00023620       ?OnEnSetfocusCode@CDlgAddCode@@QAEXXZ 0059f620 f   DlgAddCode.obj
 0002:00023850       ?OnBnClickedOk@CDlgAddCode@@QAEXXZ 0059f850 f   DlgAddCode.obj
 0002:000238a0       ?GetAt@?$CArray@V?$CStringT@DV?$StrTraitMFC_DLL@DV?$ChTraitsCRT@D@ATL@@@@@ATL@@ABV12@@@QAEAAV?$CStringT@DV?$StrTraitMFC_DLL@DV?$ChTraitsCRT@D@ATL@@@@@ATL@@H@Z 0059f8a0 f i DlgAddCode.obj
 0002:00023950       ?GetSize@?$CArray@V?$CStringT@DV?$StrTraitMFC_DLL@DV?$ChTraitsCRT@D@ATL@@@@@ATL@@ABV12@@@QBEHXZ 0059f950 f i DlgAddCode.obj
 0002:00023990       ?RemoveAll@?$CArray@V?$CStringT@DV?$StrTraitMFC_DLL@DV?$ChTraitsCRT@D@ATL@@@@@ATL@@ABV12@@@QAEXXZ 0059f990 f i DlgAddCode.obj
 0002:000239f0       ?SetSize@?$CArray@V?$CStringT@DV?$StrTraitMFC_DLL@DV?$ChTraitsCRT@D@ATL@@@@@ATL@@ABV12@@@QAEXHH@Z 0059f9f0 f i DlgAddCode.obj
 0002:00023f20       ??1?$CArray@PAVdl_element@@ABQAV1@@@UAE@XZ 0059ff20 f i NetList.obj
 0002:00024070       ?Add@?$CArray@V?$CStringT@DV?$StrTraitMFC_DLL@DV?$ChTraitsCRT@D@ATL@@@@@ATL@@ABV12@@@QAEHABV?$CStringT@DV?$StrTraitMFC_DLL@DV?$ChTraitsCRT@D@ATL@@@@@ATL@@@Z 005a0070 f i DlgAddCode.obj
 0002:000240e0       ??_G?$CStringT@DV?$StrTraitMFC_DLL@DV?$ChTraitsCRT@D@ATL@@@@@ATL@@QAEPAXI@Z 005a00e0 f i DlgAddCode.obj
 0002:00024160       ?SetAtGrow@?$CArray@V?$CStringT@DV?$StrTraitMFC_DLL@DV?$ChTraitsCRT@D@ATL@@@@@ATL@@ABV12@@@QAEXHABV?$CStringT@DV?$StrTraitMFC_DLL@DV?$ChTraitsCRT@D@ATL@@@@@ATL@@@Z 005a0160 f i DlgAddCode.obj
 0002:00024240       ?_GetBaseClass@CDlgAddHole@@KGPAUCRuntimeClass@@XZ 005a0240 f   DlgAddHole.obj
 0002:00024290       ?GetThisClass@CDlgAddHole@@SGPAUCRuntimeClass@@XZ 005a0290 f   DlgAddHole.obj
 0002:000242d0       ?GetRuntimeClass@CDlgAddHole@@UBEPAUCRuntimeClass@@XZ 005a02d0 f   DlgAddHole.obj
 0002:00024310       ??0CDlgAddHole@@QAE@PAVCWnd@@@Z 005a0310 f   DlgAddHole.obj
 0002:00024430       ??_ECDlgAddHole@@UAEPAXI@Z 005a0430 f i DlgAddHole.obj
 0002:00024430       ??_GCDlgAddHole@@UAEPAXI@Z 005a0430 f i DlgAddHole.obj
 0002:000244a0       ??1CDlgAddHole@@UAE@XZ     005a04a0 f   DlgAddHole.obj
 0002:00024570       ?DoDataExchange@CDlgAddHole@@MAEXPAVCDataExchange@@@Z 005a0570 f   DlgAddHole.obj
 0002:00024a20       ?AssertValid@?$CArray@PAVdl_element@@ABQAV1@@@UBEXXZ 005a0a20 f i NetList.obj
 0002:00024b50       ?Outgoing@CDlgAddHole@@QAEXXZ 005a0b50 f   DlgAddHole.obj
 0002:00024f10       ?GetMessageMap@CDlgAddHole@@MBEPBUAFX_MSGMAP@@XZ 005a0f10 f   DlgAddHole.obj
 0002:00024f60       ?GetThisMessageMap@CDlgAddHole@@KGPBUAFX_MSGMAP@@XZ 005a0f60 f   DlgAddHole.obj
 0002:00024fa0       ?Initialize@CDlgAddHole@@QAEXPAVCShape@@@Z 005a0fa0 f   DlgAddHole.obj
 0002:00025000       ?OnBnClickedCancel@CDlgAddHole@@QAEXXZ 005a1000 f   DlgAddHole.obj
 0002:00025050       ?OnEnSetfocusCode@CDlgAddHole@@QAEXXZ 005a1050 f   DlgAddHole.obj
 0002:00025280       ?OnBnClickedOk@CDlgAddHole@@QAEXXZ 005a1280 f   DlgAddHole.obj
 0002:000252d0       ?_GetBaseClass@CDlgAddMaskCutout@@KGPAUCRuntimeClass@@XZ 005a12d0 f   DlgAddMaskCutout.obj
 0002:00025320       ?GetThisClass@CDlgAddMaskCutout@@SGPAUCRuntimeClass@@XZ 005a1320 f   DlgAddMaskCutout.obj
 0002:00025360       ?GetRuntimeClass@CDlgAddMaskCutout@@UBEPAUCRuntimeClass@@XZ 005a1360 f   DlgAddMaskCutout.obj
 0002:000253a0       ??0CDlgAddMaskCutout@@QAE@PAVCWnd@@@Z 005a13a0 f   DlgAddMaskCutout.obj
 0002:000254b0       ??_ECDlgAddMaskCutout@@UAEPAXI@Z 005a14b0 f i DlgAddMaskCutout.obj
 0002:000254b0       ??_GCDlgAddMaskCutout@@UAEPAXI@Z 005a14b0 f i DlgAddMaskCutout.obj
 0002:00025520       ??1CDlgAddMaskCutout@@UAE@XZ 005a1520 f   DlgAddMaskCutout.obj
 0002:00025620       ?Initialize@CDlgAddMaskCutout@@QAEXHH@Z 005a1620 f   DlgAddMaskCutout.obj
 0002:00025680       ?DoDataExchange@CDlgAddMaskCutout@@MAEXPAVCDataExchange@@@Z 005a1680 f   DlgAddMaskCutout.obj
 0002:000259a0       ?GetMessageMap@CDlgAddMaskCutout@@MBEPBUAFX_MSGMAP@@XZ 005a19a0 f   DlgAddMaskCutout.obj
 0002:000259f0       ?GetThisMessageMap@CDlgAddMaskCutout@@KGPBUAFX_MSGMAP@@XZ 005a19f0 f   DlgAddMaskCutout.obj
 0002:00025a30       ?GetCurSel@CDlgAddMaskCutout@@QAEXXZ 005a1a30 f   DlgAddMaskCutout.obj
 0002:00025d60       ?SetCurSel@CDlgAddMaskCutout@@QAEXXZ 005a1d60 f   DlgAddMaskCutout.obj
 0002:00025f00       ?OnCbnSelchangeCombo1@CDlgAddMaskCutout@@QAEXXZ 005a1f00 f   DlgAddMaskCutout.obj
 0002:00025f50       ?_GetBaseClass@CDlgAddMerge@@KGPAUCRuntimeClass@@XZ 005a1f50 f   DlgAddMerge.obj
 0002:00025fa0       ?GetThisClass@CDlgAddMerge@@SGPAUCRuntimeClass@@XZ 005a1fa0 f   DlgAddMerge.obj
 0002:00025fe0       ?GetRuntimeClass@CDlgAddMerge@@UBEPAUCRuntimeClass@@XZ 005a1fe0 f   DlgAddMerge.obj
 0002:00026020       ??0CDlgAddMerge@@QAE@PAVCWnd@@@Z 005a2020 f   DlgAddMerge.obj
 0002:00026180       ??_ECDlgAddMerge@@UAEPAXI@Z 005a2180 f i DlgAddMerge.obj
 0002:00026180       ??_GCDlgAddMerge@@UAEPAXI@Z 005a2180 f i DlgAddMerge.obj
 0002:000261f0       ??1CDlgAddMerge@@UAE@XZ    005a21f0 f   DlgAddMerge.obj
 0002:00026300       ?DoDataExchange@CDlgAddMerge@@MAEXPAVCDataExchange@@@Z 005a2300 f   DlgAddMerge.obj
 0002:00026980       ?StartDraggingStub@CNetList@@QAEXPAVCDC@@PAVcnet@@HHHHHHHHHHH@Z 005a2980 f   NetList.obj
 0002:00026b20       ?GetMessageMap@CDlgAddMerge@@MBEPBUAFX_MSGMAP@@XZ 005a2b20 f   DlgAddMerge.obj
 0002:00026b70       ?GetThisMessageMap@CDlgAddMerge@@KGPBUAFX_MSGMAP@@XZ 005a2b70 f   DlgAddMerge.obj
 0002:00026bb0       ?GetIndex@Merge@@QAEHV?$CStringT@DV?$StrTraitMFC_DLL@DV?$ChTraitsCRT@D@ATL@@@@@ATL@@@Z 005a2bb0 f i DlgAddMerge.obj
 0002:00026d10       ?GetMerge@Merge@@QAE?AV?$CStringT@DV?$StrTraitMFC_DLL@DV?$ChTraitsCRT@D@ATL@@@@@ATL@@H@Z 005a2d10 f i DlgAddMerge.obj
 0002:00026e00       ?GetSize@Merge@@QAEHXZ     005a2e00 f i DlgAddMerge.obj
 0002:00026e40       ??A?$CArray@V?$CStringT@DV?$StrTraitMFC_DLL@DV?$ChTraitsCRT@D@ATL@@@@@ATL@@ABV12@@@QAEAAV?$CStringT@DV?$StrTraitMFC_DLL@DV?$ChTraitsCRT@D@ATL@@@@@ATL@@H@Z 005a2e40 f i DlgAddMerge.obj
 0002:00026ea0       ?ElementAt@?$CArray@V?$CStringT@DV?$StrTraitMFC_DLL@DV?$ChTraitsCRT@D@ATL@@@@@ATL@@ABV12@@@QAEAAV?$CStringT@DV?$StrTraitMFC_DLL@DV?$ChTraitsCRT@D@ATL@@@@@ATL@@H@Z 005a2ea0 f i DlgAddMerge.obj
 0002:00026f50       ?_GetBaseClass@CDlgAddModule@@KGPAUCRuntimeClass@@XZ 005a2f50 f   DlgAddModule.obj
 0002:00026fa0       ?GetThisClass@CDlgAddModule@@SGPAUCRuntimeClass@@XZ 005a2fa0 f   DlgAddModule.obj
 0002:00026fe0       ?GetRuntimeClass@CDlgAddModule@@UBEPAUCRuntimeClass@@XZ 005a2fe0 f   DlgAddModule.obj
 0002:00027020       ??0CDlgAddModule@@QAE@PAVCWnd@@@Z 005a3020 f   DlgAddModule.obj
 0002:00027140       ??_ECDlgAddModule@@UAEPAXI@Z 005a3140 f i DlgAddModule.obj
 0002:00027140       ??_GCDlgAddModule@@UAEPAXI@Z 005a3140 f i DlgAddModule.obj
 0002:000271b0       ??1CDlgAddModule@@UAE@XZ   005a31b0 f   DlgAddModule.obj
 0002:00027280       ?DoDataExchange@CDlgAddModule@@MAEXPAVCDataExchange@@@Z 005a3280 f   DlgAddModule.obj
 0002:00027480       ?Outgoing@CDlgAddModule@@QAEXXZ 005a3480 f   DlgAddModule.obj
 0002:00027840       ?GetMessageMap@CDlgAddModule@@MBEPBUAFX_MSGMAP@@XZ 005a3840 f   DlgAddModule.obj
 0002:00027890       ?GetThisMessageMap@CDlgAddModule@@KGPBUAFX_MSGMAP@@XZ 005a3890 f   DlgAddModule.obj
 0002:000278d0       ?Initialize@CDlgAddModule@@QAEXPAVCShape@@@Z 005a38d0 f   DlgAddModule.obj
 0002:00027930       ?OnBnClickedCancel@CDlgAddModule@@QAEXXZ 005a3930 f   DlgAddModule.obj
 0002:00027980       ?OnEnSetfocusCode@CDlgAddModule@@QAEXXZ 005a3980 f   DlgAddModule.obj
 0002:000279c0       ?OnBnClickedOk@CDlgAddModule@@QAEXXZ 005a39c0 f   DlgAddModule.obj
 0002:00027a10       ?_GetBaseClass@CDlgAddNet@@KGPAUCRuntimeClass@@XZ 005a3a10 f   DlgAddNet.obj
 0002:00027a60       ?GetThisClass@CDlgAddNet@@SGPAUCRuntimeClass@@XZ 005a3a60 f   DlgAddNet.obj
 0002:00027aa0       ?GetRuntimeClass@CDlgAddNet@@UBEPAUCRuntimeClass@@XZ 005a3aa0 f   DlgAddNet.obj
 0002:00027ae0       ??0CDlgAddNet@@QAE@PAVCWnd@@@Z 005a3ae0 f   DlgAddNet.obj
 0002:00027b50       ??_ECDlgAddNet@@UAEPAXI@Z  005a3b50 f i DlgAddNet.obj
 0002:00027b50       ??_GCDlgAddNet@@UAEPAXI@Z  005a3b50 f i DlgAddNet.obj
 0002:00027bc0       ??1CDlgAddNet@@UAE@XZ      005a3bc0 f   DlgAddNet.obj
 0002:00027c20       ?DoDataExchange@CDlgAddNet@@MAEXPAVCDataExchange@@@Z 005a3c20 f   DlgAddNet.obj
 0002:00027c80       ?GetMessageMap@CDlgAddNet@@MBEPBUAFX_MSGMAP@@XZ 005a3c80 f   DlgAddNet.obj
 0002:00027cd0       ?GetThisMessageMap@CDlgAddNet@@KGPBUAFX_MSGMAP@@XZ 005a3cd0 f   DlgAddNet.obj
 0002:00027d10       ?_GetBaseClass@CDlgAddPart@@KGPAUCRuntimeClass@@XZ 005a3d10 f   DlgAddPart.obj
 0002:00027d60       ?GetThisClass@CDlgAddPart@@SGPAUCRuntimeClass@@XZ 005a3d60 f   DlgAddPart.obj
 0002:00027da0       ?GetRuntimeClass@CDlgAddPart@@UBEPAUCRuntimeClass@@XZ 005a3da0 f   DlgAddPart.obj
 0002:00027de0       ??0CDlgAddPart@@QAE@PAVCWnd@@@Z 005a3de0 f   DlgAddPart.obj
 0002:00028120       ??_GCDlgAddPart@@UAEPAXI@Z 005a4120 f i DlgAddPart.obj
 0002:00028120       ??_ECDlgAddPart@@UAEPAXI@Z 005a4120 f i DlgAddPart.obj
 0002:00028190       ??1CDlgAddPart@@UAE@XZ     005a4190 f   DlgAddPart.obj
 0002:00028490       ?DoDataExchange@CDlgAddPart@@MAEXPAVCDataExchange@@@Z 005a4490 f   DlgAddPart.obj
 0002:0002a550       ?CleanUpConnections@CNetList@@QAEXPAVcnet@@PAV?$CStringT@DV?$StrTraitMFC_DLL@DV?$ChTraitsCRT@D@ATL@@@@@ATL@@@Z 005a6550 f   NetList.obj
 0002:0002ad80       ?GetNewName@CDlgDupFootprintName@@QAEPAV?$CStringT@DV?$StrTraitMFC_DLL@DV?$ChTraitsCRT@D@ATL@@@@@ATL@@XZ 005a6d80 f i DlgAddPart.obj
 0002:0002adc0       ?GetMessageMap@CDlgAddPart@@MBEPBUAFX_MSGMAP@@XZ 005a6dc0 f   DlgAddPart.obj
 0002:0002ae10       ?GetThisMessageMap@CDlgAddPart@@KGPBUAFX_MSGMAP@@XZ 005a6e10 f   DlgAddPart.obj
 0002:0002ae50       ?Initialize@CDlgAddPart@@QAEXPAV?$CArray@Upart_info@@ABU1@@@HHHHHHPAVCMapStringToPtr@@PAVCFootLibFolderMap@@HPAVCDlgLog@@PAV?$CStringT@DV?$StrTraitMFC_DLL@DV?$ChTraitsCRT@D@ATL@@@@@ATL@@@Z 005a6e50 f   DlgAddPart.obj
 0002:0002aff0       ?GetDragFlag@CDlgAddPart@@QAEHXZ 005a6ff0 f   DlgAddPart.obj
 0002:0002b030       ?OnInitDialog@CDlgAddPart@@EAEHXZ 005a7030 f   DlgAddPart.obj
 0002:0002bd20       ?PartRefChanged@CNetList@@QAEHPAV?$CStringT@DV?$StrTraitMFC_DLL@DV?$ChTraitsCRT@D@ATL@@@@@ATL@@0@Z 005a7d20 f   NetList.obj
 0002:0002bf60       ??1?$CArray@Vcconnect@@ABV1@@@UAE@XZ 005a7f60 f i NetList.obj
 0002:0002c050       ?InitPartLibTree@CDlgAddPart@@QAEXV?$CStringT@DV?$StrTraitMFC_DLL@DV?$ChTraitsCRT@D@ATL@@@@@ATL@@@Z 005a8050 f   DlgAddPart.obj
 0002:0002c7d0       ?InsertArea@CNetList@@QAEXPAVcnet@@HHHHHHH@Z 005a87d0 f   NetList.obj
 0002:0002c9b0       ?OnTvnSelchangedPartLibTree@CDlgAddPart@@AAEXPAUtagNMHDR@@PAJ@Z 005a89b0 f   DlgAddPart.obj
 0002:0002d250       ?RehookPartsToNet@CNetList@@QAEHPAVcnet@@@Z 005a9250 f   NetList.obj
 0002:0002d470       ?OnBnClickedRadioDrag@CDlgAddPart@@AAEXXZ 005a9470 f   DlgAddPart.obj
 0002:0002d530       ?OnBnClickedRadioSet@CDlgAddPart@@AAEXXZ 005a9530 f   DlgAddPart.obj
 0002:0002d5f0       ?OnBnClickedRadioOffBoard@CDlgAddPart@@AAEXXZ 005a95f0 f   DlgAddPart.obj
 0002:0002d6b0       ?OnEditFootChange@CDlgAddPart@@AAEXXZ 005a96b0 f   DlgAddPart.obj
 0002:0002d830       ?OnBnClickedOk@CDlgAddPart@@AAEXXZ 005a9830 f   DlgAddPart.obj
 0002:0002d9f0       ?OnBnClickedCancel@CDlgAddPart@@AAEXXZ 005a99f0 f   DlgAddPart.obj
 0002:0002dbc0       ?OnCbnSelchangeComboAddPartUnits@CDlgAddPart@@AAEXXZ 005a9bc0 f   DlgAddPart.obj
 0002:0002dc60       ?GetFields@CDlgAddPart@@QAEXXZ 005a9c60 f   DlgAddPart.obj
 0002:0002dee0       ?SetFields@CDlgAddPart@@QAEXXZ 005a9ee0 f   DlgAddPart.obj
 0002:0002e140       ?OnBnClickedButtonBrowse@CDlgAddPart@@AAEXXZ 005aa140 f   DlgAddPart.obj
 0002:0002e4b0       ??1CPathDialog@@QAE@XZ     005aa4b0 f i DlgAddPart.obj
 0002:0002e510       ??1CPathDialogSub@@UAE@XZ  005aa510 f i DlgAddPart.obj
 0002:0002e560       ?OnStnClickedStatic2@CDlgAddPart@@QAEXXZ 005aa560 f   DlgAddPart.obj
 0002:0002e5a0       ?OnBnClickedCheck2@CDlgAddPart@@QAEXXZ 005aa5a0 f   DlgAddPart.obj
 0002:0002e9b0       ?OnCbnDropdownEditValue@CDlgAddPart@@QAEXXZ 005aa9b0 f   DlgAddPart.obj
 0002:0002eb70       ?OnCbnSelchangeEditValue@CDlgAddPart@@QAEXXZ 005aab70 f   DlgAddPart.obj
 0002:0002f330       ?FindTeeVertexInNet@CNetList@@QAEHPAVcnet@@HPAH1@Z 005ab330 f   NetList.obj
 0002:0002f520       ??HATL@@YA?AV?$CStringT@DV?$StrTraitMFC_DLL@DV?$ChTraitsCRT@D@ATL@@@@@0@ABV10@0@Z 005ab520 f i DlgAddPart.obj
 0002:0002f6e0       ??8ATL@@YA_NABV?$CStringT@DV?$StrTraitMFC_DLL@DV?$ChTraitsCRT@D@ATL@@@@@0@0@Z 005ab6e0 f i DlgAddPart.obj
 0002:0002f760       ??9ATL@@YA_NABV?$CStringT@DV?$StrTraitMFC_DLL@DV?$ChTraitsCRT@D@ATL@@@@@0@0@Z 005ab760 f i DlgAddPart.obj
 0002:0002f7e0       ??9ATL@@YA_NABV?$CStringT@DV?$StrTraitMFC_DLL@DV?$ChTraitsCRT@D@ATL@@@@@0@PBD@Z 005ab7e0 f i DlgAddPart.obj
 0002:0002f850       ?GetSize@?$CArray@Vpadstack@@ABV1@@@QBEHXZ 005ab850 f i DlgAddPart.obj
 0002:0002f890       ??A?$CArray@Vpadstack@@ABV1@@@QAEAAVpadstack@@H@Z 005ab890 f i DlgAddPart.obj
 0002:0002f8f0       ?GetSize@?$CArray@Upart_info@@ABU1@@@QBEHXZ 005ab8f0 f i DlgAddPart.obj
 0002:0002f930       ?SetSize@?$CArray@Upart_info@@ABU1@@@QAEXHH@Z 005ab930 f i DlgAddPart.obj
 0002:0002fe50       ?AssertValid@?$CArray@Vcconnect@@ABV1@@@UBEXXZ 005abe50 f i NetList.obj
 0002:0002ff90       ?GetAt@?$CArray@Upart_info@@ABU1@@@QAEAAUpart_info@@H@Z 005abf90 f i DlgAddPart.obj
 0002:00030040       ??A?$CArray@Upart_info@@ABU1@@@QAEAAUpart_info@@H@Z 005ac040 f i DlgAddPart.obj
 0002:000300a0       ??_Gpart_info@@QAEPAXI@Z   005ac0a0 f i DlgAddPart.obj
 0002:00030110       ??0part_info@@QAE@XZ       005ac110 f i DlgAddPart.obj
 0002:00030190       ??1part_info@@QAE@XZ       005ac190 f i DlgAddPart.obj
 0002:00030210       ?ElementAt@?$CArray@Vpadstack@@ABV1@@@QAEAAVpadstack@@H@Z 005ac210 f i DlgAddPart.obj
 0002:000302c0       ?ElementAt@?$CArray@Upart_info@@ABU1@@@QAEAAUpart_info@@H@Z 005ac2c0 f i DlgAddPart.obj
 0002:00030370       ?SetExpanded@CFootLibFolder@@QAEXHH@Z 005ac370 f i DlgAddPart.obj
 0002:000303e0       ??A?$CArray@VCFootLib@@ABV1@@@QAEAAVCFootLib@@H@Z 005ac3e0 f i DlgAddPart.obj
 0002:00030440       ?ElementAt@?$CArray@VCFootLib@@ABV1@@@QAEAAVCFootLib@@H@Z 005ac440 f i DlgAddPart.obj
 0002:000304f0       ?ConvertMaskCurSelToShape@@YAHH@Z 005ac4f0 f   DlgAddPin.obj
 0002:00030540       ?ConvertMaskShapeToCurSel@@YAHH@Z 005ac540 f   DlgAddPin.obj
 0002:00030590       ?GetNameValue@@YANPAV?$CStringT@DV?$StrTraitMFC_DLL@DV?$ChTraitsCRT@D@ATL@@@@@ATL@@@Z 005ac590 f   DlgAddPin.obj
 0002:000306d0       ?SortByName@@YAXPAV?$CArray@V?$CStringT@DV?$StrTraitMFC_DLL@DV?$ChTraitsCRT@D@ATL@@@@@ATL@@ABV12@@@@Z 005ac6d0 f   DlgAddPin.obj
 0002:00030900       ?_GetBaseClass@CDlgAddPin@@KGPAUCRuntimeClass@@XZ 005ac900 f   DlgAddPin.obj
 0002:00030950       ?GetThisClass@CDlgAddPin@@SGPAUCRuntimeClass@@XZ 005ac950 f   DlgAddPin.obj
 0002:00030990       ?GetRuntimeClass@CDlgAddPin@@UBEPAUCRuntimeClass@@XZ 005ac990 f   DlgAddPin.obj
 0002:000309d0       ??0CDlgAddPin@@QAE@PAVCWnd@@@Z 005ac9d0 f   DlgAddPin.obj
 0002:00031050       ?RemoveAt@?$CArray@Vcconnect@@ABV1@@@QAEXHH@Z 005ad050 f i NetList.obj
 0002:000311f0       ??_ECDlgAddPin@@UAEPAXI@Z  005ad1f0 f i DlgAddPin.obj
 0002:000311f0       ??_GCDlgAddPin@@UAEPAXI@Z  005ad1f0 f i DlgAddPin.obj
 0002:00031260       ??1CDlgAddPin@@UAE@XZ      005ad260 f   DlgAddPin.obj
 0002:000316d0       ??1?$CArray@Vcpin@@ABV1@@@UAE@XZ 005ad6d0 f i NetList.obj
 0002:000317f0       ?DoDataExchange@CDlgAddPin@@MAEXPAVCDataExchange@@@Z 005ad7f0 f   DlgAddPin.obj
 0002:00034fc0       ?ChangeConnectionPin@CNetList@@QAEHPAVcnet@@HH0PAVcpart@@PAV?$CStringT@DV?$StrTraitMFC_DLL@DV?$ChTraitsCRT@D@ATL@@@@@ATL@@HH@Z 005b0fc0 f   NetList.obj
 0002:00035970       ?StartDraggingEndVertex@CNetList@@QAEXPAVCDC@@PAVcnet@@HHH@Z 005b1970 f   NetList.obj
 0002:00035ba0       ?RemoveAt@?$CArray@Vcpin@@ABV1@@@QAEXHH@Z 005b1ba0 f i NetList.obj
 0002:00035db0       ?GetMessageMap@CDlgAddPin@@MBEPBUAFX_MSGMAP@@XZ 005b1db0 f   DlgAddPin.obj
 0002:00035e00       ?GetThisMessageMap@CDlgAddPin@@KGPBUAFX_MSGMAP@@XZ 005b1e00 f   DlgAddPin.obj
 0002:00035e40       ?InitDialog@CDlgAddPin@@QAEXPAVCShape@@HHH@Z 005b1e40 f   DlgAddPin.obj
 0002:00035f50       ?OnBnClickedRadioAddPin@CDlgAddPin@@QAEXXZ 005b1f50 f   DlgAddPin.obj
 0002:000360e0       ?OnBnClickedRadioAddRow@CDlgAddPin@@QAEXXZ 005b20e0 f   DlgAddPin.obj
 0002:00036250       ?OnBnClickedRadioDragPin@CDlgAddPin@@QAEXXZ 005b2250 f   DlgAddPin.obj
 0002:00036300       ?OnBnClickedRadioSetPinPos@CDlgAddPin@@QAEXXZ 005b2300 f   DlgAddPin.obj
 0002:000363d0       ?OnBnClickedCheckInnerSameAs@CDlgAddPin@@QAEXXZ 005b23d0 f   DlgAddPin.obj
 0002:00036430       ?OnBnClickedCheckBottomSameAs@CDlgAddPin@@QAEXXZ 005b2430 f   DlgAddPin.obj
 0002:00036490       ?OnCbnSelchangeComboPinUnits@CDlgAddPin@@QAEXXZ 005b2490 f   DlgAddPin.obj
 0002:00036530       ?SetFields@CDlgAddPin@@IAEXXZ 005b2530 f   DlgAddPin.obj
 0002:00037850       ?StartMovingSegment@CNetList@@QAEHPAVCDC@@PAVcnet@@HHHHHH@Z 005b3850 f   NetList.obj
 0002:00037d20       ?GetFields@CDlgAddPin@@IAEXXZ 005b3d20 f   DlgAddPin.obj
 0002:00038d70       ?CancelMovingSegment@CNetList@@QAEHPAVcnet@@HH@Z 005b4d70 f   NetList.obj
 0002:00038f90       ?RemoveAt@?$CArray@Vcarea@@V1@@@QAEXHH@Z 005b4f90 f i NetList.obj
 0002:00039180       ?OnChange@CDlgAddPin@@QAEXXZ 005b5180 f   DlgAddPin.obj
 0002:000391e0       ?OnChangeTopPadParam@CDlgAddPin@@QAEXXZ 005b51e0 f   DlgAddPin.obj
 0002:00039530       ?OnBnClickedCheckBottomSameAs2@CDlgAddPin@@QAEXXZ 005b5530 f   DlgAddPin.obj
 0002:00039570       ?InsertAt@?$CArray@Vpadstack@@ABV1@@@QAEXHABVpadstack@@H@Z 005b5570 f i DlgAddPin.obj
 0002:000398c0       ??3@YAXPAX0@Z              005b58c0 f i DlgAddPin.obj
 0002:000398f0       ?RemoveAt@?$CArray@Vpadstack@@ABV1@@@QAEXHH@Z 005b58f0 f i DlgAddPin.obj
 0002:00039ad0       ??4padstack@@QAEAAV0@ABV0@@Z 005b5ad0 f i DlgAddPin.obj
 0002:00039d60       ?memmove_s@Checked@ATL@@YAXPAXIPBXI@Z 005b5d60 f i DlgAddPin.obj
 0002:00039de0       ??0?$CArray@V?$CStringT@DV?$StrTraitMFC_DLL@DV?$ChTraitsCRT@D@ATL@@@@@ATL@@ABV12@@@QAE@XZ 005b5de0 f i DlgAddPin.obj
 0002:00039e70       ??1?$CArray@V?$CStringT@DV?$StrTraitMFC_DLL@DV?$ChTraitsCRT@D@ATL@@@@@ATL@@ABV12@@@UAE@XZ 005b5e70 f i DlgAddPin.obj
 0002:00039fa0       ?Serialize@?$CArray@V?$CStringT@DV?$StrTraitMFC_DLL@DV?$ChTraitsCRT@D@ATL@@@@@ATL@@ABV12@@@UAEXAAVCArchive@@@Z 005b5fa0 f i DlgAddPin.obj
 0002:0003a070       ?Dump@?$CArray@V?$CStringT@DV?$StrTraitMFC_DLL@DV?$ChTraitsCRT@D@ATL@@@@@ATL@@ABV12@@@UBEXAAVCDumpContext@@@Z 005b6070 f i DlgAddPin.obj
 0002:0003a150       ?AssertValid@?$CArray@V?$CStringT@DV?$StrTraitMFC_DLL@DV?$ChTraitsCRT@D@ATL@@@@@ATL@@ABV12@@@UBEXXZ 005b6150 f i DlgAddPin.obj
 0002:0003a2b0       ??_E?$CArray@V?$CStringT@DV?$StrTraitMFC_DLL@DV?$ChTraitsCRT@D@ATL@@@@@ATL@@ABV12@@@UAEPAXI@Z 005b62b0 f i DlgAddPin.obj
 0002:0003a2b0       ??_G?$CArray@V?$CStringT@DV?$StrTraitMFC_DLL@DV?$ChTraitsCRT@D@ATL@@@@@ATL@@ABV12@@@UAEPAXI@Z 005b62b0 f i DlgAddPin.obj
 0002:0003a320       ??_Gpadstack@@QAEPAXI@Z    005b6320 f i DlgAddPin.obj
 0002:0003a390       ??1padstack@@QAE@XZ        005b6390 f i DlgAddPin.obj
 0002:0003a410       ??$DumpElements@V?$CStringT@DV?$StrTraitMFC_DLL@DV?$ChTraitsCRT@D@ATL@@@@@ATL@@@@YGXAAVCDumpContext@@PBV?$CStringT@DV?$StrTraitMFC_DLL@DV?$ChTraitsCRT@D@ATL@@@@@ATL@@H@Z 005b6410 f i DlgAddPin.obj
 0002:0003a500       ?SetSize@?$CArray@Vpadstack@@ABV1@@@QAEXHH@Z 005b6500 f i DlgAddPin.obj
 0002:0003aae0       ?RemoveAt@?$CArray@PAUgpc_polygon@@ABQAU1@@@QAEXHH@Z 005b6ae0 f i NetList.obj
 0002:0003ac50       ?_GetBaseClass@CDlgAddPoly@@KGPAUCRuntimeClass@@XZ 005b6c50 f   DlgAddPoly.obj
 0002:0003aca0       ?GetThisClass@CDlgAddPoly@@SGPAUCRuntimeClass@@XZ 005b6ca0 f   DlgAddPoly.obj
 0002:0003ace0       ?GetRuntimeClass@CDlgAddPoly@@UBEPAUCRuntimeClass@@XZ 005b6ce0 f   DlgAddPoly.obj
 0002:0003ad20       ??0CDlgAddPoly@@QAE@PAVCWnd@@@Z 005b6d20 f   DlgAddPoly.obj
 0002:0003ae40       ??_GCDlgAddPoly@@UAEPAXI@Z 005b6e40 f i DlgAddPoly.obj
 0002:0003ae40       ??_ECDlgAddPoly@@UAEPAXI@Z 005b6e40 f i DlgAddPoly.obj
 0002:0003aeb0       ??1CDlgAddPoly@@UAE@XZ     005b6eb0 f   DlgAddPoly.obj
 0002:0003afb0       ?DoDataExchange@CDlgAddPoly@@MAEXPAVCDataExchange@@@Z 005b6fb0 f   DlgAddPoly.obj
 0002:0003b280       ?Initialize@CDlgAddPoly@@QAEXHHHHH@Z 005b7280 f   DlgAddPoly.obj
 0002:0003b330       ?GetMessageMap@CDlgAddPoly@@MBEPBUAFX_MSGMAP@@XZ 005b7330 f   DlgAddPoly.obj
 0002:0003b380       ?GetThisMessageMap@CDlgAddPoly@@KGPBUAFX_MSGMAP@@XZ 005b7380 f   DlgAddPoly.obj
 0002:0003b3c0       ?GetFields@CDlgAddPoly@@AAEXXZ 005b73c0 f   DlgAddPoly.obj
 0002:0003b580       ?SetFields@CDlgAddPoly@@AAEXXZ 005b7580 f   DlgAddPoly.obj
 0002:0003b740       ?OnCbnSelchangeComboAddPolyUnits@CDlgAddPoly@@AAEXXZ 005b7740 f   DlgAddPoly.obj
 0002:0003b7e0       ?_GetBaseClass@CDlgAddText@@KGPAUCRuntimeClass@@XZ 005b77e0 f   DlgAddText.obj
 0002:0003b830       ?GetThisClass@CDlgAddText@@SGPAUCRuntimeClass@@XZ 005b7830 f   DlgAddText.obj
 0002:0003b870       ?GetRuntimeClass@CDlgAddText@@UBEPAUCRuntimeClass@@XZ 005b7870 f   DlgAddText.obj
 0002:0003b8b0       ??0CDlgAddText@@QAE@PAVCWnd@@@Z 005b78b0 f   DlgAddText.obj
 0002:0003bae0       ??_GCDlgAddText@@UAEPAXI@Z 005b7ae0 f i DlgAddText.obj
 0002:0003bae0       ??_ECDlgAddText@@UAEPAXI@Z 005b7ae0 f i DlgAddText.obj
 0002:0003bb50       ??1CDlgAddText@@UAE@XZ     005b7b50 f   DlgAddText.obj
 0002:0003bd40       ?DoDataExchange@CDlgAddText@@MAEXPAVCDataExchange@@@Z 005b7d40 f   DlgAddText.obj
 0002:0003c110       ?GetMessageMap@CDlgAddText@@MBEPBUAFX_MSGMAP@@XZ 005b8110 f   DlgAddText.obj
 0002:0003c160       ?GetThisMessageMap@CDlgAddText@@KGPBUAFX_MSGMAP@@XZ 005b8160 f   DlgAddText.obj
 0002:0003c1a0       ?Initialize@CDlgAddText@@QAEXHHHPAV?$CStringT@DV?$StrTraitMFC_DLL@DV?$ChTraitsCRT@D@ATL@@@@@ATL@@HHHHHHHH@Z 005b81a0 f   DlgAddText.obj
 0002:0003c3c0       ?OnInitDialog@CDlgAddText@@UAEHXZ 005b83c0 f   DlgAddText.obj
 0002:0003c5d0       ?OnBnClickedSetWidth@CDlgAddText@@QAEXXZ 005b85d0 f   DlgAddText.obj
 0002:0003c630       ?OnBnClickedDefWidth@CDlgAddText@@QAEXXZ 005b8630 f   DlgAddText.obj
 0002:0003c690       ?OnEnChangeEditHeight@CDlgAddText@@QAEXXZ 005b8690 f   DlgAddText.obj
 0002:0003c930       ?OnBnClickedOk@CDlgAddText@@QAEXXZ 005b8930 f   DlgAddText.obj
 0002:0003ca30       ?OnBnClickedSetPosition@CDlgAddText@@QAEXXZ 005b8a30 f   DlgAddText.obj
 0002:0003ca90       ?OnBnClickedDrag@CDlgAddText@@QAEXXZ 005b8a90 f   DlgAddText.obj
 0002:0003caf0       ?OnCbnSelchangeComboAddTextUnits@CDlgAddText@@QAEXXZ 005b8af0 f   DlgAddText.obj
 0002:0003cbb0       ?GetFields@CDlgAddText@@QAEXXZ 005b8bb0 f   DlgAddText.obj
 0002:0003cf50       ?SetFields@CDlgAddText@@QAEXXZ 005b8f50 f   DlgAddText.obj
 0002:0003d340       ??1?$CArray@Vcarea@@V1@@@UAE@XZ 005b9340 f i NetList.obj
 0002:0003d440       ?OnLbnSelchangeListLayer@CDlgAddText@@QAEXXZ 005b9440 f   DlgAddText.obj
 0002:0003d4a0       ?_GetBaseClass@CDlgAddWidth@@KGPAUCRuntimeClass@@XZ 005b94a0 f   DlgAddWidth.obj
 0002:0003d4f0       ?GetThisClass@CDlgAddWidth@@SGPAUCRuntimeClass@@XZ 005b94f0 f   DlgAddWidth.obj
 0002:0003d530       ?GetRuntimeClass@CDlgAddWidth@@UBEPAUCRuntimeClass@@XZ 005b9530 f   DlgAddWidth.obj
 0002:0003d570       ??0CDlgAddWidth@@QAE@PAVCWnd@@@Z 005b9570 f   DlgAddWidth.obj
 0002:0003d5e0       ??_GCDlgAddWidth@@UAEPAXI@Z 005b95e0 f i DlgAddWidth.obj
 0002:0003d5e0       ??_ECDlgAddWidth@@UAEPAXI@Z 005b95e0 f i DlgAddWidth.obj
 0002:0003d650       ??1CDlgAddWidth@@UAE@XZ    005b9650 f   DlgAddWidth.obj
 0002:0003d6b0       ?DoDataExchange@CDlgAddWidth@@MAEXPAVCDataExchange@@@Z 005b96b0 f   DlgAddWidth.obj
 0002:0003da60       ?GetMessageMap@CDlgAddWidth@@MBEPBUAFX_MSGMAP@@XZ 005b9a60 f   DlgAddWidth.obj
 0002:0003dab0       ?GetThisMessageMap@CDlgAddWidth@@KGPBUAFX_MSGMAP@@XZ 005b9ab0 f   DlgAddWidth.obj
 0002:0003daf0       ?_GetBaseClass@DlgAreaLayer@@KGPAUCRuntimeClass@@XZ 005b9af0 f   DlgAreaLayer.obj
 0002:0003db40       ?GetThisClass@DlgAreaLayer@@SGPAUCRuntimeClass@@XZ 005b9b40 f   DlgAreaLayer.obj
 0002:0003db80       ?GetRuntimeClass@DlgAreaLayer@@UBEPAUCRuntimeClass@@XZ 005b9b80 f   DlgAreaLayer.obj
 0002:0003dbc0       ??0DlgAreaLayer@@QAE@PAVCWnd@@@Z 005b9bc0 f   DlgAreaLayer.obj
 0002:0003dc90       ??_EDlgAreaLayer@@UAEPAXI@Z 005b9c90 f i DlgAreaLayer.obj
 0002:0003dc90       ??_GDlgAreaLayer@@UAEPAXI@Z 005b9c90 f i DlgAreaLayer.obj
 0002:0003dd00       ??1DlgAreaLayer@@UAE@XZ    005b9d00 f   DlgAreaLayer.obj
 0002:0003ddc0       ?DoDataExchange@DlgAreaLayer@@MAEXPAVCDataExchange@@@Z 005b9dc0 f   DlgAreaLayer.obj
 0002:0003dee0       ?GetMessageMap@DlgAreaLayer@@MBEPBUAFX_MSGMAP@@XZ 005b9ee0 f   DlgAreaLayer.obj
 0002:0003df30       ?GetThisMessageMap@DlgAreaLayer@@KGPBUAFX_MSGMAP@@XZ 005b9f30 f   DlgAreaLayer.obj
 0002:0003df70       ?Initialize@DlgAreaLayer@@QAEXH@Z 005b9f70 f   DlgAreaLayer.obj
 0002:0003dfc0       ?_GetBaseClass@DlgAssignNet@@KGPAUCRuntimeClass@@XZ 005b9fc0 f   DlgAssignNet.obj
 0002:0003e010       ?GetThisClass@DlgAssignNet@@SGPAUCRuntimeClass@@XZ 005ba010 f   DlgAssignNet.obj
 0002:0003e050       ?GetRuntimeClass@DlgAssignNet@@UBEPAUCRuntimeClass@@XZ 005ba050 f   DlgAssignNet.obj
 0002:0003e090       ??0DlgAssignNet@@QAE@PAVCWnd@@@Z 005ba090 f   DlgAssignNet.obj
 0002:0003e210       ??_EDlgAssignNet@@UAEPAXI@Z 005ba210 f i DlgAssignNet.obj
 0002:0003e210       ??_GDlgAssignNet@@UAEPAXI@Z 005ba210 f i DlgAssignNet.obj
 0002:0003e280       ??1DlgAssignNet@@UAE@XZ    005ba280 f   DlgAssignNet.obj
 0002:0003e380       ?DoDataExchange@DlgAssignNet@@MAEXPAVCDataExchange@@@Z 005ba380 f   DlgAssignNet.obj
 0002:0003ed50       ?TestForHitOnVertex@CNetList@@QAEHPAVcnet@@HHHPAPAV2@PAH2@Z 005bad50 f   NetList.obj
 0002:0003efc0       ?GetMessageMap@DlgAssignNet@@MBEPBUAFX_MSGMAP@@XZ 005bafc0 f   DlgAssignNet.obj
 0002:0003f010       ?GetThisMessageMap@DlgAssignNet@@KGPBUAFX_MSGMAP@@XZ 005bb010 f   DlgAssignNet.obj
 0002:0003f050       ?OnBnClickedButtonNewNet@DlgAssignNet@@QAEXXZ 005bb050 f   DlgAssignNet.obj
 0002:0003f230       ?OnBnClickedCancel@DlgAssignNet@@QAEXXZ 005bb230 f   DlgAssignNet.obj
 0002:0003f2b0       ??HATL@@YA?AV?$CStringT@DV?$StrTraitMFC_DLL@DV?$ChTraitsCRT@D@ATL@@@@@0@PBDABV10@@Z 005bb2b0 f i DlgAssignNet.obj
 0002:0003f460       ??A?$CArray@Vcpin@@ABV1@@@QAEAAVcpin@@H@Z 005bb460 f i DlgAssignNet.obj
 0002:0003f4c0       ?ElementAt@?$CArray@Vcpin@@ABV1@@@QAEAAVcpin@@H@Z 005bb4c0 f i DlgAssignNet.obj
 0002:0003f570       ?_GetBaseClass@CDlgCAD@@KGPAUCRuntimeClass@@XZ 005bb570 f   DlgCAD.obj
 0002:0003f5c0       ?GetThisClass@CDlgCAD@@SGPAUCRuntimeClass@@XZ 005bb5c0 f   DlgCAD.obj
 0002:0003f600       ?GetRuntimeClass@CDlgCAD@@UBEPAUCRuntimeClass@@XZ 005bb600 f   DlgCAD.obj
 0002:0003f640       ??0CDlgCAD@@QAE@PAVCWnd@@@Z 005bb640 f   DlgCAD.obj
 0002:0003fc00       ?RemoveAt@?$CArray@UtagRECT@@ABU1@@@QAEXHH@Z 005bbc00 f i NetList.obj
 0002:0003fd70       ??_ECDlgCAD@@UAEPAXI@Z     005bbd70 f i DlgCAD.obj
 0002:0003fd70       ??_GCDlgCAD@@UAEPAXI@Z     005bbd70 f i DlgCAD.obj
 0002:0003fde0       ??1CDlgCAD@@UAE@XZ         005bbde0 f   DlgCAD.obj
 0002:00040340       ?AssertValid@?$CArray@Vcpin@@ABV1@@@UBEXXZ 005bc340 f i NetList.obj
 0002:00040490       ?DoDataExchange@CDlgCAD@@MAEXPAVCDataExchange@@@Z 005bc490 f   DlgCAD.obj
 0002:00041510       ?GetViaConnectionStatus@CNetList@@QAEHPAVcnet@@HHH@Z 005bd510 f   NetList.obj
 0002:00041810       ?AssertValid@?$CArray@Vcarea@@V1@@@UBEXXZ 005bd810 f i NetList.obj
 0002:00041930       ?GetMessageMap@CDlgCAD@@MBEPBUAFX_MSGMAP@@XZ 005bd930 f   DlgCAD.obj
 0002:00041980       ?GetThisMessageMap@CDlgCAD@@KGPBUAFX_MSGMAP@@XZ 005bd980 f   DlgCAD.obj
 0002:000419c0       ?Initialize@CDlgCAD@@QAEXNPAV?$CStringT@DV?$StrTraitMFC_DLL@DV?$ChTraitsCRT@D@ATL@@@@@ATL@@0000HHHHHHHHHHHHHHHHHHHHHPAV?$CArray@VCPolyLine@@ABV1@@@PAHPAVCPartList@@PAVCNetList@@PAVCTextList@@PAVCDisplayList@@PAVMerge@@PAVCDlgLog@@@Z 005bd9c0 f   DlgCAD.obj
 0002:00041da0       ??1?$CArray@Vcseg@@ABV1@@@UAE@XZ 005bdda0 f i NetList.obj
 0002:00041ea0       ?OnBnClickedGo@CDlgCAD@@QAEXXZ 005bdea0 f   DlgCAD.obj
 0002:00044540       ?InsertSegment@CNetList@@QAEHPAVcnet@@HHHHHHHHHH@Z 005c0540 f   NetList.obj
 0002:00044ab0       ?HighlightNetVertices@CNetList@@QAEXPAVcnet@@HH@Z 005c0ab0 f   NetList.obj
 0002:00044cd0       ??$SerializeElements@PAUgpc_polygon@@@@YGXAAVCArchive@@PAPAUgpc_polygon@@H@Z 005c0cd0 f i NetList.obj
 0002:00044ef0       ?GetFields@CDlgCAD@@QAEXXZ 005c0ef0 f   DlgCAD.obj
 0002:00045cc0       ?SetNetVisibility@CNetList@@QAEXPAVcnet@@H@Z 005c1cc0 f   NetList.obj
 0002:00045ef0       ??1?$CArray@Vcvertex@@ABV1@@@UAE@XZ 005c1ef0 f i NetList.obj
 0002:00046030       ?SetFields@CDlgCAD@@QAEXXZ 005c2030 f   DlgCAD.obj
 0002:00046440       ??0cconnect@@QAE@XZ        005c2440 f i NetList.obj
 0002:00046550       ?OnCbnSelchangeComboCadUnits@CDlgCAD@@QAEXXZ 005c2550 f   DlgCAD.obj
 0002:000465f0       ?OnBnClickedCheckCadPilot@CDlgCAD@@QAEXXZ 005c25f0 f   DlgCAD.obj
 0002:00046680       ?OnBnClickedCancel@CDlgCAD@@QAEXXZ 005c2680 f   DlgCAD.obj
 0002:000466f0       ?OnBnClickedButtonDef@CDlgCAD@@QAEXXZ 005c26f0 f   DlgCAD.obj
 0002:000469c0       ?OnBnClickedButtonFolder@CDlgCAD@@QAEXXZ 005c29c0 f   DlgCAD.obj
 0002:00046c20       ?OnBnClickedThermalPins@CDlgCAD@@QAEXXZ 005c2c20 f   DlgCAD.obj
 0002:00046cc0       ?OnBnClickedThermalVias@CDlgCAD@@QAEXXZ 005c2cc0 f   DlgCAD.obj
 0002:00046d10       ?OnBnClickedRenderAllGerbers@CDlgCAD@@QAEXXZ 005c2d10 f   DlgCAD.obj
 0002:00046dd0       ?OnBnClickedButtonDone@CDlgCAD@@QAEXXZ 005c2dd0 f   DlgCAD.obj
 0002:00046e40       ?SetPinAnnularRing@CPartList@@QAEXH@Z 005c2e40 f i DlgCAD.obj
 0002:00046e90       ?SetViaAnnularRing@CNetList@@QAEXH@Z 005c2e90 f i DlgCAD.obj
 0002:00046ee0       ?_GetBaseClass@CDlgCentroid@@KGPAUCRuntimeClass@@XZ 005c2ee0 f   DlgCentroid.obj
 0002:00046f30       ?GetThisClass@CDlgCentroid@@SGPAUCRuntimeClass@@XZ 005c2f30 f   DlgCentroid.obj
 0002:00046f70       ?GetRuntimeClass@CDlgCentroid@@UBEPAUCRuntimeClass@@XZ 005c2f70 f   DlgCentroid.obj
 0002:00046fb0       ??0CDlgCentroid@@QAE@PAVCWnd@@@Z 005c2fb0 f   DlgCentroid.obj
 0002:000470f0       ??_ECDlgCentroid@@UAEPAXI@Z 005c30f0 f i DlgCentroid.obj
 0002:000470f0       ??_GCDlgCentroid@@UAEPAXI@Z 005c30f0 f i DlgCentroid.obj
 0002:00047160       ??1CDlgCentroid@@UAE@XZ    005c3160 f   DlgCentroid.obj
 0002:00047290       ?DoDataExchange@CDlgCentroid@@MAEXPAVCDataExchange@@@Z 005c3290 f   DlgCentroid.obj
 0002:00047460       ?GetMessageMap@CDlgCentroid@@MBEPBUAFX_MSGMAP@@XZ 005c3460 f   DlgCentroid.obj
 0002:000474b0       ?GetThisMessageMap@CDlgCentroid@@KGPBUAFX_MSGMAP@@XZ 005c34b0 f   DlgCentroid.obj
 0002:000474f0       ?Initialize@CDlgCentroid@@QAEXW4CENTROID_TYPE@@HHHH@Z 005c34f0 f   DlgCentroid.obj
 0002:00047580       ?SetFields@CDlgCentroid@@QAEXXZ 005c3580 f   DlgCentroid.obj
 0002:00047870       ?GetFields@CDlgCentroid@@QAEXXZ 005c3870 f   DlgCentroid.obj
 0002:00047a50       ?OnBnClickedDefault@CDlgCentroid@@QAEXXZ 005c3a50 f   DlgCentroid.obj
 0002:00047ac0       ?OnBnClickedSet@CDlgCentroid@@QAEXXZ 005c3ac0 f   DlgCentroid.obj
 0002:00047b30       ?OnCbnSelChangeCombo1@CDlgCentroid@@QAEXXZ 005c3b30 f   DlgCentroid.obj
 0002:00047bd0       ?_GetBaseClass@CDlgChangeLayer@@KGPAUCRuntimeClass@@XZ 005c3bd0 f   DlgChangeLayer.obj
 0002:00047c20       ?GetThisClass@CDlgChangeLayer@@SGPAUCRuntimeClass@@XZ 005c3c20 f   DlgChangeLayer.obj
 0002:00047c60       ?GetRuntimeClass@CDlgChangeLayer@@UBEPAUCRuntimeClass@@XZ 005c3c60 f   DlgChangeLayer.obj
 0002:00047ca0       ??0CDlgChangeLayer@@QAE@PAVCWnd@@@Z 005c3ca0 f   DlgChangeLayer.obj
 0002:00047db0       ??_GCDlgChangeLayer@@UAEPAXI@Z 005c3db0 f i DlgChangeLayer.obj
 0002:00047db0       ??_ECDlgChangeLayer@@UAEPAXI@Z 005c3db0 f i DlgChangeLayer.obj
 0002:00047e20       ??1CDlgChangeLayer@@UAE@XZ 005c3e20 f   DlgChangeLayer.obj
 0002:00047f20       ?DoDataExchange@CDlgChangeLayer@@MAEXPAVCDataExchange@@@Z 005c3f20 f   DlgChangeLayer.obj
 0002:00048280       ?GetMessageMap@CDlgChangeLayer@@MBEPBUAFX_MSGMAP@@XZ 005c4280 f   DlgChangeLayer.obj
 0002:000482d0       ?GetThisMessageMap@CDlgChangeLayer@@KGPBUAFX_MSGMAP@@XZ 005c42d0 f   DlgChangeLayer.obj
 0002:00048310       ?Initialize@CDlgChangeLayer@@QAEXHHH@Z 005c4310 f   DlgChangeLayer.obj
 0002:00048380       ?_GetBaseClass@CDlgChooseNetName@@KGPAUCRuntimeClass@@XZ 005c4380 f   DlgChooseNetName.obj
 0002:000483d0       ?GetThisClass@CDlgChooseNetName@@SGPAUCRuntimeClass@@XZ 005c43d0 f   DlgChooseNetName.obj
 0002:00048410       ?GetRuntimeClass@CDlgChooseNetName@@UBEPAUCRuntimeClass@@XZ 005c4410 f   DlgChooseNetName.obj
 0002:00048450       ??0CDlgChooseNetName@@QAE@PAVCWnd@@@Z 005c4450 f   DlgChooseNetName.obj
 0002:00048540       ??_GCDlgChooseNetName@@UAEPAXI@Z 005c4540 f i DlgChooseNetName.obj
 0002:00048540       ??_ECDlgChooseNetName@@UAEPAXI@Z 005c4540 f i DlgChooseNetName.obj
 0002:000485b0       ??1CDlgChooseNetName@@UAE@XZ 005c45b0 f   DlgChooseNetName.obj
 0002:00048680       ?DoDataExchange@CDlgChooseNetName@@MAEXPAVCDataExchange@@@Z 005c4680 f   DlgChooseNetName.obj
 0002:00048860       ?Initialize@CDlgChooseNetName@@QAEXPAV?$CArray@V?$CStringT@DV?$StrTraitMFC_DLL@DV?$ChTraitsCRT@D@ATL@@@@@ATL@@ABV12@@@@Z 005c4860 f   DlgChooseNetName.obj
 0002:000488b0       ?GetMessageMap@CDlgChooseNetName@@MBEPBUAFX_MSGMAP@@XZ 005c48b0 f   DlgChooseNetName.obj
 0002:00048900       ?GetThisMessageMap@CDlgChooseNetName@@KGPBUAFX_MSGMAP@@XZ 005c4900 f   DlgChooseNetName.obj
 0002:00048940       ?_GetBaseClass@CDlgCrop@@KGPAUCRuntimeClass@@XZ 005c4940 f   DlgCrop.obj
 0002:00048990       ?GetThisClass@CDlgCrop@@SGPAUCRuntimeClass@@XZ 005c4990 f   DlgCrop.obj
 0002:000489d0       ?GetRuntimeClass@CDlgCrop@@UBEPAUCRuntimeClass@@XZ 005c49d0 f   DlgCrop.obj
 0002:00048a10       ??0CDlgCrop@@QAE@PAVCWnd@@@Z 005c4a10 f   DlgCrop.obj
 0002:00048d90       ??_GCDlgCrop@@UAEPAXI@Z    005c4d90 f i DlgCrop.obj
 0002:00048d90       ??_ECDlgCrop@@UAEPAXI@Z    005c4d90 f i DlgCrop.obj
 0002:00048e00       ??1CDlgCrop@@UAE@XZ        005c4e00 f   DlgCrop.obj
 0002:00049160       ?DoDataExchange@CDlgCrop@@MAEXPAVCDataExchange@@@Z 005c5160 f   DlgCrop.obj
 0002:000496f0       ?AssertValid@?$CArray@Vcvertex@@ABV1@@@UBEXXZ 005c56f0 f i NetList.obj
 0002:00049850       ?GetMessageMap@CDlgCrop@@MBEPBUAFX_MSGMAP@@XZ 005c5850 f   DlgCrop.obj
 0002:000498a0       ?GetThisMessageMap@CDlgCrop@@KGPBUAFX_MSGMAP@@XZ 005c58a0 f   DlgCrop.obj
 0002:000498e0       ?Initialize@CDlgCrop@@QAEXPAV?$CArray@V?$CStringT@DV?$StrTraitMFC_DLL@DV?$ChTraitsCRT@D@ATL@@@@@ATL@@ABV12@@@H@Z 005c58e0 f   DlgCrop.obj
 0002:00049940       ?LoadCropData@CDlgCrop@@QAEXH@Z 005c5940 f   DlgCrop.obj
 0002:0004a120       ??$SerializeElements@PAVdl_element@@@@YGXAAVCArchive@@PAPAVdl_element@@H@Z 005c6120 f i NetList.obj
 0002:0004a310       ?SaveCropData@CDlgCrop@@QAEXH@Z 005c6310 f   DlgCrop.obj
 0002:0004b440       ?AddHighlightLines@CNetList@@QAEXHHH@Z 005c7440 f   NetList.obj
 0002:0004b880       ?OnChange@CDlgCrop@@QAEXXZ 005c7880 f   DlgCrop.obj
 0002:0004b9b0       ?OnBnClickedDelete@CDlgCrop@@QAEXXZ 005c79b0 f   DlgCrop.obj
 0002:0004bae0       ?OnBnClickedSave@CDlgCrop@@QAEXXZ 005c7ae0 f   DlgCrop.obj
 0002:0004bce0       ?OnBnClickedThrml@CDlgCrop@@QAEXXZ 005c7ce0 f   DlgCrop.obj
 0002:0004bdb0       ?OnBnClickedCancel@CDlgCrop@@QAEXXZ 005c7db0 f   DlgCrop.obj
 0002:0004be10       ?SetAt@?$CArray@V?$CStringT@DV?$StrTraitMFC_DLL@DV?$ChTraitsCRT@D@ATL@@@@@ATL@@ABV12@@@QAEXHABV?$CStringT@DV?$StrTraitMFC_DLL@DV?$ChTraitsCRT@D@ATL@@@@@ATL@@@Z 005c7e10 f i DlgCrop.obj
 0002:0004bed0       ?InsertAt@?$CArray@V?$CStringT@DV?$StrTraitMFC_DLL@DV?$ChTraitsCRT@D@ATL@@@@@ATL@@ABV12@@@QAEXHABV?$CStringT@DV?$StrTraitMFC_DLL@DV?$ChTraitsCRT@D@ATL@@@@@ATL@@H@Z 005c7ed0 f i DlgCrop.obj
 0002:0004c1a0       ?RemoveAt@?$CArray@V?$CStringT@DV?$StrTraitMFC_DLL@DV?$ChTraitsCRT@D@ATL@@@@@ATL@@ABV12@@@QAEXHH@Z 005c81a0 f i DlgCrop.obj
 0002:0004c370       ?_GetBaseClass@DlgDRC@@KGPAUCRuntimeClass@@XZ 005c8370 f   DlgDRC.obj
 0002:0004c3c0       ?GetThisClass@DlgDRC@@SGPAUCRuntimeClass@@XZ 005c83c0 f   DlgDRC.obj
 0002:0004c400       ?GetRuntimeClass@DlgDRC@@UBEPAUCRuntimeClass@@XZ 005c8400 f   DlgDRC.obj
 0002:0004c440       ??0DlgDRC@@QAE@PAVCWnd@@@Z 005c8440 f   DlgDRC.obj
 0002:0004c640       ??_GDlgDRC@@UAEPAXI@Z      005c8640 f i DlgDRC.obj
 0002:0004c640       ??_EDlgDRC@@UAEPAXI@Z      005c8640 f i DlgDRC.obj
 0002:0004c6b0       ??1DlgDRC@@UAE@XZ          005c86b0 f   DlgDRC.obj
 0002:0004c890       ?DoDataExchange@DlgDRC@@MAEXPAVCDataExchange@@@Z 005c8890 f   DlgDRC.obj
 0002:0004cae0       ?GetMessageMap@DlgDRC@@MBEPBUAFX_MSGMAP@@XZ 005c8ae0 f   DlgDRC.obj
 0002:0004cb30       ?GetThisMessageMap@DlgDRC@@KGPBUAFX_MSGMAP@@XZ 005c8b30 f   DlgDRC.obj
 0002:0004cb70       ?Initialize@DlgDRC@@QAEXHPAUDesignRules@@PAVCPartList@@PAVCNetList@@PAVCTextList@@PAVDRErrorList@@HPAV?$CArray@VCPolyLine@@ABV1@@@HHPAVCDlgLog@@V?$CStringT@DV?$StrTraitMFC_DLL@DV?$ChTraitsCRT@D@ATL@@@@@ATL@@@Z 005c8b70 f   DlgDRC.obj
 0002:0004cd10       ?GetFields@DlgDRC@@QAEXXZ  005c8d10 f   DlgDRC.obj
 0002:0004d470       ??$SerializeElements@Vcseg@@@@YGXAAVCArchive@@PAVcseg@@H@Z 005c9470 f i NetList.obj
 0002:0004d650       ?SetFields@DlgDRC@@QAEXXZ  005c9650 f   DlgDRC.obj
 0002:0004dcf0       ??$SerializeElements@Vcvertex@@@@YGXAAVCArchive@@PAVcvertex@@H@Z 005c9cf0 f i NetList.obj
 0002:0004de90       ?OnCbnChangeUnits@DlgDRC@@QAEXXZ 005c9e90 f   DlgDRC.obj
 0002:0004dff0       ?CheckDesign@DlgDRC@@QAEXXZ 005c9ff0 f   DlgDRC.obj
 0002:0004e500       ?OnBnClickedCancel@DlgDRC@@QAEXXZ 005ca500 f   DlgDRC.obj
 0002:0004e570       ?OnBnClickedOk@DlgDRC@@QAEXXZ 005ca570 f   DlgDRC.obj
 0002:0004e600       ?OnBnClickedCheck@DlgDRC@@QAEXXZ 005ca600 f   DlgDRC.obj
 0002:0004e650       ?_GetBaseClass@CDlgDupFootprintName@@KGPAUCRuntimeClass@@XZ 005ca650 f   DlgDupFootprintName.obj
 0002:0004e6a0       ?GetThisClass@CDlgDupFootprintName@@SGPAUCRuntimeClass@@XZ 005ca6a0 f   DlgDupFootprintName.obj
 0002:0004e6e0       ?GetRuntimeClass@CDlgDupFootprintName@@UBEPAUCRuntimeClass@@XZ 005ca6e0 f   DlgDupFootprintName.obj
 0002:0004e720       ??0CDlgDupFootprintName@@QAE@PAVCWnd@@@Z 005ca720 f   DlgDupFootprintName.obj
 0002:0004e850       ??_GCDlgDupFootprintName@@UAEPAXI@Z 005ca850 f i DlgDupFootprintName.obj
 0002:0004e850       ??_ECDlgDupFootprintName@@UAEPAXI@Z 005ca850 f i DlgDupFootprintName.obj
 0002:0004e8c0       ??1CDlgDupFootprintName@@UAE@XZ 005ca8c0 f   DlgDupFootprintName.obj
 0002:0004e9e0       ?DoDataExchange@CDlgDupFootprintName@@MAEXPAVCDataExchange@@@Z 005ca9e0 f   DlgDupFootprintName.obj
 0002:0004ec70       ?GetMessageMap@CDlgDupFootprintName@@MBEPBUAFX_MSGMAP@@XZ 005cac70 f   DlgDupFootprintName.obj
 0002:0004ecc0       ?GetThisMessageMap@CDlgDupFootprintName@@KGPBUAFX_MSGMAP@@XZ 005cacc0 f   DlgDupFootprintName.obj
 0002:0004ed00       ?Initialize@CDlgDupFootprintName@@QAEXPAV?$CStringT@DV?$StrTraitMFC_DLL@DV?$ChTraitsCRT@D@ATL@@@@@ATL@@PAVCMapStringToPtr@@@Z 005cad00 f   DlgDupFootprintName.obj
 0002:0004ed60       ?OnBnClickedRadioReplaceAll@CDlgDupFootprintName@@QAEXXZ 005cad60 f   DlgDupFootprintName.obj
 0002:0004edc0       ?OnBnClickedRadioReplaceThis@CDlgDupFootprintName@@QAEXXZ 005cadc0 f   DlgDupFootprintName.obj
 0002:0004ee20       ?OnBnClickedOk@CDlgDupFootprintName@@QAEXXZ 005cae20 f   DlgDupFootprintName.obj
 0002:0004eea0       ?_GetBaseClass@DlgEditBoardCorner@@KGPAUCRuntimeClass@@XZ 005caea0 f   DlgEditBoardCorner.obj
 0002:0004eef0       ?GetThisClass@DlgEditBoardCorner@@SGPAUCRuntimeClass@@XZ 005caef0 f   DlgEditBoardCorner.obj
 0002:0004ef30       ?GetRuntimeClass@DlgEditBoardCorner@@UBEPAUCRuntimeClass@@XZ 005caf30 f   DlgEditBoardCorner.obj
 0002:0004ef70       ??0DlgEditBoardCorner@@QAE@PAVCWnd@@@Z 005caf70 f   DlgEditBoardCorner.obj
 0002:0004f0b0       ??_EDlgEditBoardCorner@@UAEPAXI@Z 005cb0b0 f i DlgEditBoardCorner.obj
 0002:0004f0b0       ??_GDlgEditBoardCorner@@UAEPAXI@Z 005cb0b0 f i DlgEditBoardCorner.obj
 0002:0004f120       ??1DlgEditBoardCorner@@UAE@XZ 005cb120 f   DlgEditBoardCorner.obj
 0002:0004f200       ?DoDataExchange@DlgEditBoardCorner@@MAEXPAVCDataExchange@@@Z 005cb200 f   DlgEditBoardCorner.obj
 0002:0004f380       ?Init@DlgEditBoardCorner@@QAEXPAV?$CStringT@DV?$StrTraitMFC_DLL@DV?$ChTraitsCRT@D@ATL@@@@@ATL@@HHH@Z 005cb380 f   DlgEditBoardCorner.obj
 0002:0004f400       ?GetMessageMap@DlgEditBoardCorner@@MBEPBUAFX_MSGMAP@@XZ 005cb400 f   DlgEditBoardCorner.obj
 0002:0004f450       ?GetThisMessageMap@DlgEditBoardCorner@@KGPBUAFX_MSGMAP@@XZ 005cb450 f   DlgEditBoardCorner.obj
 0002:0004f490       ?OnCbnSelchangeComboCornerUnits@DlgEditBoardCorner@@QAEXXZ 005cb490 f   DlgEditBoardCorner.obj
 0002:0004f530       ?GetFields@DlgEditBoardCorner@@AAEXXZ 005cb530 f   DlgEditBoardCorner.obj
 0002:0004f750       ?SetFields@DlgEditBoardCorner@@AAEXXZ 005cb750 f   DlgEditBoardCorner.obj
 0002:0004f9b0       ?_GetBaseClass@CDlgEditNet@@KGPAUCRuntimeClass@@XZ 005cb9b0 f   DlgEditNet.obj
 0002:0004fa00       ?GetThisClass@CDlgEditNet@@SGPAUCRuntimeClass@@XZ 005cba00 f   DlgEditNet.obj
 0002:0004fa40       ?GetRuntimeClass@CDlgEditNet@@UBEPAUCRuntimeClass@@XZ 005cba40 f   DlgEditNet.obj
 0002:0004fa80       ??0CDlgEditNet@@QAE@PAVCWnd@@@Z 005cba80 f   DlgEditNet.obj
 0002:0004fcb0       ??_ECDlgEditNet@@UAEPAXI@Z 005cbcb0 f i DlgEditNet.obj
 0002:0004fcb0       ??_GCDlgEditNet@@UAEPAXI@Z 005cbcb0 f i DlgEditNet.obj
 0002:0004fd20       ??1CDlgEditNet@@UAE@XZ     005cbd20 f   DlgEditNet.obj
 0002:0004ff10       ?DoDataExchange@CDlgEditNet@@MAEXPAVCDataExchange@@@Z 005cbf10 f   DlgEditNet.obj
 0002:00050be0       ?InsertAt@?$CArray@Vcarea@@V1@@@QAEXHVcarea@@H@Z 005ccbe0 f i NetList.obj
 0002:00050f10       ?Initialize@CDlgEditNet@@QAEXPAV?$CArray@Unet_info@@ABU1@@@HPAVCPartList@@HHHHPAV?$CArray@HABH@@22PAV?$CStringT@DV?$StrTraitMFC_DLL@DV?$ChTraitsCRT@D@ATL@@@@@ATL@@@Z 005ccf10 f   DlgEditNet.obj
 0002:00051130       ?GetMessageMap@CDlgEditNet@@MBEPBUAFX_MSGMAP@@XZ 005cd130 f   DlgEditNet.obj
 0002:00051180       ?GetThisMessageMap@CDlgEditNet@@KGPBUAFX_MSGMAP@@XZ 005cd180 f   DlgEditNet.obj
 0002:000511c0       ?OnBnClickedRadioDefWidth@CDlgEditNet@@IAEXXZ 005cd1c0 f   DlgEditNet.obj
 0002:00051320       ?OnBnClickedRadioSetWidth@CDlgEditNet@@IAEXXZ 005cd320 f   DlgEditNet.obj
 0002:00051390       ?OnBnClickedButtonDelete@CDlgEditNet@@IAEXXZ 005cd390 f   DlgEditNet.obj
 0002:000517d0       ?OnBnClickedButtonAdd@CDlgEditNet@@IAEXXZ 005cd7d0 f   DlgEditNet.obj
 0002:00052240       ??$SerializeElements@Vcconnect@@@@YGXAAVCArchive@@PAVcconnect@@H@Z 005ce240 f i NetList.obj
 0002:000524e0       ?OnInitDialog@CDlgEditNet@@MAEHXZ 005ce4e0 f   DlgEditNet.obj
 0002:00052a80       ?OnCbnSelchangeComboWidth@CDlgEditNet@@IAEXXZ 005cea80 f   DlgEditNet.obj
 0002:00052be0       ?OnCbnEditchangeComboWidth@CDlgEditNet@@IAEXXZ 005cebe0 f   DlgEditNet.obj
 0002:00052d20       ?ChangeTraceWidth@CDlgEditNet@@IAEXV?$CStringT@DV?$StrTraitMFC_DLL@DV?$ChTraitsCRT@D@ATL@@@@@ATL@@@Z 005ced20 f   DlgEditNet.obj
 0002:00053320       ?SetFields@CDlgEditNet@@QAEXXZ 005cf320 f   DlgEditNet.obj
 0002:00053360       ?GetFields@CDlgEditNet@@QAEXXZ 005cf360 f   DlgEditNet.obj
 0002:000533a0       ?OnEnUpdateEditAddPin@CDlgEditNet@@QAEXXZ 005cf3a0 f   DlgEditNet.obj
 0002:00053420       ?OnBnClickedOk@CDlgEditNet@@QAEXXZ 005cf420 f   DlgEditNet.obj
 0002:00053590       ?GetSize@?$CArray@HABH@@QBEHXZ 005cf590 f i DlgEditNet.obj
 0002:000535d0       ?GetSize@?$CArray@Unet_info@@ABU1@@@QBEHXZ 005cf5d0 f i DlgEditNet.obj
 0002:00053610       ?SetSize@?$CArray@Unet_info@@ABU1@@@QAEXHH@Z 005cf610 f i DlgEditNet.obj
 0002:00053d10       ??A?$CArray@Unet_info@@ABU1@@@QAEAAUnet_info@@H@Z 005cfd10 f i DlgEditNet.obj
 0002:00053d70       ??0?$CArray@HH@@QAE@XZ     005cfd70 f i DlgEditNet.obj
 0002:00053e00       ?SetSize@?$CArray@HH@@QAEXHH@Z 005cfe00 f i DlgEditNet.obj
 0002:00054390       ?GetData@?$CArray@HH@@QAEPAHXZ 005d0390 f i DlgEditNet.obj
 0002:000543d0       ??A?$CArray@HH@@QAEAAHH@Z  005d03d0 f i DlgEditNet.obj
 0002:00054430       ??1?$CArray@HH@@UAE@XZ     005d0430 f i DlgEditNet.obj
 0002:00054540       ?Serialize@?$CArray@HH@@UAEXAAVCArchive@@@Z 005d0540 f i DlgEditNet.obj
 0002:00054610       ?Dump@?$CArray@HH@@UBEXAAVCDumpContext@@@Z 005d0610 f i DlgEditNet.obj
 0002:000546f0       ?AssertValid@?$CArray@HH@@UBEXXZ 005d06f0 f i DlgEditNet.obj
 0002:00054850       ??_Gnet_info@@QAEPAXI@Z    005d0850 f i DlgEditNet.obj
 0002:000548c0       ??0net_info@@QAE@XZ        005d08c0 f i DlgEditNet.obj
 0002:00054990       ??_G?$CArray@HH@@UAEPAXI@Z 005d0990 f i DlgEditNet.obj
 0002:00054990       ??_E?$CArray@HH@@UAEPAXI@Z 005d0990 f i DlgEditNet.obj
 0002:00054a00       ??1net_info@@QAE@XZ        005d0a00 f i DlgEditNet.obj
 0002:00054ad0       ?ElementAt@?$CArray@Unet_info@@ABU1@@@QAEAAUnet_info@@H@Z 005d0ad0 f i DlgEditNet.obj
 0002:00054b80       ?ElementAt@?$CArray@HH@@QAEAAHH@Z 005d0b80 f i DlgEditNet.obj
 0002:00054c30       ??A?$CArray@HABH@@QAEAAHH@Z 005d0c30 f i DlgEditNet.obj
 0002:00054c90       ?ElementAt@?$CArray@HABH@@QAEAAHH@Z 005d0c90 f i DlgEditNet.obj
 0002:00054d40       ??$SerializeElements@H@@YGXAAVCArchive@@PAHH@Z 005d0d40 f i DlgEditNet.obj
 0002:00054f30       ??$DumpElements@H@@YGXAAVCDumpContext@@PBHH@Z 005d0f30 f i DlgEditNet.obj
 0002:00055020       ?_GetBaseClass@CDlgEnterStr@@KGPAUCRuntimeClass@@XZ 005d1020 f   DlgEnterStr.obj
 0002:00055070       ?GetThisClass@CDlgEnterStr@@SGPAUCRuntimeClass@@XZ 005d1070 f   DlgEnterStr.obj
 0002:000550b0       ?GetRuntimeClass@CDlgEnterStr@@UBEPAUCRuntimeClass@@XZ 005d10b0 f   DlgEnterStr.obj
 0002:000550f0       ??0CDlgEnterStr@@QAE@PAVCWnd@@@Z 005d10f0 f   DlgEnterStr.obj
 0002:00055250       ??_ECDlgEnterStr@@UAEPAXI@Z 005d1250 f i DlgEnterStr.obj
 0002:00055250       ??_GCDlgEnterStr@@UAEPAXI@Z 005d1250 f i DlgEnterStr.obj
 0002:000552c0       ??1CDlgEnterStr@@UAE@XZ    005d12c0 f   DlgEnterStr.obj
 0002:000553c0       ?Initialize@CDlgEnterStr@@QAEXPAV?$CStringT@DV?$StrTraitMFC_DLL@DV?$ChTraitsCRT@D@ATL@@@@@ATL@@0@Z 005d13c0 f   DlgEnterStr.obj
 0002:00055450       ?DoDataExchange@CDlgEnterStr@@MAEXPAVCDataExchange@@@Z 005d1450 f   DlgEnterStr.obj
 0002:00055710       ?GetMessageMap@CDlgEnterStr@@MBEPBUAFX_MSGMAP@@XZ 005d1710 f   DlgEnterStr.obj
 0002:00055760       ?GetThisMessageMap@CDlgEnterStr@@KGPBUAFX_MSGMAP@@XZ 005d1760 f   DlgEnterStr.obj
 0002:000557a0       ?_GetBaseClass@CDlgExportDsn@@KGPAUCRuntimeClass@@XZ 005d17a0 f   DlgExportDsn.obj
 0002:000557f0       ?GetThisClass@CDlgExportDsn@@SGPAUCRuntimeClass@@XZ 005d17f0 f   DlgExportDsn.obj
 0002:00055830       ?GetRuntimeClass@CDlgExportDsn@@UBEPAUCRuntimeClass@@XZ 005d1830 f   DlgExportDsn.obj
 0002:00055870       ??0CDlgExportDsn@@QAE@PAVCWnd@@@Z 005d1870 f   DlgExportDsn.obj
 0002:00055a20       ??_GCDlgExportDsn@@UAEPAXI@Z 005d1a20 f i DlgExportDsn.obj
 0002:00055a20       ??_ECDlgExportDsn@@UAEPAXI@Z 005d1a20 f i DlgExportDsn.obj
 0002:00055a90       ??1CDlgExportDsn@@UAE@XZ   005d1a90 f   DlgExportDsn.obj
 0002:00055c10       ?DoDataExchange@CDlgExportDsn@@MAEXPAVCDataExchange@@@Z 005d1c10 f   DlgExportDsn.obj
 0002:000561c0       ?GetMessageMap@CDlgExportDsn@@MBEPBUAFX_MSGMAP@@XZ 005d21c0 f   DlgExportDsn.obj
 0002:00056210       ?GetThisMessageMap@CDlgExportDsn@@KGPBUAFX_MSGMAP@@XZ 005d2210 f   DlgExportDsn.obj
 0002:00056250       ?Initialize@CDlgExportDsn@@QAEXPAV?$CStringT@DV?$StrTraitMFC_DLL@DV?$ChTraitsCRT@D@ATL@@@@@ATL@@HHHH@Z 005d2250 f   DlgExportDsn.obj
 0002:00056300       ?OnBnClickedOk@CDlgExportDsn@@QAEXXZ 005d2300 f   DlgExportDsn.obj
 0002:00056370       ?OnBnClickedCheckFromTo@CDlgExportDsn@@QAEXXZ 005d2370 f   DlgExportDsn.obj
 0002:00056460       ?OnBnClickedRadioAll@CDlgExportDsn@@QAEXXZ 005d2460 f   DlgExportDsn.obj
 0002:000564a0       ?OnBnClickedRadioLocked@CDlgExportDsn@@QAEXXZ 005d24a0 f   DlgExportDsn.obj
 0002:000564e0       ?OnBnClickedRadioNetLocked@CDlgExportDsn@@QAEXXZ 005d24e0 f   DlgExportDsn.obj
 0002:00056520       ?_GetBaseClass@CDlgFindPart@@KGPAUCRuntimeClass@@XZ 005d2520 f   DlgFindPart.obj
 0002:00056570       ?GetThisClass@CDlgFindPart@@SGPAUCRuntimeClass@@XZ 005d2570 f   DlgFindPart.obj
 0002:000565b0       ?GetRuntimeClass@CDlgFindPart@@UBEPAUCRuntimeClass@@XZ 005d25b0 f   DlgFindPart.obj
 0002:000565f0       ??0CDlgFindPart@@QAE@PAVCWnd@@@Z 005d25f0 f   DlgFindPart.obj
 0002:000566e0       ??_GCDlgFindPart@@UAEPAXI@Z 005d26e0 f i DlgFindPart.obj
 0002:000566e0       ??_ECDlgFindPart@@UAEPAXI@Z 005d26e0 f i DlgFindPart.obj
 0002:00056750       ??1CDlgFindPart@@UAE@XZ    005d2750 f   DlgFindPart.obj
 0002:00056820       ?DoDataExchange@CDlgFindPart@@MAEXPAVCDataExchange@@@Z 005d2820 f   DlgFindPart.obj
 0002:00056930       ?GetMessageMap@CDlgFindPart@@MBEPBUAFX_MSGMAP@@XZ 005d2930 f   DlgFindPart.obj
 0002:00056980       ?GetThisMessageMap@CDlgFindPart@@KGPBUAFX_MSGMAP@@XZ 005d2980 f   DlgFindPart.obj
 0002:000569c0       ?Initialize@CDlgFindPart@@QAEXPAVCPartList@@@Z 005d29c0 f   DlgFindPart.obj
 0002:00056a10       ?_GetBaseClass@CDlgFpRefText@@KGPAUCRuntimeClass@@XZ 005d2a10 f   DlgFpRefText.obj
 0002:00056a60       ?GetThisClass@CDlgFpRefText@@SGPAUCRuntimeClass@@XZ 005d2a60 f   DlgFpRefText.obj
 0002:00056aa0       ?GetRuntimeClass@CDlgFpRefText@@UBEPAUCRuntimeClass@@XZ 005d2aa0 f   DlgFpRefText.obj
 0002:00056ae0       ??0CDlgFpRefText@@QAE@PAVCWnd@@@Z 005d2ae0 f   DlgFpRefText.obj
 0002:00056c20       ??_ECDlgFpRefText@@UAEPAXI@Z 005d2c20 f i DlgFpRefText.obj
 0002:00056c20       ??_GCDlgFpRefText@@UAEPAXI@Z 005d2c20 f i DlgFpRefText.obj
 0002:00056c90       ??1CDlgFpRefText@@UAE@XZ   005d2c90 f   DlgFpRefText.obj
 0002:00056dc0       ?Initialize@CDlgFpRefText@@QAEXHHH@Z 005d2dc0 f   DlgFpRefText.obj
 0002:00056e30       ?DoDataExchange@CDlgFpRefText@@MAEXPAVCDataExchange@@@Z 005d2e30 f   DlgFpRefText.obj
 0002:00057030       ?GetMessageMap@CDlgFpRefText@@MBEPBUAFX_MSGMAP@@XZ 005d3030 f   DlgFpRefText.obj
 0002:00057080       ?GetThisMessageMap@CDlgFpRefText@@KGPBUAFX_MSGMAP@@XZ 005d3080 f   DlgFpRefText.obj
 0002:000570c0       ?OnBnClickedRadioSet@CDlgFpRefText@@AAEXXZ 005d30c0 f   DlgFpRefText.obj
 0002:00057120       ?OnBnClickedRadioDef@CDlgFpRefText@@AAEXXZ 005d3120 f   DlgFpRefText.obj
 0002:00057180       ?OnCbnSelchangeComboRefTextUnits@CDlgFpRefText@@AAEXXZ 005d3180 f   DlgFpRefText.obj
 0002:00057220       ?OnEnChangeEditCharHeight@CDlgFpRefText@@AAEXXZ 005d3220 f   DlgFpRefText.obj
 0002:000574d0       ?GetFields@CDlgFpRefText@@AAEXXZ 005d34d0 f   DlgFpRefText.obj
 0002:00057770       ?SetFields@CDlgFpRefText@@AAEXXZ 005d3770 f   DlgFpRefText.obj
 0002:00057ae0       ?_GetBaseClass@CDlgFpText@@KGPAUCRuntimeClass@@XZ 005d3ae0 f   DlgFpText.obj
 0002:00057b30       ?GetThisClass@CDlgFpText@@SGPAUCRuntimeClass@@XZ 005d3b30 f   DlgFpText.obj
 0002:00057b70       ?GetRuntimeClass@CDlgFpText@@UBEPAUCRuntimeClass@@XZ 005d3b70 f   DlgFpText.obj
 0002:00057bb0       ??0CDlgFpText@@QAE@PAVCWnd@@@Z 005d3bb0 f   DlgFpText.obj
 0002:00057da0       ??_ECDlgFpText@@UAEPAXI@Z  005d3da0 f i DlgFpText.obj
 0002:00057da0       ??_GCDlgFpText@@UAEPAXI@Z  005d3da0 f i DlgFpText.obj
 0002:00057e10       ??1CDlgFpText@@UAE@XZ      005d3e10 f   DlgFpText.obj
 0002:00057fd0       ?DoDataExchange@CDlgFpText@@MAEXPAVCDataExchange@@@Z 005d3fd0 f   DlgFpText.obj
 0002:000583b0       ?GetMessageMap@CDlgFpText@@MBEPBUAFX_MSGMAP@@XZ 005d43b0 f   DlgFpText.obj
 0002:00058400       ?GetThisMessageMap@CDlgFpText@@KGPBUAFX_MSGMAP@@XZ 005d4400 f   DlgFpText.obj
 0002:00058440       ?Initialize@CDlgFpText@@QAEXHHPAV?$CStringT@DV?$StrTraitMFC_DLL@DV?$ChTraitsCRT@D@ATL@@@@@ATL@@HHHHHH@Z 005d4440 f   DlgFpText.obj
 0002:000585a0       ?OnInitDialog@CDlgFpText@@UAEHXZ 005d45a0 f   DlgFpText.obj
 0002:00058a70       ?OnBnClickedSetWidth@CDlgFpText@@QAEXXZ 005d4a70 f   DlgFpText.obj
 0002:00058af0       ?OnBnClickedDefWidth@CDlgFpText@@QAEXXZ 005d4af0 f   DlgFpText.obj
 0002:00058b80       ?OnEnChangeEditHeight@CDlgFpText@@QAEXXZ 005d4b80 f   DlgFpText.obj
 0002:00058e20       ?OnBnClickedOk@CDlgFpText@@QAEXXZ 005d4e20 f   DlgFpText.obj
 0002:00058e90       ?OnBnClickedSetPosition@CDlgFpText@@QAEXXZ 005d4e90 f   DlgFpText.obj
 0002:00058f30       ?OnBnClickedDrag@CDlgFpText@@QAEXXZ 005d4f30 f   DlgFpText.obj
 0002:00058fd0       ?OnCbnSelchangeComboAddTextUnits@CDlgFpText@@QAEXXZ 005d4fd0 f   DlgFpText.obj
 0002:00059090       ?GetFields@CDlgFpText@@QAEXXZ 005d5090 f   DlgFpText.obj
 0002:00059310       ?SetFields@CDlgFpText@@QAEXXZ 005d5310 f   DlgFpText.obj
 0002:00059560       ?_GetBaseClass@CDlgGlue@@KGPAUCRuntimeClass@@XZ 005d5560 f   DlgGlue.obj
 0002:000595b0       ?GetThisClass@CDlgGlue@@SGPAUCRuntimeClass@@XZ 005d55b0 f   DlgGlue.obj
 0002:000595f0       ?GetRuntimeClass@CDlgGlue@@UBEPAUCRuntimeClass@@XZ 005d55f0 f   DlgGlue.obj
 0002:00059630       ??0CDlgGlue@@QAE@PAVCWnd@@@Z 005d5630 f   DlgGlue.obj
 0002:000597b0       ??_ECDlgGlue@@UAEPAXI@Z    005d57b0 f i DlgGlue.obj
 0002:000597b0       ??_GCDlgGlue@@UAEPAXI@Z    005d57b0 f i DlgGlue.obj
 0002:00059820       ??1CDlgGlue@@UAE@XZ        005d5820 f   DlgGlue.obj
 0002:00059990       ?DoDataExchange@CDlgGlue@@MAEXPAVCDataExchange@@@Z 005d5990 f   DlgGlue.obj
 0002:00059b80       ?GetMessageMap@CDlgGlue@@MBEPBUAFX_MSGMAP@@XZ 005d5b80 f   DlgGlue.obj
 0002:00059bd0       ?GetThisMessageMap@CDlgGlue@@KGPBUAFX_MSGMAP@@XZ 005d5bd0 f   DlgGlue.obj
 0002:00059c10       ?Initialize@CDlgGlue@@QAEXW4GLUE_POS_TYPE@@HHHH@Z 005d5c10 f   DlgGlue.obj
 0002:00059cc0       ?SetFields@CDlgGlue@@QAEXXZ 005d5cc0 f   DlgGlue.obj
 0002:00059fe0       ?GetFields@CDlgGlue@@QAEXXZ 005d5fe0 f   DlgGlue.obj
 0002:0005a260       ?OnBnClickedDefault@CDlgGlue@@QAEXXZ 005d6260 f   DlgGlue.obj
 0002:0005a2c0       ?OnBnClickedSet@CDlgGlue@@QAEXXZ 005d62c0 f   DlgGlue.obj
 0002:0005a320       ?OnCbnSelChangeCombo1@CDlgGlue@@QAEXXZ 005d6320 f   DlgGlue.obj
 0002:0005a3c0       ?OnBnClickedDrag@CDlgGlue@@QAEXXZ 005d63c0 f   DlgGlue.obj
 0002:0005a420       ?OnBnClickedDefaultSize@CDlgGlue@@QAEXXZ 005d6420 f   DlgGlue.obj
 0002:0005a480       ?OnBnClickedRadioSetSize@CDlgGlue@@QAEXXZ 005d6480 f   DlgGlue.obj
 0002:0005a4e0       ?ListCompare@@YGHJJJ@Z     005d64e0 f   DlgGroupPaste.obj
 0002:0005a860       ?_GetBaseClass@CDlgGroupPaste@@KGPAUCRuntimeClass@@XZ 005d6860 f   DlgGroupPaste.obj
 0002:0005a8b0       ?GetThisClass@CDlgGroupPaste@@SGPAUCRuntimeClass@@XZ 005d68b0 f   DlgGroupPaste.obj
 0002:0005a8f0       ?GetRuntimeClass@CDlgGroupPaste@@UBEPAUCRuntimeClass@@XZ 005d68f0 f   DlgGroupPaste.obj
 0002:0005a930       ??0CDlgGroupPaste@@QAE@PAVCWnd@@@Z 005d6930 f   DlgGroupPaste.obj
 0002:0005ab90       ??_GCDlgGroupPaste@@UAEPAXI@Z 005d6b90 f i DlgGroupPaste.obj
 0002:0005ab90       ??_ECDlgGroupPaste@@UAEPAXI@Z 005d6b90 f i DlgGroupPaste.obj
 0002:0005ac00       ??1CDlgGroupPaste@@UAE@XZ  005d6c00 f   DlgGroupPaste.obj
 0002:0005ae50       ?DoDataExchange@CDlgGroupPaste@@MAEXPAVCDataExchange@@@Z 005d6e50 f   DlgGroupPaste.obj
 0002:0005b870       ??$SerializeElements@Vcpin@@@@YGXAAVCArchive@@PAVcpin@@H@Z 005d7870 f i NetList.obj
 0002:0005baf0       ?GetMessageMap@CDlgGroupPaste@@MBEPBUAFX_MSGMAP@@XZ 005d7af0 f   DlgGroupPaste.obj
 0002:0005bb40       ?GetThisMessageMap@CDlgGroupPaste@@KGPBUAFX_MSGMAP@@XZ 005d7b40 f   DlgGroupPaste.obj
 0002:0005bb80       ?Initialize@CDlgGroupPaste@@QAEXPAVCNetList@@@Z 005d7b80 f   DlgGroupPaste.obj
 0002:0005bc50       ?SetFields@CDlgGroupPaste@@QAEXXZ 005d7c50 f   DlgGroupPaste.obj
 0002:0005c020       ?OnBnClickedRadioUseGroupRef@CDlgGroupPaste@@QAEXXZ 005d8020 f   DlgGroupPaste.obj
 0002:0005c070       ?OnBnClickedRadioUseNextRef@CDlgGroupPaste@@QAEXXZ 005d8070 f   DlgGroupPaste.obj
 0002:0005c0c0       ?OnBnClickedRadioAddRefOffset@CDlgGroupPaste@@QAEXXZ 005d80c0 f   DlgGroupPaste.obj
 0002:0005c110       ?OnBnClickedRadioUseGroupNets@CDlgGroupPaste@@QAEXXZ 005d8110 f   DlgGroupPaste.obj
 0002:0005c160       ?OnBnClickedRadioUseSelectedNets@CDlgGroupPaste@@QAEXXZ 005d8160 f   DlgGroupPaste.obj
 0002:0005c1b0       ?OnBnClickedRadioUseSuffix@CDlgGroupPaste@@QAEXXZ 005d81b0 f   DlgGroupPaste.obj
 0002:0005c200       ?OnBnClickedRadioMakeNewNames@CDlgGroupPaste@@QAEXXZ 005d8200 f   DlgGroupPaste.obj
 0002:0005c250       ?OnBnClickedRadioDrag@CDlgGroupPaste@@QAEXXZ 005d8250 f   DlgGroupPaste.obj
 0002:0005c2a0       ?OnBnClickedRadioOffset@CDlgGroupPaste@@QAEXXZ 005d82a0 f   DlgGroupPaste.obj
 0002:0005c2f0       ?OnCbnSelchangeComboGroupUnits@CDlgGroupPaste@@QAEXXZ 005d82f0 f   DlgGroupPaste.obj
 0002:0005c330       ?OnBnClickedRadioRetainAll@CDlgGroupPaste@@QAEXXZ 005d8330 f   DlgGroupPaste.obj
 0002:0005c370       ?OnBnClickedRadioRetainTraces@CDlgGroupPaste@@QAEXXZ 005d8370 f   DlgGroupPaste.obj
 0002:0005c3b0       ?OnLvnColumnClickListSelectGroupNets@CDlgGroupPaste@@QAEXPAUtagNMHDR@@PAJ@Z 005d83b0 f   DlgGroupPaste.obj
 0002:0005c600       ??0?$CArray@Unet_info@@ABU1@@@QAE@XZ 005d8600 f i DlgGroupPaste.obj
 0002:0005c690       ?Serialize@?$CArray@Unet_info@@ABU1@@@UAEXAAVCArchive@@@Z 005d8690 f i DlgGroupPaste.obj
 0002:0005c760       ?Dump@?$CArray@Unet_info@@ABU1@@@UBEXAAVCDumpContext@@@Z 005d8760 f i DlgGroupPaste.obj
 0002:0005c840       ?AssertValid@?$CArray@Unet_info@@ABU1@@@UBEXXZ 005d8840 f i DlgGroupPaste.obj
 0002:0005c9a0       ??_E?$CArray@Unet_info@@ABU1@@@UAEPAXI@Z 005d89a0 f i DlgGroupPaste.obj
 0002:0005c9a0       ??_G?$CArray@Unet_info@@ABU1@@@UAEPAXI@Z 005d89a0 f i DlgGroupPaste.obj
 0002:0005ca10       ??1?$CArray@Unet_info@@ABU1@@@UAE@XZ 005d8a10 f i DlgGroupPaste.obj
 0002:0005cb40       ??$SerializeElements@Unet_info@@@@YGXAAVCArchive@@PAUnet_info@@H@Z 005d8b40 f i DlgGroupPaste.obj
 0002:0005cd30       ??$DumpElements@Unet_info@@@@YGXAAVCDumpContext@@PBUnet_info@@H@Z 005d8d30 f i DlgGroupPaste.obj
 0002:0005ce20       ?_GetBaseClass@CDlgHole@@KGPAUCRuntimeClass@@XZ 005d8e20 f   DlgHole.obj
 0002:0005ce70       ?GetThisClass@CDlgHole@@SGPAUCRuntimeClass@@XZ 005d8e70 f   DlgHole.obj
 0002:0005ceb0       ?GetRuntimeClass@CDlgHole@@UBEPAUCRuntimeClass@@XZ 005d8eb0 f   DlgHole.obj
 0002:0005cef0       ??0CDlgHole@@QAE@PAVCWnd@@@Z 005d8ef0 f   DlgHole.obj
 0002:0005d050       ??_ECDlgHole@@UAEPAXI@Z    005d9050 f i DlgHole.obj
 0002:0005d050       ??_GCDlgHole@@UAEPAXI@Z    005d9050 f i DlgHole.obj
 0002:0005d0c0       ??1CDlgHole@@UAE@XZ        005d90c0 f   DlgHole.obj
 0002:0005d210       ?DoDataExchange@CDlgHole@@MAEXPAVCDataExchange@@@Z 005d9210 f   DlgHole.obj
 0002:0005d3b0       ?GetMessageMap@CDlgHole@@MBEPBUAFX_MSGMAP@@XZ 005d93b0 f   DlgHole.obj
 0002:0005d400       ?GetThisMessageMap@CDlgHole@@KGPBUAFX_MSGMAP@@XZ 005d9400 f   DlgHole.obj
 0002:0005d440       ?Initialize@CDlgHole@@QAEXHHHHH@Z 005d9440 f   DlgHole.obj
 0002:0005d4e0       ?SetFields@CDlgHole@@QAEXXZ 005d94e0 f   DlgHole.obj
 0002:0005d800       ?GetFields@CDlgHole@@QAEXXZ 005d9800 f   DlgHole.obj
 0002:0005da00       ?OnCbnSelChangeCombo1@CDlgHole@@QAEXXZ 005d9a00 f   DlgHole.obj
 0002:0005daa0       ?OnBnClickedSet@CDlgHole@@QAEXXZ 005d9aa0 f   DlgHole.obj
 0002:0005db00       ?OnBnClickedDrag@CDlgHole@@QAEXXZ 005d9b00 f   DlgHole.obj
 0002:0005db60       ?OnBnClickedPlated@CDlgHole@@QAEXXZ 005d9b60 f   DlgHole.obj
 0002:0005dbc0       ?OnBnClickedUnplated@CDlgHole@@QAEXXZ 005d9bc0 f   DlgHole.obj
 0002:0005dc20       ?_GetBaseClass@CDlgImportFootprint@@KGPAUCRuntimeClass@@XZ 005d9c20 f   DlgImportFootprint.obj
 0002:0005dc70       ?GetThisClass@CDlgImportFootprint@@SGPAUCRuntimeClass@@XZ 005d9c70 f   DlgImportFootprint.obj
 0002:0005dcb0       ?GetRuntimeClass@CDlgImportFootprint@@UBEPAUCRuntimeClass@@XZ 005d9cb0 f   DlgImportFootprint.obj
 0002:0005dcf0       ??0CDlgImportFootprint@@QAE@PAVCWnd@@@Z 005d9cf0 f   DlgImportFootprint.obj
 0002:0005df60       ??_GCDlgImportFootprint@@UAEPAXI@Z 005d9f60 f i DlgImportFootprint.obj
 0002:0005df60       ??_ECDlgImportFootprint@@UAEPAXI@Z 005d9f60 f i DlgImportFootprint.obj
 0002:0005dfd0       ??1CDlgImportFootprint@@UAE@XZ 005d9fd0 f   DlgImportFootprint.obj
 0002:0005e190       ?DoDataExchange@CDlgImportFootprint@@MAEXPAVCDataExchange@@@Z 005da190 f   DlgImportFootprint.obj
 0002:0005e2b0       ?GetMessageMap@CDlgImportFootprint@@MBEPBUAFX_MSGMAP@@XZ 005da2b0 f   DlgImportFootprint.obj
 0002:0005e300       ?GetThisMessageMap@CDlgImportFootprint@@KGPBUAFX_MSGMAP@@XZ 005da300 f   DlgImportFootprint.obj
 0002:0005e340       ?InitInstance@CDlgImportFootprint@@QAEXPAVCMapStringToPtr@@PAVCFootLibFolderMap@@PAVCDlgLog@@@Z 005da340 f   DlgImportFootprint.obj
 0002:0005e3f0       ?OnInitDialog@CDlgImportFootprint@@EAEHXZ 005da3f0 f   DlgImportFootprint.obj
 0002:0005e450       ?OnBnClickedButtonBrowseLibFolder@CDlgImportFootprint@@QAEXXZ 005da450 f   DlgImportFootprint.obj
 0002:0005e760       ?OnTvnSelchangedPartLibTree@CDlgImportFootprint@@AAEXPAUtagNMHDR@@PAJ@Z 005da760 f   DlgImportFootprint.obj
 0002:0005eea0       ?InitPartLibTree@CDlgImportFootprint@@QAEXXZ 005daea0 f   DlgImportFootprint.obj
 0002:0005f4e0       ?OnBnClickedOk@CDlgImportFootprint@@QAEXXZ 005db4e0 f   DlgImportFootprint.obj
 0002:0005f6f0       ?OnBnClickedCancel@CDlgImportFootprint@@QAEXXZ 005db6f0 f   DlgImportFootprint.obj
 0002:0005f8b0       ?GetExpanded@CFootLibFolder@@QAEHH@Z 005db8b0 f i DlgImportFootprint.obj
 0002:0005f910       ?_GetBaseClass@CDlgImportOptions@@KGPAUCRuntimeClass@@XZ 005db910 f   DlgImportOptions.obj
 0002:0005f960       ?GetThisClass@CDlgImportOptions@@SGPAUCRuntimeClass@@XZ 005db960 f   DlgImportOptions.obj
 0002:0005f9a0       ?GetRuntimeClass@CDlgImportOptions@@UBEPAUCRuntimeClass@@XZ 005db9a0 f   DlgImportOptions.obj
 0002:0005f9e0       ??0CDlgImportOptions@@QAE@PAVCWnd@@@Z 005db9e0 f   DlgImportOptions.obj
 0002:0005fbc0       ??_ECDlgImportOptions@@UAEPAXI@Z 005dbbc0 f i DlgImportOptions.obj
 0002:0005fbc0       ??_GCDlgImportOptions@@UAEPAXI@Z 005dbbc0 f i DlgImportOptions.obj
 0002:0005fc30       ??1CDlgImportOptions@@UAE@XZ 005dbc30 f   DlgImportOptions.obj
 0002:0005fdf0       ?DoDataExchange@CDlgImportOptions@@MAEXPAVCDataExchange@@@Z 005dbdf0 f   DlgImportOptions.obj
 0002:00060520       ??$SerializeElements@Vcarea@@@@YGXAAVCArchive@@PAVcarea@@H@Z 005dc520 f i NetList.obj
 0002:000606f0       ?GetMessageMap@CDlgImportOptions@@MBEPBUAFX_MSGMAP@@XZ 005dc6f0 f   DlgImportOptions.obj
 0002:00060740       ?GetThisMessageMap@CDlgImportOptions@@KGPBUAFX_MSGMAP@@XZ 005dc740 f   DlgImportOptions.obj
 0002:00060780       ?Initialize@CDlgImportOptions@@QAEXH@Z 005dc780 f   DlgImportOptions.obj
 0002:000607d0       ?OnBnClickedSaveAndImport@CDlgImportOptions@@QAEXXZ 005dc7d0 f   DlgImportOptions.obj
 0002:00060860       ?OnBnClickedOk@CDlgImportOptions@@QAEXXZ 005dc860 f   DlgImportOptions.obj
 0002:000608f0       ?OnBnClickedRemoveNotNl@CDlgImportOptions@@QAEXXZ 005dc8f0 f   DlgImportOptions.obj
 0002:00060990       ?_GetBaseClass@CDlgImportSes@@KGPAUCRuntimeClass@@XZ 005dc990 f   DlgImportSes.obj
 0002:000609e0       ?GetThisClass@CDlgImportSes@@SGPAUCRuntimeClass@@XZ 005dc9e0 f   DlgImportSes.obj
 0002:00060a20       ?GetRuntimeClass@CDlgImportSes@@UBEPAUCRuntimeClass@@XZ 005dca20 f   DlgImportSes.obj
 0002:00060a60       ??0CDlgImportSes@@QAE@PAVCWnd@@@Z 005dca60 f   DlgImportSes.obj
 0002:00060bb0       ??_ECDlgImportSes@@UAEPAXI@Z 005dcbb0 f i DlgImportSes.obj
 0002:00060bb0       ??_GCDlgImportSes@@UAEPAXI@Z 005dcbb0 f i DlgImportSes.obj
 0002:00060c20       ??1CDlgImportSes@@UAE@XZ   005dcc20 f   DlgImportSes.obj
 0002:00060d50       ?DoDataExchange@CDlgImportSes@@MAEXPAVCDataExchange@@@Z 005dcd50 f   DlgImportSes.obj
 0002:00061050       ?GetMessageMap@CDlgImportSes@@MBEPBUAFX_MSGMAP@@XZ 005dd050 f   DlgImportSes.obj
 0002:000610a0       ?GetThisMessageMap@CDlgImportSes@@KGPBUAFX_MSGMAP@@XZ 005dd0a0 f   DlgImportSes.obj
 0002:000610e0       ?Initialize@CDlgImportSes@@QAEXPAV?$CStringT@DV?$StrTraitMFC_DLL@DV?$ChTraitsCRT@D@ATL@@@@@ATL@@0PAVCFreePcbDoc@@@Z 005dd0e0 f   DlgImportSes.obj
 0002:00061190       ?OnBnClickedButtonDef@CDlgImportSes@@QAEXXZ 005dd190 f   DlgImportSes.obj
 0002:00061230       ?OnBnClickedButtonBrowse@CDlgImportSes@@QAEXXZ 005dd230 f   DlgImportSes.obj
 0002:000613d0       ?_GetBaseClass@CDlgIndexing@@KGPAUCRuntimeClass@@XZ 005dd3d0 f   DlgIndexing.obj
 0002:00061420       ?GetThisClass@CDlgIndexing@@SGPAUCRuntimeClass@@XZ 005dd420 f   DlgIndexing.obj
 0002:00061460       ?GetRuntimeClass@CDlgIndexing@@UBEPAUCRuntimeClass@@XZ 005dd460 f   DlgIndexing.obj
 0002:000614a0       ??0CDlgIndexing@@QAE@PAVCWnd@@@Z 005dd4a0 f   DlgIndexing.obj
 0002:00061510       ??_ECDlgIndexing@@UAEPAXI@Z 005dd510 f i DlgIndexing.obj
 0002:00061510       ??_GCDlgIndexing@@UAEPAXI@Z 005dd510 f i DlgIndexing.obj
 0002:00061580       ??1CDlgIndexing@@UAE@XZ    005dd580 f   DlgIndexing.obj
 0002:000615e0       ?DoDataExchange@CDlgIndexing@@MAEXPAVCDataExchange@@@Z 005dd5e0 f   DlgIndexing.obj
 0002:00061640       ?GetMessageMap@CDlgIndexing@@MBEPBUAFX_MSGMAP@@XZ 005dd640 f   DlgIndexing.obj
 0002:00061690       ?GetThisMessageMap@CDlgIndexing@@KGPBUAFX_MSGMAP@@XZ 005dd690 f   DlgIndexing.obj
 0002:000616d0       ??0CivexDlg@@QAE@PAVCWnd@@@Z 005dd6d0 f   DlgIvex.obj
 0002:00061830       ??_ECivexDlg@@UAEPAXI@Z    005dd830 f i DlgIvex.obj
 0002:00061830       ??_GCivexDlg@@UAEPAXI@Z    005dd830 f i DlgIvex.obj
 0002:000618a0       ??1CivexDlg@@UAE@XZ        005dd8a0 f i DlgIvex.obj
 0002:000619c0       ?DoDataExchange@CivexDlg@@MAEXPAVCDataExchange@@@Z 005dd9c0 f   DlgIvex.obj
 0002:00061a70       ?GetMessageMap@CivexDlg@@MBEPBUAFX_MSGMAP@@XZ 005dda70 f   DlgIvex.obj
 0002:00061ac0       ?GetThisMessageMap@CivexDlg@@KGPBUAFX_MSGMAP@@XZ 005ddac0 f   DlgIvex.obj
 0002:00061b00       ?OnInitDialog@CivexDlg@@MAEHXZ 005ddb00 f   DlgIvex.obj
 0002:00061b60       ?OnSysCommand@CivexDlg@@IAEXIJ@Z 005ddb60 f   DlgIvex.obj
 0002:00061bc0       ?OnPaint@CivexDlg@@IAEXXZ  005ddbc0 f   DlgIvex.obj
 0002:00061dc0       ?OnQueryDragIcon@CivexDlg@@IAEPAUHICON__@@XZ 005dddc0 f   DlgIvex.obj
 0002:00061e00       ?OnBnClickedButtonInfile@CivexDlg@@QAEXXZ 005dde00 f   DlgIvex.obj
 0002:00062130       ?OnBnClickedButtonOutfile@CivexDlg@@QAEXXZ 005de130 f   DlgIvex.obj
 0002:00062170       ?OnEnChangeEditInfile@CivexDlg@@QAEXXZ 005de170 f   DlgIvex.obj
 0002:000621b0       ?OnEnChangeEditOutfile@CivexDlg@@QAEXXZ 005de1b0 f   DlgIvex.obj
 0002:000621f0       ?OnBnClickedConvert@CivexDlg@@QAEXXZ 005de1f0 f   DlgIvex.obj
 0002:00062840       ?_GetBaseClass@CDlgLayers@@KGPAUCRuntimeClass@@XZ 005de840 f   DlgLayers.obj
 0002:00062890       ?GetThisClass@CDlgLayers@@SGPAUCRuntimeClass@@XZ 005de890 f   DlgLayers.obj
 0002:000628d0       ?GetRuntimeClass@CDlgLayers@@UBEPAUCRuntimeClass@@XZ 005de8d0 f   DlgLayers.obj
 0002:00062910       ??0CDlgLayers@@QAE@PAVCWnd@@@Z 005de910 f   DlgLayers.obj
 0002:000629e0       ??_ECDlgLayers@@UAEPAXI@Z  005de9e0 f i DlgLayers.obj
 0002:000629e0       ??_GCDlgLayers@@UAEPAXI@Z  005de9e0 f i DlgLayers.obj
 0002:00062a50       ??1CDlgLayers@@UAE@XZ      005dea50 f   DlgLayers.obj
 0002:00062b10       ?DoDataExchange@CDlgLayers@@MAEXPAVCDataExchange@@@Z 005deb10 f   DlgLayers.obj
 0002:00062ce0       ?GetMessageMap@CDlgLayers@@MBEPBUAFX_MSGMAP@@XZ 005dece0 f   DlgLayers.obj
 0002:00062d30       ?GetThisMessageMap@CDlgLayers@@KGPBUAFX_MSGMAP@@XZ 005ded30 f   DlgLayers.obj
 0002:00062d70       ?Initialize@CDlgLayers@@QAEXHQAHQAY02HH@Z 005ded70 f   DlgLayers.obj
 0002:00062e90       ?OnCtlColor@CDlgLayers@@QAEPAUHBRUSH__@@PAVCDC@@PAVCWnd@@I@Z 005dee90 f   DlgLayers.obj
 0002:00063040       ?OnBnClickedButtonLayer1@CDlgLayers@@QAEXXZ 005df040 f   DlgLayers.obj
 0002:000630a0       ?OnBnClickedButtonLayer2@CDlgLayers@@QAEXXZ 005df0a0 f   DlgLayers.obj
 0002:00063100       ?OnBnClickedButtonLayer3@CDlgLayers@@QAEXXZ 005df100 f   DlgLayers.obj
 0002:00063160       ?OnBnClickedButtonLayer4@CDlgLayers@@QAEXXZ 005df160 f   DlgLayers.obj
 0002:000631c0       ?OnBnClickedButtonLayer5@CDlgLayers@@QAEXXZ 005df1c0 f   DlgLayers.obj
 0002:00063220       ?OnBnClickedButtonLayer6@CDlgLayers@@QAEXXZ 005df220 f   DlgLayers.obj
 0002:00063280       ?OnBnClickedButtonLayer7@CDlgLayers@@QAEXXZ 005df280 f   DlgLayers.obj
 0002:000632e0       ?OnBnClickedButtonLayer8@CDlgLayers@@QAEXXZ 005df2e0 f   DlgLayers.obj
 0002:00063340       ?OnBnClickedButtonLayer9@CDlgLayers@@QAEXXZ 005df340 f   DlgLayers.obj
 0002:000633a0       ?OnBnClickedButtonLayer10@CDlgLayers@@QAEXXZ 005df3a0 f   DlgLayers.obj
 0002:00063400       ?OnBnClickedButtonLayer11@CDlgLayers@@QAEXXZ 005df400 f   DlgLayers.obj
 0002:00063460       ?OnBnClickedButtonLayer12@CDlgLayers@@QAEXXZ 005df460 f   DlgLayers.obj
 0002:000634c0       ?OnBnClickedButtonLayer13@CDlgLayers@@QAEXXZ 005df4c0 f   DlgLayers.obj
 0002:00063520       ?OnBnClickedButtonLayer14@CDlgLayers@@QAEXXZ 005df520 f   DlgLayers.obj
 0002:00063580       ?OnBnClickedButtonLayer15@CDlgLayers@@QAEXXZ 005df580 f   DlgLayers.obj
 0002:000635e0       ?OnBnClickedButtonLayer16@CDlgLayers@@QAEXXZ 005df5e0 f   DlgLayers.obj
 0002:00063640       ?OnBnClickedButtonLayer17@CDlgLayers@@QAEXXZ 005df640 f   DlgLayers.obj
 0002:000636a0       ?OnBnClickedButtonLayer18@CDlgLayers@@QAEXXZ 005df6a0 f   DlgLayers.obj
 0002:00063700       ?OnBnClickedButtonLayer19@CDlgLayers@@QAEXXZ 005df700 f   DlgLayers.obj
 0002:00063760       ?OnBnClickedButtonLayer20@CDlgLayers@@QAEXXZ 005df760 f   DlgLayers.obj
 0002:000637c0       ?OnBnClickedButtonLayer21@CDlgLayers@@QAEXXZ 005df7c0 f   DlgLayers.obj
 0002:00063820       ?OnBnClickedButtonLayer22@CDlgLayers@@QAEXXZ 005df820 f   DlgLayers.obj
 0002:00063880       ?OnBnClickedButtonLayer23@CDlgLayers@@QAEXXZ 005df880 f   DlgLayers.obj
 0002:000638e0       ?OnBnClickedButtonLayer24@CDlgLayers@@QAEXXZ 005df8e0 f   DlgLayers.obj
 0002:00063940       ?OnBnClickedButtonLayer25@CDlgLayers@@QAEXXZ 005df940 f   DlgLayers.obj
 0002:000639a0       ?OnBnClickedButtonLayer26@CDlgLayers@@QAEXXZ 005df9a0 f   DlgLayers.obj
 0002:00063a00       ?OnBnClickedButtonLayer27@CDlgLayers@@QAEXXZ 005dfa00 f   DlgLayers.obj
 0002:00063a60       ?OnBnClickedButtonLayer28@CDlgLayers@@QAEXXZ 005dfa60 f   DlgLayers.obj
 0002:00063ac0       ?OnBnClickedButtonLayer29@CDlgLayers@@QAEXXZ 005dfac0 f   DlgLayers.obj
 0002:00063b20       ?OnBnClickedButtonLayer30@CDlgLayers@@QAEXXZ 005dfb20 f   DlgLayers.obj
 0002:00063b80       ?OnBnClickedButtonLayer31@CDlgLayers@@QAEXXZ 005dfb80 f   DlgLayers.obj
 0002:00063be0       ?EditColor@CDlgLayers@@QAEXH@Z 005dfbe0 f   DlgLayers.obj
 0002:00063dd0       ??1CColorDialog@@UAE@XZ    005dfdd0 f i DlgLayers.obj
 0002:00063e20       ??1CCommonDialog@@UAE@XZ   005dfe20 f i DlgLayers.obj
 0002:00063e80       ??_GCCommonDialog@@UAEPAXI@Z 005dfe80 f i DlgLayers.obj
 0002:00063e80       ??_ECCommonDialog@@UAEPAXI@Z 005dfe80 f i DlgLayers.obj
 0002:00063ef0       ?_GetBaseClass@CDlgLibraryManager@@KGPAUCRuntimeClass@@XZ 005dfef0 f   DlgLibraryManager.obj
 0002:00063f40       ?GetThisClass@CDlgLibraryManager@@SGPAUCRuntimeClass@@XZ 005dff40 f   DlgLibraryManager.obj
 0002:00063f80       ?GetRuntimeClass@CDlgLibraryManager@@UBEPAUCRuntimeClass@@XZ 005dff80 f   DlgLibraryManager.obj
 0002:00063fc0       ??0CDlgLibraryManager@@QAE@PAVCWnd@@@Z 005dffc0 f   DlgLibraryManager.obj
 0002:000640d0       ??_ECDlgLibraryManager@@UAEPAXI@Z 005e00d0 f i DlgLibraryManager.obj
 0002:000640d0       ??_GCDlgLibraryManager@@UAEPAXI@Z 005e00d0 f i DlgLibraryManager.obj
 0002:00064140       ??1CDlgLibraryManager@@UAE@XZ 005e0140 f   DlgLibraryManager.obj
 0002:00064240       ?DoDataExchange@CDlgLibraryManager@@MAEXPAVCDataExchange@@@Z 005e0240 f   DlgLibraryManager.obj
 0002:000645d0       ?GetMessageMap@CDlgLibraryManager@@MBEPBUAFX_MSGMAP@@XZ 005e05d0 f   DlgLibraryManager.obj
 0002:00064620       ?GetThisMessageMap@CDlgLibraryManager@@KGPBUAFX_MSGMAP@@XZ 005e0620 f   DlgLibraryManager.obj
 0002:00064660       ?OnBnClickedButtonMakePdf@CDlgLibraryManager@@QAEXXZ 005e0660 f   DlgLibraryManager.obj
 0002:0006b8c0       ?RemoveSegment@CNetList@@QAEHPAVcnet@@HH@Z 005e78c0 f   NetList.obj
 0002:0006c6f0       ?SetAreaConnections@CNetList@@QAEXPAVcnet@@HH@Z 005e86f0 f   NetList.obj
 0002:0006d560       ?abs@@YANN@Z               005e9560 f i DlgLibraryManager.obj
 0002:0006d5c0       ?Initialize@CDlgLibraryManager@@QAEXPAVCFootLibFolderMap@@PAVCDlgLog@@@Z 005e95c0 f   DlgLibraryManager.obj
 0002:0006d620       ?OnBnClickedButtonMgrBrowse@CDlgLibraryManager@@QAEXXZ 005e9620 f   DlgLibraryManager.obj
 0002:0006d9c0       ?RemoveAt@?$CArray@HABH@@QAEXHH@Z 005e99c0 f i DlgLibraryManager.obj
 0002:0006db70       ??A?$CArray@PAVCText@@ABQAV1@@@QAEAAPAVCText@@H@Z 005e9b70 f i DlgLibraryManager.obj
 0002:0006dbd0       ??A?$CArray@VCPolyLine@@ABV1@@@QAEAAVCPolyLine@@H@Z 005e9bd0 f i DlgLibraryManager.obj
 0002:0006dc30       ?ElementAt@?$CArray@PAVCText@@ABQAV1@@@QAEAAPAVCText@@H@Z 005e9c30 f i DlgLibraryManager.obj
 0002:0006dce0       ?ElementAt@?$CArray@VCPolyLine@@ABV1@@@QAEAAVCPolyLine@@H@Z 005e9ce0 f i DlgLibraryManager.obj
 0002:0006dd90       ??0?$CArray@HABH@@QAE@XZ   005e9d90 f i DlgLibraryManager.obj
 0002:0006de20       ?Add@?$CArray@HABH@@QAEHABH@Z 005e9e20 f i DlgLibraryManager.obj
 0002:0006de90       ??1?$CArray@HABH@@UAE@XZ   005e9e90 f i DlgLibraryManager.obj
 0002:0006dfa0       ?Serialize@?$CArray@HABH@@UAEXAAVCArchive@@@Z 005e9fa0 f i DlgLibraryManager.obj
 0002:0006e070       ?SetSize@?$CArray@HABH@@QAEXHH@Z 005ea070 f i DlgLibraryManager.obj
 0002:0006e600       ?Dump@?$CArray@HABH@@UBEXAAVCDumpContext@@@Z 005ea600 f i DlgLibraryManager.obj
 0002:0006e6e0       ?AssertValid@?$CArray@HABH@@UBEXXZ 005ea6e0 f i DlgLibraryManager.obj
 0002:0006e840       ?GetSize@?$CArray@PAVCText@@ABQAV1@@@QBEHXZ 005ea840 f i DlgLibraryManager.obj
 0002:0006e880       ??_E?$CArray@HABH@@UAEPAXI@Z 005ea880 f i DlgLibraryManager.obj
 0002:0006e880       ??_G?$CArray@HABH@@UAEPAXI@Z 005ea880 f i DlgLibraryManager.obj
 0002:0006e8f0       ?SetAtGrow@?$CArray@HABH@@QAEXHABH@Z 005ea8f0 f i DlgLibraryManager.obj
 0002:0006e9c0       ?_GetBaseClass@CDlgLog@@KGPAUCRuntimeClass@@XZ 005ea9c0 f   DlgLog.obj
 0002:0006ea10       ?GetThisClass@CDlgLog@@SGPAUCRuntimeClass@@XZ 005eaa10 f   DlgLog.obj
 0002:0006ea50       ?GetRuntimeClass@CDlgLog@@UBEPAUCRuntimeClass@@XZ 005eaa50 f   DlgLog.obj
 0002:0006ea90       ??0CDlgLog@@QAE@PAVCWnd@@@Z 005eaa90 f   DlgLog.obj
 0002:0006eb70       ??_ECDlgLog@@UAEPAXI@Z     005eab70 f i DlgLog.obj
 0002:0006eb70       ??_GCDlgLog@@UAEPAXI@Z     005eab70 f i DlgLog.obj
 0002:0006ebe0       ??1CDlgLog@@UAE@XZ         005eabe0 f   DlgLog.obj
 0002:0006eca0       ?DoDataExchange@CDlgLog@@MAEXPAVCDataExchange@@@Z 005eaca0 f   DlgLog.obj
 0002:0006ed40       ?GetMessageMap@CDlgLog@@MBEPBUAFX_MSGMAP@@XZ 005ead40 f   DlgLog.obj
 0002:0006ed90       ?GetThisMessageMap@CDlgLog@@KGPBUAFX_MSGMAP@@XZ 005ead90 f   DlgLog.obj
 0002:0006edd0       ?Move@CDlgLog@@QAEXHH@Z    005eadd0 f   DlgLog.obj
 0002:0006eeb0       ?Clear@CDlgLog@@QAEXXZ     005eaeb0 f   DlgLog.obj
 0002:0006ef30       ?AddLine@CDlgLog@@QAEXPBD@Z 005eaf30 f   DlgLog.obj
 0002:0006ef90       ?OnBnClickedOk@CDlgLog@@QAEXXZ 005eaf90 f   DlgLog.obj
 0002:0006f020       ?OnSetCursor@CDlgLog@@QAEHPAVCWnd@@II@Z 005eb020 f   DlgLog.obj
 0002:0006f0b0       ?OnBnClickedHideMe@CDlgLog@@QAEXXZ 005eb0b0 f   DlgLog.obj
 0002:0006f110       ?_GetBaseClass@CDlgMoveOrigin@@KGPAUCRuntimeClass@@XZ 005eb110 f   DlgMoveOrigin.obj
 0002:0006f160       ?GetThisClass@CDlgMoveOrigin@@SGPAUCRuntimeClass@@XZ 005eb160 f   DlgMoveOrigin.obj
 0002:0006f1a0       ?GetRuntimeClass@CDlgMoveOrigin@@UBEPAUCRuntimeClass@@XZ 005eb1a0 f   DlgMoveOrigin.obj
 0002:0006f1e0       ??0CDlgMoveOrigin@@QAE@PAVCWnd@@@Z 005eb1e0 f   DlgMoveOrigin.obj
 0002:0006f300       ??_GCDlgMoveOrigin@@UAEPAXI@Z 005eb300 f i DlgMoveOrigin.obj
 0002:0006f300       ??_ECDlgMoveOrigin@@UAEPAXI@Z 005eb300 f i DlgMoveOrigin.obj
 0002:0006f370       ??1CDlgMoveOrigin@@UAE@XZ  005eb370 f   DlgMoveOrigin.obj
 0002:0006f480       ?DoDataExchange@CDlgMoveOrigin@@MAEXPAVCDataExchange@@@Z 005eb480 f   DlgMoveOrigin.obj
 0002:0006f5e0       ?GetMessageMap@CDlgMoveOrigin@@MBEPBUAFX_MSGMAP@@XZ 005eb5e0 f   DlgMoveOrigin.obj
 0002:0006f630       ?GetThisMessageMap@CDlgMoveOrigin@@KGPBUAFX_MSGMAP@@XZ 005eb630 f   DlgMoveOrigin.obj
 0002:0006f670       ?Initialize@CDlgMoveOrigin@@QAEXH@Z 005eb670 f   DlgMoveOrigin.obj
 0002:0006f6e0       ?GetFields@CDlgMoveOrigin@@QAEXXZ 005eb6e0 f   DlgMoveOrigin.obj
 0002:0006f8d0       ?SetFields@CDlgMoveOrigin@@QAEXXZ 005eb8d0 f   DlgMoveOrigin.obj
 0002:0006fbb0       ?OnCbnSelchangeUnits@CDlgMoveOrigin@@QAEXXZ 005ebbb0 f   DlgMoveOrigin.obj
 0002:0006fc10       ?OnBnClickedDrag@CDlgMoveOrigin@@QAEXXZ 005ebc10 f   DlgMoveOrigin.obj
 0002:0006fc70       ?OnBnClickedSet@CDlgMoveOrigin@@QAEXXZ 005ebc70 f   DlgMoveOrigin.obj
 0002:0006fcd0       ?_GetBaseClass@CDlgMyMessageBox@@KGPAUCRuntimeClass@@XZ 005ebcd0 f   DlgMyMessageBox.obj
 0002:0006fd20       ?GetThisClass@CDlgMyMessageBox@@SGPAUCRuntimeClass@@XZ 005ebd20 f   DlgMyMessageBox.obj
 0002:0006fd60       ?GetRuntimeClass@CDlgMyMessageBox@@UBEPAUCRuntimeClass@@XZ 005ebd60 f   DlgMyMessageBox.obj
 0002:0006fda0       ??0CDlgMyMessageBox@@QAE@PAVCWnd@@@Z 005ebda0 f   DlgMyMessageBox.obj
 0002:0006fea0       ??_GCDlgMyMessageBox@@UAEPAXI@Z 005ebea0 f i DlgMyMessageBox.obj
 0002:0006fea0       ??_ECDlgMyMessageBox@@UAEPAXI@Z 005ebea0 f i DlgMyMessageBox.obj
 0002:0006ff10       ??1CDlgMyMessageBox@@UAE@XZ 005ebf10 f   DlgMyMessageBox.obj
 0002:00070000       ?DoDataExchange@CDlgMyMessageBox@@MAEXPAVCDataExchange@@@Z 005ec000 f   DlgMyMessageBox.obj
 0002:00070130       ?GetMessageMap@CDlgMyMessageBox@@MBEPBUAFX_MSGMAP@@XZ 005ec130 f   DlgMyMessageBox.obj
 0002:00070180       ?GetThisMessageMap@CDlgMyMessageBox@@KGPBUAFX_MSGMAP@@XZ 005ec180 f   DlgMyMessageBox.obj
 0002:000701c0       ?Initialize@CDlgMyMessageBox@@QAEXPBD@Z 005ec1c0 f   DlgMyMessageBox.obj
 0002:00070230       ?_GetBaseClass@CDlgMyMessageBox2@@KGPAUCRuntimeClass@@XZ 005ec230 f   DlgMyMessageBox2.obj
 0002:00070280       ?GetThisClass@CDlgMyMessageBox2@@SGPAUCRuntimeClass@@XZ 005ec280 f   DlgMyMessageBox2.obj
 0002:000702c0       ?GetRuntimeClass@CDlgMyMessageBox2@@UBEPAUCRuntimeClass@@XZ 005ec2c0 f   DlgMyMessageBox2.obj
 0002:00070300       ??0CDlgMyMessageBox2@@QAE@PAVCWnd@@@Z 005ec300 f   DlgMyMessageBox2.obj
 0002:000703e0       ??_ECDlgMyMessageBox2@@UAEPAXI@Z 005ec3e0 f i DlgMyMessageBox2.obj
 0002:000703e0       ??_GCDlgMyMessageBox2@@UAEPAXI@Z 005ec3e0 f i DlgMyMessageBox2.obj
 0002:00070450       ??1CDlgMyMessageBox2@@UAE@XZ 005ec450 f   DlgMyMessageBox2.obj
 0002:00070520       ?DoDataExchange@CDlgMyMessageBox2@@MAEXPAVCDataExchange@@@Z 005ec520 f   DlgMyMessageBox2.obj
 0002:00070640       ?GetMessageMap@CDlgMyMessageBox2@@MBEPBUAFX_MSGMAP@@XZ 005ec640 f   DlgMyMessageBox2.obj
 0002:00070690       ?GetThisMessageMap@CDlgMyMessageBox2@@KGPBUAFX_MSGMAP@@XZ 005ec690 f   DlgMyMessageBox2.obj
 0002:000706d0       ?Initialize@CDlgMyMessageBox2@@QAEXPAV?$CStringT@DV?$StrTraitMFC_DLL@DV?$ChTraitsCRT@D@ATL@@@@@ATL@@@Z 005ec6d0 f   DlgMyMessageBox2.obj
 0002:00070720       ?CompareNetlistCombine@@YGHJJJ@Z 005ec720 f   DlgNetCombine.obj
 0002:00070aa0       ?_GetBaseClass@CDlgNetCombine@@KGPAUCRuntimeClass@@XZ 005ecaa0 f   DlgNetCombine.obj
 0002:00070af0       ?GetThisClass@CDlgNetCombine@@SGPAUCRuntimeClass@@XZ 005ecaf0 f   DlgNetCombine.obj
 0002:00070b30       ?GetRuntimeClass@CDlgNetCombine@@UBEPAUCRuntimeClass@@XZ 005ecb30 f   DlgNetCombine.obj
 0002:00070b70       ??0CDlgNetCombine@@QAE@PAVCWnd@@@Z 005ecb70 f   DlgNetCombine.obj
 0002:00070ce0       ??_GCDlgNetCombine@@UAEPAXI@Z 005ecce0 f i DlgNetCombine.obj
 0002:00070ce0       ??_ECDlgNetCombine@@UAEPAXI@Z 005ecce0 f i DlgNetCombine.obj
 0002:00070d50       ??1CDlgNetCombine@@UAE@XZ  005ecd50 f   DlgNetCombine.obj
 0002:00070e70       ?DoDataExchange@CDlgNetCombine@@MAEXPAVCDataExchange@@@Z 005ece70 f   DlgNetCombine.obj
 0002:00070ef0       ?GetMessageMap@CDlgNetCombine@@MBEPBUAFX_MSGMAP@@XZ 005ecef0 f   DlgNetCombine.obj
 0002:00070f40       ?GetThisMessageMap@CDlgNetCombine@@KGPBUAFX_MSGMAP@@XZ 005ecf40 f   DlgNetCombine.obj
 0002:00070f80       ?Initialize@CDlgNetCombine@@QAEXPAVCNetList@@PAVCPartList@@@Z 005ecf80 f   DlgNetCombine.obj
 0002:00070fe0       ?OnInitDialog@CDlgNetCombine@@EAEHXZ 005ecfe0 f   DlgNetCombine.obj
 0002:000710a0       ?DrawListCtrl@CDlgNetCombine@@AAEXXZ 005ed0a0 f   DlgNetCombine.obj
 0002:00071650       ?OnLvnColumnclickListNet@CDlgNetCombine@@AAEXPAUtagNMHDR@@PAJ@Z 005ed650 f   DlgNetCombine.obj
 0002:000718a0       ?OnBnClickedOk@CDlgNetCombine@@AAEXXZ 005ed8a0 f   DlgNetCombine.obj
 0002:00071b80       ?OnBnClickedCancel@CDlgNetCombine@@AAEXXZ 005edb80 f   DlgNetCombine.obj
 0002:00071bf0       ?CompareNetlist@@YGHJJJ@Z  005edbf0 f   DlgNetlist.obj
 0002:00071f70       ?_GetBaseClass@CDlgNetlist@@KGPAUCRuntimeClass@@XZ 005edf70 f   DlgNetlist.obj
 0002:00071fc0       ?GetThisClass@CDlgNetlist@@SGPAUCRuntimeClass@@XZ 005edfc0 f   DlgNetlist.obj
 0002:00072000       ?GetRuntimeClass@CDlgNetlist@@UBEPAUCRuntimeClass@@XZ 005ee000 f   DlgNetlist.obj
 0002:00072040       ??0CDlgNetlist@@QAE@PAVCWnd@@@Z 005ee040 f   DlgNetlist.obj
 0002:00072240       ??_ECDlgNetlist@@UAEPAXI@Z 005ee240 f i DlgNetlist.obj
 0002:00072240       ??_GCDlgNetlist@@UAEPAXI@Z 005ee240 f i DlgNetlist.obj
 0002:000722b0       ??1CDlgNetlist@@UAE@XZ     005ee2b0 f   DlgNetlist.obj
 0002:00072460       ?DoDataExchange@CDlgNetlist@@MAEXPAVCDataExchange@@@Z 005ee460 f   DlgNetlist.obj
 0002:00072840       ?GetMessageMap@CDlgNetlist@@MBEPBUAFX_MSGMAP@@XZ 005ee840 f   DlgNetlist.obj
 0002:00072890       ?GetThisMessageMap@CDlgNetlist@@KGPBUAFX_MSGMAP@@XZ 005ee890 f   DlgNetlist.obj
 0002:000728d0       ?Initialize@CDlgNetlist@@QAEXPAVCNetList@@PAVCPartList@@PAV?$CArray@HABH@@22HH@Z 005ee8d0 f   DlgNetlist.obj
 0002:00072970       ?OnInitDialog@CDlgNetlist@@EAEHXZ 005ee970 f   DlgNetlist.obj
 0002:00072a80       ?DrawListCtrl@CDlgNetlist@@AAEXXZ 005eea80 f   DlgNetlist.obj
 0002:00073110       ?OnLvnColumnclickListNet@CDlgNetlist@@AAEXPAUtagNMHDR@@PAJ@Z 005ef110 f   DlgNetlist.obj
 0002:00073360       ?OnBnClickedButtonVisible@CDlgNetlist@@AAEXXZ 005ef360 f   DlgNetlist.obj
 0002:000734e0       ?OnBnClickedButtonEdit@CDlgNetlist@@AAEXXZ 005ef4e0 f   DlgNetlist.obj
 0002:000737e0       ?OnBnClickedButtonAdd@CDlgNetlist@@AAEXXZ 005ef7e0 f   DlgNetlist.obj
 0002:00073970       ?OnBnClickedOk@CDlgNetlist@@AAEXXZ 005ef970 f   DlgNetlist.obj
 0002:000739e0       ?OnBnClickedCancel@CDlgNetlist@@AAEXXZ 005ef9e0 f   DlgNetlist.obj
 0002:00073a50       ?OnBnClickedButtonSelectAll@CDlgNetlist@@AAEXXZ 005efa50 f   DlgNetlist.obj
 0002:00073af0       ?OnBnClickedButtonDelete@CDlgNetlist@@AAEXXZ 005efaf0 f   DlgNetlist.obj
 0002:00073c60       ?OnBnClickedButtonNLWidth@CDlgNetlist@@AAEXXZ 005efc60 f   DlgNetlist.obj
 0002:00074370       ?OnBnClickedDeleteNetsWithNoPins@CDlgNetlist@@AAEXXZ 005f0370 f   DlgNetlist.obj
 0002:00074470       ?OnBnClickedDeleteNetsWith_1_Pins@CDlgNetlist@@AAEXXZ 005f0470 f   DlgNetlist.obj
 0002:00074570       ?OnNMClickListNet@CDlgNetlist@@AAEXPAUtagNMHDR@@PAJ@Z 005f0570 f   DlgNetlist.obj
 0002:000747a0       ?OnBnClicked_nl_comp@CDlgNetlist@@AAEXXZ 005f07a0 f   DlgNetlist.obj
 0002:00074830       ?ComparePartlist@@YGHJJJ@Z 005f0830 f   DlgPartlist.obj
 0002:00074b50       ?_GetBaseClass@CDlgPartlist@@KGPAUCRuntimeClass@@XZ 005f0b50 f   DlgPartlist.obj
 0002:00074ba0       ?GetThisClass@CDlgPartlist@@SGPAUCRuntimeClass@@XZ 005f0ba0 f   DlgPartlist.obj
 0002:00074be0       ?GetRuntimeClass@CDlgPartlist@@UBEPAUCRuntimeClass@@XZ 005f0be0 f   DlgPartlist.obj
 0002:00074c20       ??0CDlgPartlist@@QAE@PAVCWnd@@@Z 005f0c20 f   DlgPartlist.obj
 0002:00074d70       ??_GCDlgPartlist@@UAEPAXI@Z 005f0d70 f i DlgPartlist.obj
 0002:00074d70       ??_ECDlgPartlist@@UAEPAXI@Z 005f0d70 f i DlgPartlist.obj
 0002:00074de0       ??1CDlgPartlist@@UAE@XZ    005f0de0 f   DlgPartlist.obj
 0002:00074f20       ?DoDataExchange@CDlgPartlist@@MAEXPAVCDataExchange@@@Z 005f0f20 f   DlgPartlist.obj
 0002:00075140       ?GetMessageMap@CDlgPartlist@@MBEPBUAFX_MSGMAP@@XZ 005f1140 f   DlgPartlist.obj
 0002:00075190       ?GetThisMessageMap@CDlgPartlist@@KGPBUAFX_MSGMAP@@XZ 005f1190 f   DlgPartlist.obj
 0002:000751d0       ?OnInitDialog@CDlgPartlist@@UAEHXZ 005f11d0 f   DlgPartlist.obj
 0002:00075290       ?DrawListCtrl@CDlgPartlist@@QAEXXZ 005f1290 f   DlgPartlist.obj
 0002:00075910       ?Initialize@CDlgPartlist@@QAEXPAVCPartList@@PAVCMapStringToPtr@@PAVCFootLibFolderMap@@HPAVCDlgLog@@HPAV?$CStringT@DV?$StrTraitMFC_DLL@DV?$ChTraitsCRT@D@ATL@@@@@ATL@@@Z 005f1910 f   DlgPartlist.obj
 0002:000759d0       ?OnBnClickedButtonEdit@CDlgPartlist@@QAEXXZ 005f19d0 f   DlgPartlist.obj
 0002:000761e0       ?OnBnClickedButtonAdd@CDlgPartlist@@QAEXXZ 005f21e0 f   DlgPartlist.obj
 0002:00076410       ?OnBnClickedButtonDelete@CDlgPartlist@@QAEXXZ 005f2410 f   DlgPartlist.obj
 0002:000765c0       ?OnLvnColumnClickList1@CDlgPartlist@@QAEXPAUtagNMHDR@@PAJ@Z 005f25c0 f   DlgPartlist.obj
 0002:000767b0       ?OnBnClickedValueVisible@CDlgPartlist@@QAEXXZ 005f27b0 f   DlgPartlist.obj
 0002:000768c0       ?OnBnClickedValueInvisible@CDlgPartlist@@QAEXXZ 005f28c0 f   DlgPartlist.obj
 0002:000769c0       ?OnNMClickList1@CDlgPartlist@@QAEXPAUtagNMHDR@@PAJ@Z 005f29c0 f   DlgPartlist.obj
 0002:00076b10       ?SaveSelections@CDlgPartlist@@QAEXXZ 005f2b10 f   DlgPartlist.obj
 0002:00076c70       ?RestoreSelections@CDlgPartlist@@QAEXXZ 005f2c70 f   DlgPartlist.obj
 0002:00076d70       ??0?$CArray@Upart_info@@ABU1@@@QAE@XZ 005f2d70 f i DlgPartlist.obj
 0002:00076e00       ?Serialize@?$CArray@Upart_info@@ABU1@@@UAEXAAVCArchive@@@Z 005f2e00 f i DlgPartlist.obj
 0002:00076ed0       ?Dump@?$CArray@Upart_info@@ABU1@@@UBEXAAVCDumpContext@@@Z 005f2ed0 f i DlgPartlist.obj
 0002:00076fb0       ?AssertValid@?$CArray@Upart_info@@ABU1@@@UBEXXZ 005f2fb0 f i DlgPartlist.obj
 0002:00077110       ??_G?$CArray@Upart_info@@ABU1@@@UAEPAXI@Z 005f3110 f i DlgPartlist.obj
 0002:00077110       ??_E?$CArray@Upart_info@@ABU1@@@UAEPAXI@Z 005f3110 f i DlgPartlist.obj
 0002:00077180       ??1?$CArray@Upart_info@@ABU1@@@UAE@XZ 005f3180 f i DlgPartlist.obj
 0002:000772b0       ??$SerializeElements@Upart_info@@@@YGXAAVCArchive@@PAUpart_info@@H@Z 005f32b0 f i DlgPartlist.obj
 0002:000774a0       ??$DumpElements@Upart_info@@@@YGXAAVCDumpContext@@PBUpart_info@@H@Z 005f34a0 f i DlgPartlist.obj
 0002:00077590       ?_GetBaseClass@CDlgPDFLayers@@KGPAUCRuntimeClass@@XZ 005f3590 f   DlgPDFColors.obj
 0002:000775e0       ?GetThisClass@CDlgPDFLayers@@SGPAUCRuntimeClass@@XZ 005f35e0 f   DlgPDFColors.obj
 0002:00077620       ?GetRuntimeClass@CDlgPDFLayers@@UBEPAUCRuntimeClass@@XZ 005f3620 f   DlgPDFColors.obj
 0002:00077660       ??0CDlgPDFLayers@@QAE@PAVCWnd@@@Z 005f3660 f   DlgPDFColors.obj
 0002:00077750       ??_ECDlgPDFLayers@@UAEPAXI@Z 005f3750 f i DlgPDFColors.obj
 0002:00077750       ??_GCDlgPDFLayers@@UAEPAXI@Z 005f3750 f i DlgPDFColors.obj
 0002:000777c0       ??1CDlgPDFLayers@@UAE@XZ   005f37c0 f   DlgPDFColors.obj
 0002:000778a0       ?DoDataExchange@CDlgPDFLayers@@MAEXPAVCDataExchange@@@Z 005f38a0 f   DlgPDFColors.obj
 0002:00077fd0       ?GetMessageMap@CDlgPDFLayers@@MBEPBUAFX_MSGMAP@@XZ 005f3fd0 f   DlgPDFColors.obj
 0002:00078020       ?GetThisMessageMap@CDlgPDFLayers@@KGPBUAFX_MSGMAP@@XZ 005f4020 f   DlgPDFColors.obj
 0002:00078060       ?Initialize@CDlgPDFLayers@@QAEXHQAHQAY02HMHHHH@Z 005f4060 f   DlgPDFColors.obj
 0002:000781f0       ?OnCtlColor@CDlgPDFLayers@@QAEPAUHBRUSH__@@PAVCDC@@PAVCWnd@@I@Z 005f41f0 f   DlgPDFColors.obj
 0002:000783a0       ?OnBnClickedButtonLayer1@CDlgPDFLayers@@QAEXXZ 005f43a0 f   DlgPDFColors.obj
 0002:00078400       ?OnBnClickedButtonLayer2@CDlgPDFLayers@@QAEXXZ 005f4400 f   DlgPDFColors.obj
 0002:00078460       ?OnBnClickedButtonLayer3@CDlgPDFLayers@@QAEXXZ 005f4460 f   DlgPDFColors.obj
 0002:000784c0       ?OnBnClickedButtonLayer4@CDlgPDFLayers@@QAEXXZ 005f44c0 f   DlgPDFColors.obj
 0002:00078520       ?OnBnClickedButtonLayer5@CDlgPDFLayers@@QAEXXZ 005f4520 f   DlgPDFColors.obj
 0002:00078580       ?OnBnClickedButtonLayer6@CDlgPDFLayers@@QAEXXZ 005f4580 f   DlgPDFColors.obj
 0002:000785e0       ?OnBnClickedButtonLayer7@CDlgPDFLayers@@QAEXXZ 005f45e0 f   DlgPDFColors.obj
 0002:00078640       ?OnBnClickedButtonLayer8@CDlgPDFLayers@@QAEXXZ 005f4640 f   DlgPDFColors.obj
 0002:000786a0       ?OnBnClickedButtonLayer9@CDlgPDFLayers@@QAEXXZ 005f46a0 f   DlgPDFColors.obj
 0002:00078700       ?OnBnClickedButtonLayer10@CDlgPDFLayers@@QAEXXZ 005f4700 f   DlgPDFColors.obj
 0002:00078760       ?OnBnClickedButtonLayer11@CDlgPDFLayers@@QAEXXZ 005f4760 f   DlgPDFColors.obj
 0002:000787c0       ?OnBnClickedButtonLayer12@CDlgPDFLayers@@QAEXXZ 005f47c0 f   DlgPDFColors.obj
 0002:00078820       ?OnBnClickedButtonLayer13@CDlgPDFLayers@@QAEXXZ 005f4820 f   DlgPDFColors.obj
 0002:00078880       ?OnBnClickedButtonLayer14@CDlgPDFLayers@@QAEXXZ 005f4880 f   DlgPDFColors.obj
 0002:000788e0       ?OnBnClickedButtonLayer15@CDlgPDFLayers@@QAEXXZ 005f48e0 f   DlgPDFColors.obj
 0002:00078940       ?OnBnClickedButtonLayer16@CDlgPDFLayers@@QAEXXZ 005f4940 f   DlgPDFColors.obj
 0002:000789a0       ?OnBnClickedButtonLayer17@CDlgPDFLayers@@QAEXXZ 005f49a0 f   DlgPDFColors.obj
 0002:00078a00       ?OnBnClickedButtonLayer18@CDlgPDFLayers@@QAEXXZ 005f4a00 f   DlgPDFColors.obj
 0002:00078a60       ?OnBnClickedButtonLayer19@CDlgPDFLayers@@QAEXXZ 005f4a60 f   DlgPDFColors.obj
 0002:00078ac0       ?OnBnClickedButtonLayer20@CDlgPDFLayers@@QAEXXZ 005f4ac0 f   DlgPDFColors.obj
 0002:00078b20       ?OnBnClickedButtonLayer21@CDlgPDFLayers@@QAEXXZ 005f4b20 f   DlgPDFColors.obj
 0002:00078b80       ?OnBnClickedButtonLayer22@CDlgPDFLayers@@QAEXXZ 005f4b80 f   DlgPDFColors.obj
 0002:00078be0       ?OnBnClickedButtonLayer23@CDlgPDFLayers@@QAEXXZ 005f4be0 f   DlgPDFColors.obj
 0002:00078c40       ?OnBnClickedButtonLayer24@CDlgPDFLayers@@QAEXXZ 005f4c40 f   DlgPDFColors.obj
 0002:00078ca0       ?OnBnClickedButtonLayer25@CDlgPDFLayers@@QAEXXZ 005f4ca0 f   DlgPDFColors.obj
 0002:00078d00       ?OnBnClickedButtonLayer26@CDlgPDFLayers@@QAEXXZ 005f4d00 f   DlgPDFColors.obj
 0002:00078d60       ?OnBnClickedButtonLayer27@CDlgPDFLayers@@QAEXXZ 005f4d60 f   DlgPDFColors.obj
 0002:00078dc0       ?OnBnClickedButtonLayer28@CDlgPDFLayers@@QAEXXZ 005f4dc0 f   DlgPDFColors.obj
 0002:00078e20       ?OnBnClickedButtonLayer29@CDlgPDFLayers@@QAEXXZ 005f4e20 f   DlgPDFColors.obj
 0002:00078e80       ?OnBnClickedButtonLayer30@CDlgPDFLayers@@QAEXXZ 005f4e80 f   DlgPDFColors.obj
 0002:00078ee0       ?OnBnClickedButtonLayer31@CDlgPDFLayers@@QAEXXZ 005f4ee0 f   DlgPDFColors.obj
 0002:00078f40       ?EditColor@CDlgPDFLayers@@QAEXH@Z 005f4f40 f   DlgPDFColors.obj
 0002:00079130       ?OnBnCancel@CDlgPDFLayers@@QAEXXZ 005f5130 f   DlgPDFColors.obj
 0002:000791c0       ?W_Compare@@YGHJJJ@Z       005f51c0 f   DlgProjectOptions.obj
 0002:000792a0       ?_GetBaseClass@CDlgProjectOptions@@KGPAUCRuntimeClass@@XZ 005f52a0 f   DlgProjectOptions.obj
 0002:000792f0       ?GetThisClass@CDlgProjectOptions@@SGPAUCRuntimeClass@@XZ 005f52f0 f   DlgProjectOptions.obj
 0002:00079330       ?GetRuntimeClass@CDlgProjectOptions@@UBEPAUCRuntimeClass@@XZ 005f5330 f   DlgProjectOptions.obj
 0002:00079370       ??0CDlgProjectOptions@@QAE@PAVCWnd@@@Z 005f5370 f   DlgProjectOptions.obj
 0002:000795e0       ??_GCDlgProjectOptions@@UAEPAXI@Z 005f55e0 f i DlgProjectOptions.obj
 0002:000795e0       ??_ECDlgProjectOptions@@UAEPAXI@Z 005f55e0 f i DlgProjectOptions.obj
 0002:00079650       ??1CDlgProjectOptions@@UAE@XZ 005f5650 f   DlgProjectOptions.obj
 0002:00079850       ?DoDataExchange@CDlgProjectOptions@@EAEXPAVCDataExchange@@@Z 005f5850 f   DlgProjectOptions.obj
 0002:0007a9e0       ?CreateAreaUndoRecord@CNetList@@QAEPAUundo_area@@PAVcnet@@HH@Z 005f69e0 f   NetList.obj
 0002:0007ae40       ?GetMessageMap@CDlgProjectOptions@@MBEPBUAFX_MSGMAP@@XZ 005f6e40 f   DlgProjectOptions.obj
 0002:0007ae90       ?GetThisMessageMap@CDlgProjectOptions@@KGPBUAFX_MSGMAP@@XZ 005f6e90 f   DlgProjectOptions.obj
 0002:0007aed0       ?Init@CDlgProjectOptions@@QAEXHPAV?$CStringT@DV?$StrTraitMFC_DLL@DV?$ChTraitsCRT@D@ATL@@@@@ATL@@000HHHHHHHHHHPAV?$CArray@HABH@@11@Z 005f6ed0 f   DlgProjectOptions.obj
 0002:0007b320       ?OnInitDialog@CDlgProjectOptions@@EAEHXZ 005f7320 f   DlgProjectOptions.obj
 0002:0007b930       ?OnBnClickedButtonAdd@CDlgProjectOptions@@IAEXXZ 005f7930 f   DlgProjectOptions.obj
 0002:0007be80       ?OnBnClickedButtonEdit@CDlgProjectOptions@@IAEXXZ 005f7e80 f   DlgProjectOptions.obj
 0002:0007c470       ?OnBnClickedButtonDelete@CDlgProjectOptions@@IAEXXZ 005f8470 f   DlgProjectOptions.obj
 0002:0007c5a0       ?OnEnChangeEditName@CDlgProjectOptions@@IAEXXZ 005f85a0 f   DlgProjectOptions.obj
 0002:0007c750       ?OnEnChangeEditFolder@CDlgProjectOptions@@IAEXXZ 005f8750 f   DlgProjectOptions.obj
 0002:0007c7b0       ?OnEnSetfocusEditFolder@CDlgProjectOptions@@IAEXXZ 005f87b0 f   DlgProjectOptions.obj
 0002:0007c800       ?OnEnKillfocusEditFolder@CDlgProjectOptions@@IAEXXZ 005f8800 f   DlgProjectOptions.obj
 0002:0007c850       ?OnBnClickedCheckAutosave@CDlgProjectOptions@@QAEXXZ 005f8850 f   DlgProjectOptions.obj
 0002:0007c8f0       ?OnBnClickedButtonLib@CDlgProjectOptions@@QAEXXZ 005f88f0 f   DlgProjectOptions.obj
 0002:0007cb30       ?OnBnClickedButtonProjectFolder@CDlgProjectOptions@@QAEXXZ 005f8b30 f   DlgProjectOptions.obj
 0002:0007cdd0       ?OnBnClickedCheckAutoRatDisable@CDlgProjectOptions@@QAEXXZ 005f8dd0 f   DlgProjectOptions.obj
 0002:0007ce40       ?GetAt@?$CArray@HABH@@QAEAAHH@Z 005f8e40 f i DlgProjectOptions.obj
 0002:0007cef0       ?SetAt@?$CArray@HABH@@QAEXHABH@Z 005f8ef0 f i DlgProjectOptions.obj
 0002:0007cfa0       ?_GetBaseClass@CDlgProtection@@KGPAUCRuntimeClass@@XZ 005f8fa0 f   DlgProtection.obj
 0002:0007cff0       ?GetThisClass@CDlgProtection@@SGPAUCRuntimeClass@@XZ 005f8ff0 f   DlgProtection.obj
 0002:0007d030       ?GetRuntimeClass@CDlgProtection@@UBEPAUCRuntimeClass@@XZ 005f9030 f   DlgProtection.obj
 0002:0007d070       ??0CDlgProtection@@QAE@PAVCWnd@@@Z 005f9070 f   DlgProtection.obj
 0002:0007d1d0       ??_ECDlgProtection@@UAEPAXI@Z 005f91d0 f i DlgProtection.obj
 0002:0007d1d0       ??_GCDlgProtection@@UAEPAXI@Z 005f91d0 f i DlgProtection.obj
 0002:0007d240       ??1CDlgProtection@@UAE@XZ  005f9240 f   DlgProtection.obj
 0002:0007d380       ?DoDataExchange@CDlgProtection@@MAEXPAVCDataExchange@@@Z 005f9380 f   DlgProtection.obj
 0002:0007dca0       ?Ini@CDlgProtection@@QAEXPAVCFreePcbDoc@@@Z 005f9ca0 f   DlgProtection.obj
 0002:0007dcf0       ?GetMessageMap@CDlgProtection@@MBEPBUAFX_MSGMAP@@XZ 005f9cf0 f   DlgProtection.obj
 0002:0007dd40       ?GetThisMessageMap@CDlgProtection@@KGPBUAFX_MSGMAP@@XZ 005f9d40 f   DlgProtection.obj
 0002:0007dd80       ?OnBnClickedCancel@CDlgProtection@@QAEXXZ 005f9d80 f   DlgProtection.obj
 0002:0007ddd0       ?CheckTxtMsg@CDlgProtection@@QAEHXZ 005f9dd0 f   DlgProtection.obj
 0002:0007e160       ?Protect@CDlgProtection@@QAEHH@Z 005fa160 f   DlgProtection.obj
 0002:0007e420       ?ExtProtection@CDlgProtection@@QAEXH@Z 005fa420 f   DlgProtection.obj
 0002:0007e580       ?FindArchive@CDlgProtection@@QAEHXZ 005fa580 f   DlgProtection.obj
 0002:0007e990       ?_GetBaseClass@CDlgReassignLayers@@KGPAUCRuntimeClass@@XZ 005fa990 f   DlgReassignLayers.obj
 0002:0007e9e0       ?GetThisClass@CDlgReassignLayers@@SGPAUCRuntimeClass@@XZ 005fa9e0 f   DlgReassignLayers.obj
 0002:0007ea20       ?GetRuntimeClass@CDlgReassignLayers@@UBEPAUCRuntimeClass@@XZ 005faa20 f   DlgReassignLayers.obj
 0002:0007ea60       ??0CDlgReassignLayers@@QAE@PAVCWnd@@@Z 005faa60 f   DlgReassignLayers.obj
 0002:0007eb40       ??_ECDlgReassignLayers@@UAEPAXI@Z 005fab40 f i DlgReassignLayers.obj
 0002:0007eb40       ??_GCDlgReassignLayers@@UAEPAXI@Z 005fab40 f i DlgReassignLayers.obj
 0002:0007ebb0       ??1CDlgReassignLayers@@UAE@XZ 005fabb0 f   DlgReassignLayers.obj
 0002:0007ec70       ?DoDataExchange@CDlgReassignLayers@@MAEXPAVCDataExchange@@@Z 005fac70 f   DlgReassignLayers.obj
 0002:0007f080       ?Initialize@CDlgReassignLayers@@QAEXHH@Z 005fb080 f   DlgReassignLayers.obj
 0002:0007f0e0       ?GetMessageMap@CDlgReassignLayers@@MBEPBUAFX_MSGMAP@@XZ 005fb0e0 f   DlgReassignLayers.obj
 0002:0007f130       ?GetThisMessageMap@CDlgReassignLayers@@KGPBUAFX_MSGMAP@@XZ 005fb130 f   DlgReassignLayers.obj
 0002:0007f170       ?_GetBaseClass@CDlgRefText@@KGPAUCRuntimeClass@@XZ 005fb170 f   DlgRefText.obj
 0002:0007f1c0       ?GetThisClass@CDlgRefText@@SGPAUCRuntimeClass@@XZ 005fb1c0 f   DlgRefText.obj
 0002:0007f200       ?GetRuntimeClass@CDlgRefText@@UBEPAUCRuntimeClass@@XZ 005fb200 f   DlgRefText.obj
 0002:0007f240       ??0CDlgRefText@@QAE@PAVCWnd@@@Z 005fb240 f   DlgRefText.obj
 0002:0007f3d0       ??_ECDlgRefText@@UAEPAXI@Z 005fb3d0 f i DlgRefText.obj
 0002:0007f3d0       ??_GCDlgRefText@@UAEPAXI@Z 005fb3d0 f i DlgRefText.obj
 0002:0007f440       ??1CDlgRefText@@UAE@XZ     005fb440 f   DlgRefText.obj
 0002:0007f5c0       ?DoDataExchange@CDlgRefText@@MAEXPAVCDataExchange@@@Z 005fb5c0 f   DlgRefText.obj
 0002:0007f910       ?Initialize@CDlgRefText@@QAEXPAVCPartList@@PAVcpart@@PAVCMapStringToPtr@@@Z 005fb910 f   DlgRefText.obj
 0002:0007fa20       ?GetMessageMap@CDlgRefText@@MBEPBUAFX_MSGMAP@@XZ 005fba20 f   DlgRefText.obj
 0002:0007fa70       ?GetThisMessageMap@CDlgRefText@@KGPBUAFX_MSGMAP@@XZ 005fba70 f   DlgRefText.obj
 0002:0007fab0       ?OnBnClickedRadioSet@CDlgRefText@@QAEXXZ 005fbab0 f   DlgRefText.obj
 0002:0007fb10       ?OnBnClickedRadioDef@CDlgRefText@@QAEXXZ 005fbb10 f   DlgRefText.obj
 0002:0007fb70       ?OnEnChangeEditCharHeight@CDlgRefText@@QAEXXZ 005fbb70 f   DlgRefText.obj
 0002:0007fe20       ?GetFields@CDlgRefText@@QAEXXZ 005fbe20 f   DlgRefText.obj
 0002:00080120       ?SetFields@CDlgRefText@@QAEXXZ 005fc120 f   DlgRefText.obj
 0002:000804b0       ?OnCbnSelchangeComboRefTextUnits@CDlgRefText@@QAEXXZ 005fc4b0 f   DlgRefText.obj
 0002:00080550       ?_GetBaseClass@CDlgReport@@KGPAUCRuntimeClass@@XZ 005fc550 f   DlgReport.obj
 0002:000805a0       ?GetThisClass@CDlgReport@@SGPAUCRuntimeClass@@XZ 005fc5a0 f   DlgReport.obj
 0002:000805e0       ?GetRuntimeClass@CDlgReport@@UBEPAUCRuntimeClass@@XZ 005fc5e0 f   DlgReport.obj
 0002:00080620       ??0CDlgReport@@QAE@PAVCWnd@@@Z 005fc620 f   DlgReport.obj
 0002:000807d0       ??_ECDlgReport@@UAEPAXI@Z  005fc7d0 f i DlgReport.obj
 0002:000807d0       ??_GCDlgReport@@UAEPAXI@Z  005fc7d0 f i DlgReport.obj
 0002:00080840       ??1CDlgReport@@UAE@XZ      005fc840 f   DlgReport.obj
 0002:000809e0       ?DoDataExchange@CDlgReport@@MAEXPAVCDataExchange@@@Z 005fc9e0 f   DlgReport.obj
 0002:00080d20       ?Initialize@CDlgReport@@QAEXPAVCFreePcbDoc@@@Z 005fcd20 f   DlgReport.obj
 0002:00080e10       ?GetMessageMap@CDlgReport@@MBEPBUAFX_MSGMAP@@XZ 005fce10 f   DlgReport.obj
 0002:00080e60       ?GetThisMessageMap@CDlgReport@@KGPBUAFX_MSGMAP@@XZ 005fce60 f   DlgReport.obj
 0002:00080ea0       ?mycompare@@YAHPBX0@Z      005fcea0 f   DlgReport.obj
 0002:00080f20       ?OnBnClickedOk@CDlgReport@@QAEXXZ 005fcf20 f   DlgReport.obj
 0002:00087020       ?SwapPins@CNetList@@QAEXPAVcpart@@PAV?$CStringT@DV?$StrTraitMFC_DLL@DV?$ChTraitsCRT@D@ATL@@@@@ATL@@01@Z 00603020 f   NetList.obj
 0002:00088330       ?ConnectUndoCallback@CNetList@@SAXHPAXH@Z 00604330 f   NetList.obj
 0002:00088860       ?OnBnClickedCancel@CDlgReport@@QAEXXZ 00604860 f   DlgReport.obj
 0002:000888d0       ?GetSize@?$CArray@Uglue@@ABU1@@@QBEHXZ 006048d0 f i DlgReport.obj
 0002:00088910       ??A?$CArray@Uglue@@ABU1@@@QAEAAUglue@@H@Z 00604910 f i DlgReport.obj
 0002:00088970       ?GetSize@?$CArray@Vcvertex@@ABV1@@@QBEHXZ 00604970 f i DlgReport.obj
 0002:000889b0       ??0?$CMap@HHHH@@QAE@H@Z    006049b0 f i DlgReport.obj
 0002:00088ac0       ?Lookup@?$CMap@HHHH@@QBEHHAAH@Z 00604ac0 f i DlgReport.obj
 0002:00088bc0       ?SetAt@?$CMap@HHHH@@QAEXHH@Z 00604bc0 f i DlgReport.obj
 0002:00088c20       ?GetStartPosition@?$CMap@HHHH@@QBEPAU__POSITION@@XZ 00604c20 f i DlgReport.obj
 0002:00088c70       ?GetNextAssoc@?$CMap@HHHH@@QBEXAAPAU__POSITION@@AAH1@Z 00604c70 f i DlgReport.obj
 0002:00088eb0       ??1?$CMap@HHHH@@UAE@XZ     00604eb0 f i DlgReport.obj
 0002:00088f80       ?Serialize@?$CMap@HHHH@@UAEXAAVCArchive@@@Z 00604f80 f i DlgReport.obj
 0002:000891a0       ?Dump@?$CMap@HHHH@@UBEXAAVCDumpContext@@@Z 006051a0 f i DlgReport.obj
 0002:00089320       ?AssertValid@?$CMap@HHHH@@UBEXXZ 00605320 f i DlgReport.obj
 0002:000893d0       ??0?$CArray@V?$CArray@V?$CStringT@DV?$StrTraitMFC_DLL@DV?$ChTraitsCRT@D@ATL@@@@@ATL@@ABV12@@@ABV1@@@QAE@XZ 006053d0 f i DlgReport.obj
 0002:00089460       ?SetSize@?$CArray@V?$CArray@V?$CStringT@DV?$StrTraitMFC_DLL@DV?$ChTraitsCRT@D@ATL@@@@@ATL@@ABV12@@@ABV1@@@QAEXHH@Z 00605460 f i DlgReport.obj
 0002:00089bb0       ??A?$CArray@V?$CArray@V?$CStringT@DV?$StrTraitMFC_DLL@DV?$ChTraitsCRT@D@ATL@@@@@ATL@@ABV12@@@ABV1@@@QAEAAV?$CArray@V?$CStringT@DV?$StrTraitMFC_DLL@DV?$ChTraitsCRT@D@ATL@@@@@ATL@@ABV12@@@H@Z 00605bb0 f i DlgReport.obj
 0002:00089c10       ??1?$CArray@V?$CArray@V?$CStringT@DV?$StrTraitMFC_DLL@DV?$ChTraitsCRT@D@ATL@@@@@ATL@@ABV12@@@ABV1@@@UAE@XZ 00605c10 f i DlgReport.obj
 0002:00089d60       ?Serialize@?$CArray@V?$CArray@V?$CStringT@DV?$StrTraitMFC_DLL@DV?$ChTraitsCRT@D@ATL@@@@@ATL@@ABV12@@@ABV1@@@UAEXAAVCArchive@@@Z 00605d60 f i DlgReport.obj
 0002:00089e30       ?Dump@?$CArray@V?$CArray@V?$CStringT@DV?$StrTraitMFC_DLL@DV?$ChTraitsCRT@D@ATL@@@@@ATL@@ABV12@@@ABV1@@@UBEXAAVCDumpContext@@@Z 00605e30 f i DlgReport.obj
 0002:00089f10       ?AssertValid@?$CArray@V?$CArray@V?$CStringT@DV?$StrTraitMFC_DLL@DV?$ChTraitsCRT@D@ATL@@@@@ATL@@ABV12@@@ABV1@@@UBEXXZ 00605f10 f i DlgReport.obj
 0002:0008a070       ??_G?$CMap@HHHH@@UAEPAXI@Z 00606070 f i DlgReport.obj
 0002:0008a070       ??_E?$CMap@HHHH@@UAEPAXI@Z 00606070 f i DlgReport.obj
 0002:0008a0e0       ??_G?$CArray@V?$CArray@V?$CStringT@DV?$StrTraitMFC_DLL@DV?$ChTraitsCRT@D@ATL@@@@@ATL@@ABV12@@@ABV1@@@UAEPAXI@Z 006060e0 f i DlgReport.obj
 0002:0008a0e0       ??_E?$CArray@V?$CArray@V?$CStringT@DV?$StrTraitMFC_DLL@DV?$ChTraitsCRT@D@ATL@@@@@ATL@@ABV12@@@ABV1@@@UAEPAXI@Z 006060e0 f i DlgReport.obj
 0002:0008a150       ?ElementAt@?$CArray@Uglue@@ABU1@@@QAEAAUglue@@H@Z 00606150 f i DlgReport.obj
 0002:0008a200       ??A?$CMap@HHHH@@QAEAAHH@Z  00606200 f i DlgReport.obj
 0002:0008a3a0       ?RemoveAll@?$CMap@HHHH@@QAEXXZ 006063a0 f i DlgReport.obj
 0002:0008a4c0       ?GetAssocAt@?$CMap@HHHH@@IBEPAVCAssoc@1@HAAI0@Z 006064c0 f i DlgReport.obj
 0002:0008a5a0       ?ElementAt@?$CArray@V?$CArray@V?$CStringT@DV?$StrTraitMFC_DLL@DV?$ChTraitsCRT@D@ATL@@@@@ATL@@ABV12@@@ABV1@@@QAEAAV?$CArray@V?$CStringT@DV?$StrTraitMFC_DLL@DV?$ChTraitsCRT@D@ATL@@@@@ATL@@ABV12@@@H@Z 006065a0 f i DlgReport.obj
 0002:0008a650       ??$SerializeElements@V?$CArray@V?$CStringT@DV?$StrTraitMFC_DLL@DV?$ChTraitsCRT@D@ATL@@@@@ATL@@ABV12@@@@@YGXAAVCArchive@@PAV?$CArray@V?$CStringT@DV?$StrTraitMFC_DLL@DV?$ChTraitsCRT@D@ATL@@@@@ATL@@ABV12@@@H@Z 00606650 f i DlgReport.obj
 0002:0008a840       ??$DumpElements@V?$CArray@V?$CStringT@DV?$StrTraitMFC_DLL@DV?$ChTraitsCRT@D@ATL@@@@@ATL@@ABV12@@@@@YGXAAVCDumpContext@@PBV?$CArray@V?$CStringT@DV?$StrTraitMFC_DLL@DV?$ChTraitsCRT@D@ATL@@@@@ATL@@ABV12@@@H@Z 00606840 f i DlgReport.obj
 0002:0008a930       ?InitHashTable@?$CMap@HHHH@@QAEXIH@Z 00606930 f i DlgReport.obj
 0002:0008aac0       ?NewAssoc@?$CMap@HHHH@@IAEPAVCAssoc@1@H@Z 00606ac0 f i DlgReport.obj
 0002:0008ad10       ??$HashKey@H@@YGIH@Z       00606d10 f i DlgReport.obj
 0002:0008ae10       ??$CompareElements@HH@@YGHPBH0@Z 00606e10 f i DlgReport.obj
 0002:0008af30       ??0CAssoc@?$CMap@HHHH@@QAE@H@Z 00606f30 f i DlgReport.obj
 0002:0008af90       ??0CPair@?$CMap@HHHH@@IAE@H@Z 00606f90 f i DlgReport.obj
 0002:0008afe0       ?data@CPlex@@QAEPAXXZ      00606fe0 f i DlgReport.obj
 0002:0008b020       ?GetNumParts@CPartList@@QAEHXZ 00607020 f i DlgReport.obj
 0002:0008b060       ?_GetBaseClass@CDlgSaveFootprint@@KGPAUCRuntimeClass@@XZ 00607060 f   DlgSaveFootprint.obj
 0002:0008b0b0       ?GetThisClass@CDlgSaveFootprint@@SGPAUCRuntimeClass@@XZ 006070b0 f   DlgSaveFootprint.obj
 0002:0008b0f0       ?GetRuntimeClass@CDlgSaveFootprint@@UBEPAUCRuntimeClass@@XZ 006070f0 f   DlgSaveFootprint.obj
 0002:0008b130       ??0CDlgSaveFootprint@@QAE@PAVCWnd@@@Z 00607130 f   DlgSaveFootprint.obj
 0002:0008b370       ??_GCDlgSaveFootprint@@UAEPAXI@Z 00607370 f i DlgSaveFootprint.obj
 0002:0008b370       ??_ECDlgSaveFootprint@@UAEPAXI@Z 00607370 f i DlgSaveFootprint.obj
 0002:0008b3e0       ??1CDlgSaveFootprint@@UAE@XZ 006073e0 f   DlgSaveFootprint.obj
 0002:0008b610       ?DoDataExchange@CDlgSaveFootprint@@MAEXPAVCDataExchange@@@Z 00607610 f   DlgSaveFootprint.obj
 0002:0008ba90       ?Initialize@CDlgSaveFootprint@@QAEXPAV?$CStringT@DV?$StrTraitMFC_DLL@DV?$ChTraitsCRT@D@ATL@@@@@ATL@@PAVCShape@@HPBDPAVCMapStringToPtr@@PAVCFootLibFolderMap@@PAVCDlgLog@@@Z 00607a90 f   DlgSaveFootprint.obj
 0002:0008bc40       ?GetMessageMap@CDlgSaveFootprint@@MBEPBUAFX_MSGMAP@@XZ 00607c40 f   DlgSaveFootprint.obj
 0002:0008bc90       ?GetThisMessageMap@CDlgSaveFootprint@@KGPBUAFX_MSGMAP@@XZ 00607c90 f   DlgSaveFootprint.obj
 0002:0008bcd0       ?OnCbnSelchangeComboLibs@CDlgSaveFootprint@@QAEXXZ 00607cd0 f   DlgSaveFootprint.obj
 0002:0008bd30       ?OnBnClickedOk@CDlgSaveFootprint@@QAEXXZ 00607d30 f   DlgSaveFootprint.obj
 0002:0008de80       ?HighlightVertex@CNetList@@QAEXPAVcnet@@HHHH@Z 00609e80 f   NetList.obj
 0002:0008e6d0       ??0CFootLibFolder@@QAE@XZ  0060a6d0 f i DlgSaveFootprint.obj
 0002:0008e7a0       ??_GCFootLibFolder@@QAEPAXI@Z 0060a7a0 f i DlgSaveFootprint.obj
 0002:0008e810       ?OnBnClickedButtonBrowse@CDlgSaveFootprint@@QAEXXZ 0060a810 f   DlgSaveFootprint.obj
 0002:0008eca0       ?InitFileList@CDlgSaveFootprint@@QAEXXZ 0060aca0 f   DlgSaveFootprint.obj
 0002:0008f1f0       ??8ATL@@YA_NPBDABV?$CStringT@DV?$StrTraitMFC_DLL@DV?$ChTraitsCRT@D@ATL@@@@@0@@Z 0060b1f0 f i DlgSaveFootprint.obj
 0002:0008f260       ??0?$CArray@VCFootLib@@ABV1@@@QAE@XZ 0060b260 f i DlgSaveFootprint.obj
 0002:0008f2f0       ??$strcat@$0BAA@@@YAPADAAY0BAA@DPBD@Z 0060b2f0 f i DlgSaveFootprint.obj
 0002:0008f360       ??1CFootLibFolder@@QAE@XZ  0060b360 f i DlgSaveFootprint.obj
 0002:0008f430       ??1?$CArray@VCFootLib@@ABV1@@@UAE@XZ 0060b430 f i DlgSaveFootprint.obj
 0002:0008f560       ?Serialize@?$CArray@VCFootLib@@ABV1@@@UAEXAAVCArchive@@@Z 0060b560 f i DlgSaveFootprint.obj
 0002:0008f630       ?Dump@?$CArray@VCFootLib@@ABV1@@@UBEXAAVCDumpContext@@@Z 0060b630 f i DlgSaveFootprint.obj
 0002:0008f710       ?AssertValid@?$CArray@VCFootLib@@ABV1@@@UBEXXZ 0060b710 f i DlgSaveFootprint.obj
 0002:0008f870       ??_G?$CArray@VCFootLib@@ABV1@@@UAEPAXI@Z 0060b870 f i DlgSaveFootprint.obj
 0002:0008f870       ??_E?$CArray@VCFootLib@@ABV1@@@UAEPAXI@Z 0060b870 f i DlgSaveFootprint.obj
 0002:0008f8e0       ??_GCFootLib@@QAEPAXI@Z    0060b8e0 f i DlgSaveFootprint.obj
 0002:0008f950       ??1CFootLib@@QAE@XZ        0060b950 f i DlgSaveFootprint.obj
 0002:0008fa20       ??1?$CArray@VCFootLibEntry@@ABV1@@@UAE@XZ 0060ba20 f i DlgSaveFootprint.obj
 0002:0008fb50       ?Serialize@?$CArray@VCFootLibEntry@@ABV1@@@UAEXAAVCArchive@@@Z 0060bb50 f i DlgSaveFootprint.obj
 0002:0008fc20       ?Dump@?$CArray@VCFootLibEntry@@ABV1@@@UBEXAAVCDumpContext@@@Z 0060bc20 f i DlgSaveFootprint.obj
 0002:0008fd00       ?AssertValid@?$CArray@VCFootLibEntry@@ABV1@@@UBEXXZ 0060bd00 f i DlgSaveFootprint.obj
 0002:0008fe60       ??_G?$CArray@VCFootLibEntry@@ABV1@@@UAEPAXI@Z 0060be60 f i DlgSaveFootprint.obj
 0002:0008fe60       ??_E?$CArray@VCFootLibEntry@@ABV1@@@UAEPAXI@Z 0060be60 f i DlgSaveFootprint.obj
 0002:0008fed0       ??_GCFootLibEntry@@QAEPAXI@Z 0060bed0 f i DlgSaveFootprint.obj
 0002:0008ff40       ??1CFootLibEntry@@QAE@XZ   0060bf40 f i DlgSaveFootprint.obj
 0002:0008ffc0       ?SetSize@?$CArray@VCFootLibEntry@@ABV1@@@QAEXHH@Z 0060bfc0 f i DlgSaveFootprint.obj
 0002:000906c0       ??0CFootLibEntry@@QAE@XZ   0060c6c0 f i DlgSaveFootprint.obj
 0002:000907e0       ??$SerializeElements@VCFootLibEntry@@@@YGXAAVCArchive@@PAVCFootLibEntry@@H@Z 0060c7e0 f i DlgSaveFootprint.obj
 0002:000909d0       ??$DumpElements@VCFootLibEntry@@@@YGXAAVCDumpContext@@PBVCFootLibEntry@@H@Z 0060c9d0 f i DlgSaveFootprint.obj
 0002:00090ac0       ?SetSize@?$CArray@VCFootLib@@ABV1@@@QAEXHH@Z 0060cac0 f i DlgSaveFootprint.obj
 0002:000911c0       ??0CFootLib@@QAE@XZ        0060d1c0 f i DlgSaveFootprint.obj
 0002:000912b0       ??0?$CArray@VCFootLibEntry@@ABV1@@@QAE@XZ 0060d2b0 f i DlgSaveFootprint.obj
 0002:00091340       ??$SerializeElements@VCFootLib@@@@YGXAAVCArchive@@PAVCFootLib@@H@Z 0060d340 f i DlgSaveFootprint.obj
 0002:00091530       ??$DumpElements@VCFootLib@@@@YGXAAVCDumpContext@@PBVCFootLib@@H@Z 0060d530 f i DlgSaveFootprint.obj
 0002:00091620       ?_GetBaseClass@CDlgSaveLib@@KGPAUCRuntimeClass@@XZ 0060d620 f   DlgSaveLib.obj
 0002:00091670       ?GetThisClass@CDlgSaveLib@@SGPAUCRuntimeClass@@XZ 0060d670 f   DlgSaveLib.obj
 0002:000916b0       ?GetRuntimeClass@CDlgSaveLib@@UBEPAUCRuntimeClass@@XZ 0060d6b0 f   DlgSaveLib.obj
 0002:000916f0       ??0CDlgSaveLib@@QAE@PAVCWnd@@@Z 0060d6f0 f   DlgSaveLib.obj
 0002:000917d0       ??_ECDlgSaveLib@@UAEPAXI@Z 0060d7d0 f i DlgSaveLib.obj
 0002:000917d0       ??_GCDlgSaveLib@@UAEPAXI@Z 0060d7d0 f i DlgSaveLib.obj
 0002:00091840       ??1CDlgSaveLib@@UAE@XZ     0060d840 f   DlgSaveLib.obj
 0002:00091910       ?DoDataExchange@CDlgSaveLib@@MAEXPAVCDataExchange@@@Z 0060d910 f   DlgSaveLib.obj
 0002:00091a70       ?GetMessageMap@CDlgSaveLib@@MBEPBUAFX_MSGMAP@@XZ 0060da70 f   DlgSaveLib.obj
 0002:00091ac0       ?GetThisMessageMap@CDlgSaveLib@@KGPBUAFX_MSGMAP@@XZ 0060dac0 f   DlgSaveLib.obj
 0002:00091b00       ?Initialize@CDlgSaveLib@@QAEXPAV?$CArray@V?$CStringT@DV?$StrTraitMFC_DLL@DV?$ChTraitsCRT@D@ATL@@@@@ATL@@ABV12@@@@Z 0060db00 f   DlgSaveLib.obj
 0002:00091c90       ?OnBnClickedDelete@CDlgSaveLib@@QAEXXZ 0060dc90 f   DlgSaveLib.obj
 0002:00091d40       ?OnBnClickedButtonTop@CDlgSaveLib@@QAEXXZ 0060dd40 f   DlgSaveLib.obj
 0002:00091f40       ?OnBnClickedButtonUp@CDlgSaveLib@@QAEXXZ 0060df40 f   DlgSaveLib.obj
 0002:00092150       ?OnBnClickedButtonDown@CDlgSaveLib@@QAEXXZ 0060e150 f   DlgSaveLib.obj
 0002:00092380       ?OnBnClickedButtonBottom@CDlgSaveLib@@QAEXXZ 0060e380 f   DlgSaveLib.obj
 0002:00092590       ?GetSelected@CDlgSaveLib@@QAEXXZ 0060e590 f   DlgSaveLib.obj
 0002:00092680       ?ResetSelected@CDlgSaveLib@@QAEXXZ 0060e680 f   DlgSaveLib.obj
 0002:00092780       ?_GetBaseClass@CDlgSetAreaHatch@@KGPAUCRuntimeClass@@XZ 0060e780 f   DlgSetAreaHatch.obj
 0002:000927d0       ?GetThisClass@CDlgSetAreaHatch@@SGPAUCRuntimeClass@@XZ 0060e7d0 f   DlgSetAreaHatch.obj
 0002:00092810       ?GetRuntimeClass@CDlgSetAreaHatch@@UBEPAUCRuntimeClass@@XZ 0060e810 f   DlgSetAreaHatch.obj
 0002:00092850       ??0CDlgSetAreaHatch@@QAE@PAVCWnd@@@Z 0060e850 f   DlgSetAreaHatch.obj
 0002:00092940       ??_GCDlgSetAreaHatch@@UAEPAXI@Z 0060e940 f i DlgSetAreaHatch.obj
 0002:00092940       ??_ECDlgSetAreaHatch@@UAEPAXI@Z 0060e940 f i DlgSetAreaHatch.obj
 0002:000929b0       ??1CDlgSetAreaHatch@@UAE@XZ 0060e9b0 f   DlgSetAreaHatch.obj
 0002:00092a90       ?DoDataExchange@CDlgSetAreaHatch@@MAEXPAVCDataExchange@@@Z 0060ea90 f   DlgSetAreaHatch.obj
 0002:00092c30       ?GetMessageMap@CDlgSetAreaHatch@@MBEPBUAFX_MSGMAP@@XZ 0060ec30 f   DlgSetAreaHatch.obj
 0002:00092c80       ?GetThisMessageMap@CDlgSetAreaHatch@@KGPBUAFX_MSGMAP@@XZ 0060ec80 f   DlgSetAreaHatch.obj
 0002:00092cc0       ?Init@CDlgSetAreaHatch@@QAEXH@Z 0060ecc0 f   DlgSetAreaHatch.obj
 0002:00092d10       ?_GetBaseClass@DlgSetSegmentWidth@@KGPAUCRuntimeClass@@XZ 0060ed10 f   DlgSetSegmentWidth.obj
 0002:00092d60       ?GetThisClass@DlgSetSegmentWidth@@SGPAUCRuntimeClass@@XZ 0060ed60 f   DlgSetSegmentWidth.obj
 0002:00092da0       ?GetRuntimeClass@DlgSetSegmentWidth@@UBEPAUCRuntimeClass@@XZ 0060eda0 f   DlgSetSegmentWidth.obj
 0002:00092de0       ??0DlgSetSegmentWidth@@QAE@PAVCWnd@@@Z 0060ede0 f   DlgSetSegmentWidth.obj
 0002:000930c0       ??_EDlgSetSegmentWidth@@UAEPAXI@Z 0060f0c0 f i DlgSetSegmentWidth.obj
 0002:000930c0       ??_GDlgSetSegmentWidth@@UAEPAXI@Z 0060f0c0 f i DlgSetSegmentWidth.obj
 0002:00093130       ??1DlgSetSegmentWidth@@UAE@XZ 0060f130 f   DlgSetSegmentWidth.obj
 0002:00093350       ?DoDataExchange@DlgSetSegmentWidth@@MAEXPAVCDataExchange@@@Z 0060f350 f   DlgSetSegmentWidth.obj
 0002:000937d0       ?GetMessageMap@DlgSetSegmentWidth@@MBEPBUAFX_MSGMAP@@XZ 0060f7d0 f   DlgSetSegmentWidth.obj
 0002:00093820       ?GetThisMessageMap@DlgSetSegmentWidth@@KGPBUAFX_MSGMAP@@XZ 0060f820 f   DlgSetSegmentWidth.obj
 0002:00093860       ?OnBnClickedDefNet@DlgSetSegmentWidth@@QAEXXZ 0060f860 f   DlgSetSegmentWidth.obj
 0002:000938a0       ?OnBnClickedApplyNet@DlgSetSegmentWidth@@QAEXXZ 0060f8a0 f   DlgSetSegmentWidth.obj
 0002:00093930       ?OnBnClickedApplyCon@DlgSetSegmentWidth@@QAEXXZ 0060f930 f   DlgSetSegmentWidth.obj
 0002:000939c0       ?OnBnClickedApplySeg@DlgSetSegmentWidth@@QAEXXZ 0060f9c0 f   DlgSetSegmentWidth.obj
 0002:00093a50       ?OnInitDialog@DlgSetSegmentWidth@@UAEHXZ 0060fa50 f   DlgSetSegmentWidth.obj
 0002:00093f20       ?OnBnClickedRadioDefVia@DlgSetSegmentWidth@@QAEXXZ 0060ff20 f   DlgSetSegmentWidth.obj
 0002:00094200       ?OnBnClickedRadioSetVia@DlgSetSegmentWidth@@QAEXXZ 00610200 f   DlgSetSegmentWidth.obj
 0002:000942a0       ?OnCbnSelchangeComboWidth@DlgSetSegmentWidth@@QAEXXZ 006102a0 f   DlgSetSegmentWidth.obj
 0002:000944f0       ?OnCbnEditchangeComboWidth@DlgSetSegmentWidth@@QAEXXZ 006104f0 f   DlgSetSegmentWidth.obj
 0002:000947f0       ?OnBnClickedRadioModTv@DlgSetSegmentWidth@@QAEXXZ 006107f0 f   DlgSetSegmentWidth.obj
 0002:00094840       ?OnBnClickedRadioModT@DlgSetSegmentWidth@@QAEXXZ 00610840 f   DlgSetSegmentWidth.obj
 0002:00094890       ?OnBnClickedRadioModV@DlgSetSegmentWidth@@QAEXXZ 00610890 f   DlgSetSegmentWidth.obj
 0002:000948e0       ?OnBnClickedRadioModify@DlgSetSegmentWidth@@QAEXXZ 006108e0 f   DlgSetSegmentWidth.obj
 0002:00094b30       ?_GetBaseClass@CDlgSetTraceWidths@@KGPAUCRuntimeClass@@XZ 00610b30 f   DlgSetTraceWidths.obj
 0002:00094b80       ?GetThisClass@CDlgSetTraceWidths@@SGPAUCRuntimeClass@@XZ 00610b80 f   DlgSetTraceWidths.obj
 0002:00094bc0       ?GetRuntimeClass@CDlgSetTraceWidths@@UBEPAUCRuntimeClass@@XZ 00610bc0 f   DlgSetTraceWidths.obj
 0002:00094c00       ??0CDlgSetTraceWidths@@QAE@PAVCWnd@@@Z 00610c00 f   DlgSetTraceWidths.obj
 0002:00094e90       ??_ECDlgSetTraceWidths@@UAEPAXI@Z 00610e90 f i DlgSetTraceWidths.obj
 0002:00094e90       ??_GCDlgSetTraceWidths@@UAEPAXI@Z 00610e90 f i DlgSetTraceWidths.obj
 0002:00094f00       ??1CDlgSetTraceWidths@@UAE@XZ 00610f00 f   DlgSetTraceWidths.obj
 0002:000950a0       ?DoDataExchange@CDlgSetTraceWidths@@MAEXPAVCDataExchange@@@Z 006110a0 f   DlgSetTraceWidths.obj
 0002:00095870       ?GetMessageMap@CDlgSetTraceWidths@@MBEPBUAFX_MSGMAP@@XZ 00611870 f   DlgSetTraceWidths.obj
 0002:000958c0       ?GetThisMessageMap@CDlgSetTraceWidths@@KGPBUAFX_MSGMAP@@XZ 006118c0 f   DlgSetTraceWidths.obj
 0002:00095900       ?OnBnClickedRadioDef@CDlgSetTraceWidths@@AAEXXZ 00611900 f   DlgSetTraceWidths.obj
 0002:00095960       ?OnBnClickedRadioSet@CDlgSetTraceWidths@@AAEXXZ 00611960 f   DlgSetTraceWidths.obj
 0002:000959b0       ?OnCbnSelchangeComboWidth@CDlgSetTraceWidths@@QAEXXZ 006119b0 f   DlgSetTraceWidths.obj
 0002:00096000       ?OnCbnEditchangeComboWidth@CDlgSetTraceWidths@@QAEXXZ 00612000 f   DlgSetTraceWidths.obj
 0002:00096630       ?OnBnClickedSetTrace@CDlgSetTraceWidths@@QAEXXZ 00612630 f   DlgSetTraceWidths.obj
 0002:00096680       ?OnBnClickedSetVias@CDlgSetTraceWidths@@QAEXXZ 00612680 f   DlgSetTraceWidths.obj
 0002:000966d0       ?SetFields@CDlgSetTraceWidths@@QAEXXZ 006126d0 f   DlgSetTraceWidths.obj
 0002:00096a60       ?OnBnClickedRadioRevertTraces@CDlgSetTraceWidths@@QAEXXZ 00612a60 f   DlgSetTraceWidths.obj
 0002:00096ab0       ?OnBnClickedRadioRevertVias@CDlgSetTraceWidths@@QAEXXZ 00612ab0 f   DlgSetTraceWidths.obj
 0002:00096b00       ?OnBnClickedRadioSetTraceWidth@CDlgSetTraceWidths@@QAEXXZ 00612b00 f   DlgSetTraceWidths.obj
 0002:00096b50       ?OnBnClickedRadioSetSize@CDlgSetTraceWidths@@QAEXXZ 00612b50 f   DlgSetTraceWidths.obj
 0002:00096b90       ?_GetBaseClass@CDlgShortcuts@@KGPAUCRuntimeClass@@XZ 00612b90 f   DlgShortcuts.obj
 0002:00096be0       ?GetThisClass@CDlgShortcuts@@SGPAUCRuntimeClass@@XZ 00612be0 f   DlgShortcuts.obj
 0002:00096c20       ?GetRuntimeClass@CDlgShortcuts@@UBEPAUCRuntimeClass@@XZ 00612c20 f   DlgShortcuts.obj
 0002:00096c60       ??0CDlgShortcuts@@QAE@PAVCWnd@@@Z 00612c60 f   DlgShortcuts.obj
 0002:00096cd0       ??_ECDlgShortcuts@@UAEPAXI@Z 00612cd0 f i DlgShortcuts.obj
 0002:00096cd0       ??_GCDlgShortcuts@@UAEPAXI@Z 00612cd0 f i DlgShortcuts.obj
 0002:00096d40       ??1CDlgShortcuts@@UAE@XZ   00612d40 f   DlgShortcuts.obj
 0002:00096da0       ?DoDataExchange@CDlgShortcuts@@MAEXPAVCDataExchange@@@Z 00612da0 f   DlgShortcuts.obj
 0002:00096e00       ?GetMessageMap@CDlgShortcuts@@MBEPBUAFX_MSGMAP@@XZ 00612e00 f   DlgShortcuts.obj
 0002:00096e50       ?GetThisMessageMap@CDlgShortcuts@@KGPBUAFX_MSGMAP@@XZ 00612e50 f   DlgShortcuts.obj
 0002:00096e90       ?_GetBaseClass@CDlgSideStyle@@KGPAUCRuntimeClass@@XZ 00612e90 f   DlgSideStyle.obj
 0002:00096ee0       ?GetThisClass@CDlgSideStyle@@SGPAUCRuntimeClass@@XZ 00612ee0 f   DlgSideStyle.obj
 0002:00096f20       ?GetRuntimeClass@CDlgSideStyle@@UBEPAUCRuntimeClass@@XZ 00612f20 f   DlgSideStyle.obj
 0002:00096f60       ??0CDlgSideStyle@@QAE@PAVCWnd@@@Z 00612f60 f   DlgSideStyle.obj
 0002:00096fd0       ??_GCDlgSideStyle@@UAEPAXI@Z 00612fd0 f i DlgSideStyle.obj
 0002:00096fd0       ??_ECDlgSideStyle@@UAEPAXI@Z 00612fd0 f i DlgSideStyle.obj
 0002:00097040       ??1CDlgSideStyle@@UAE@XZ   00613040 f   DlgSideStyle.obj
 0002:000970a0       ?DoDataExchange@CDlgSideStyle@@MAEXPAVCDataExchange@@@Z 006130a0 f   DlgSideStyle.obj
 0002:00097120       ?GetMessageMap@CDlgSideStyle@@MBEPBUAFX_MSGMAP@@XZ 00613120 f   DlgSideStyle.obj
 0002:00097170       ?GetThisMessageMap@CDlgSideStyle@@KGPBUAFX_MSGMAP@@XZ 00613170 f   DlgSideStyle.obj
 0002:000971b0       ?Initialize@CDlgSideStyle@@QAEXH@Z 006131b0 f   DlgSideStyle.obj
 0002:00097200       ?_GetBaseClass@CDlgSlot@@KGPAUCRuntimeClass@@XZ 00613200 f   DlgSlot.obj
 0002:00097250       ?GetThisClass@CDlgSlot@@SGPAUCRuntimeClass@@XZ 00613250 f   DlgSlot.obj
 0002:00097290       ?GetRuntimeClass@CDlgSlot@@UBEPAUCRuntimeClass@@XZ 00613290 f   DlgSlot.obj
 0002:000972d0       ??0CDlgSlot@@QAE@PAVCWnd@@@Z 006132d0 f   DlgSlot.obj
 0002:00097460       ??_ECDlgSlot@@UAEPAXI@Z    00613460 f i DlgSlot.obj
 0002:00097460       ??_GCDlgSlot@@UAEPAXI@Z    00613460 f i DlgSlot.obj
 0002:000974d0       ??1CDlgSlot@@UAE@XZ        006134d0 f   DlgSlot.obj
 0002:00097650       ?DoDataExchange@CDlgSlot@@MAEXPAVCDataExchange@@@Z 00613650 f   DlgSlot.obj
 0002:00097890       ?GetMessageMap@CDlgSlot@@MBEPBUAFX_MSGMAP@@XZ 00613890 f   DlgSlot.obj
 0002:000978e0       ?GetThisMessageMap@CDlgSlot@@KGPBUAFX_MSGMAP@@XZ 006138e0 f   DlgSlot.obj
 0002:00097920       ?Initialize@CDlgSlot@@QAEXHHHHHHHH@Z 00613920 f   DlgSlot.obj
 0002:000979d0       ?SetFields@CDlgSlot@@QAEXXZ 006139d0 f   DlgSlot.obj
 0002:00097d70       ?GetFields@CDlgSlot@@QAEXXZ 00613d70 f   DlgSlot.obj
 0002:00097fd0       ?OnCbnSelChangeCombo1@CDlgSlot@@QAEXXZ 00613fd0 f   DlgSlot.obj
 0002:00098070       ?OnBnClickedSet@CDlgSlot@@QAEXXZ 00614070 f   DlgSlot.obj
 0002:000980d0       ?OnBnClickedDrag@CDlgSlot@@QAEXXZ 006140d0 f   DlgSlot.obj
 0002:00098130       ?OnBnClickedPlated@CDlgSlot@@QAEXXZ 00614130 f   DlgSlot.obj
 0002:00098190       ?OnBnClickedUnplated@CDlgSlot@@QAEXXZ 00614190 f   DlgSlot.obj
 0002:000981f0       ?_GetBaseClass@CDlgValueText@@KGPAUCRuntimeClass@@XZ 006141f0 f   DlgValueText.obj
 0002:00098240       ?GetThisClass@CDlgValueText@@SGPAUCRuntimeClass@@XZ 00614240 f   DlgValueText.obj
 0002:00098280       ?GetRuntimeClass@CDlgValueText@@UBEPAUCRuntimeClass@@XZ 00614280 f   DlgValueText.obj
 0002:000982c0       ??0CDlgValueText@@QAE@PAVCWnd@@@Z 006142c0 f   DlgValueText.obj
 0002:00098450       ??_GCDlgValueText@@UAEPAXI@Z 00614450 f i DlgValueText.obj
 0002:00098450       ??_ECDlgValueText@@UAEPAXI@Z 00614450 f i DlgValueText.obj
 0002:000984c0       ??1CDlgValueText@@UAE@XZ   006144c0 f   DlgValueText.obj
 0002:00098640       ?DoDataExchange@CDlgValueText@@MAEXPAVCDataExchange@@@Z 00614640 f   DlgValueText.obj
 0002:000989d0       ?Initialize@CDlgValueText@@QAEXPAVCPartList@@PAVcpart@@@Z 006149d0 f   DlgValueText.obj
 0002:00098ac0       ?GetMessageMap@CDlgValueText@@MBEPBUAFX_MSGMAP@@XZ 00614ac0 f   DlgValueText.obj
 0002:00098b10       ?GetThisMessageMap@CDlgValueText@@KGPBUAFX_MSGMAP@@XZ 00614b10 f   DlgValueText.obj
 0002:00098b50       ?OnBnClickedRadioSet@CDlgValueText@@QAEXXZ 00614b50 f   DlgValueText.obj
 0002:00098bb0       ?OnBnClickedRadioDef@CDlgValueText@@QAEXXZ 00614bb0 f   DlgValueText.obj
 0002:00098c10       ?OnEnChangeEditCharHeight@CDlgValueText@@QAEXXZ 00614c10 f   DlgValueText.obj
 0002:00098ec0       ?GetFields@CDlgValueText@@QAEXXZ 00614ec0 f   DlgValueText.obj
 0002:000991a0       ?SetFields@CDlgValueText@@QAEXXZ 006151a0 f   DlgValueText.obj
 0002:00099510       ?OnCbnSelchangeComboRefTextUnits@CDlgValueText@@QAEXXZ 00615510 f   DlgValueText.obj
 0002:000995b0       ?_GetBaseClass@CDlgVia@@KGPAUCRuntimeClass@@XZ 006155b0 f   DlgVia.obj
 0002:00099600       ?GetThisClass@CDlgVia@@SGPAUCRuntimeClass@@XZ 00615600 f   DlgVia.obj
 0002:00099640       ?GetRuntimeClass@CDlgVia@@UBEPAUCRuntimeClass@@XZ 00615640 f   DlgVia.obj
 0002:00099680       ??0CDlgVia@@QAE@PAVCWnd@@@Z 00615680 f   DlgVia.obj
 0002:00099760       ??_ECDlgVia@@UAEPAXI@Z     00615760 f i DlgVia.obj
 0002:00099760       ??_GCDlgVia@@UAEPAXI@Z     00615760 f i DlgVia.obj
 0002:000997d0       ??1CDlgVia@@UAE@XZ         006157d0 f   DlgVia.obj
 0002:000998a0       ?DoDataExchange@CDlgVia@@MAEXPAVCDataExchange@@@Z 006158a0 f   DlgVia.obj
 0002:0009a060       ?Initialize@CDlgVia@@QAEXHHPAV?$CArray@HABH@@0HHH@Z 00616060 f   DlgVia.obj
 0002:0009a100       ?GetMessageMap@CDlgVia@@MBEPBUAFX_MSGMAP@@XZ 00616100 f   DlgVia.obj
 0002:0009a150       ?GetThisMessageMap@CDlgVia@@KGPBUAFX_MSGMAP@@XZ 00616150 f   DlgVia.obj
 0002:0009a190       ?OnChange@CDlgVia@@QAEXXZ  00616190 f   DlgVia.obj
 0002:0009a490       ?_GetBaseClass@CDlgViaGrig@@KGPAUCRuntimeClass@@XZ 00616490 f   DlgViaGrig.obj
 0002:0009a4e0       ?GetThisClass@CDlgViaGrig@@SGPAUCRuntimeClass@@XZ 006164e0 f   DlgViaGrig.obj
 0002:0009a520       ?GetRuntimeClass@CDlgViaGrig@@UBEPAUCRuntimeClass@@XZ 00616520 f   DlgViaGrig.obj
 0002:0009a560       ??0CDlgViaGrig@@QAE@PAVCWnd@@@Z 00616560 f   DlgViaGrig.obj
 0002:0009a700       ??_ECDlgViaGrig@@UAEPAXI@Z 00616700 f i DlgViaGrig.obj
 0002:0009a700       ??_GCDlgViaGrig@@UAEPAXI@Z 00616700 f i DlgViaGrig.obj
 0002:0009a770       ??1CDlgViaGrig@@UAE@XZ     00616770 f   DlgViaGrig.obj
 0002:0009a8b0       ?Initialize@CDlgViaGrig@@QAEXHHHH@Z 006168b0 f   DlgViaGrig.obj
 0002:0009a9b0       ?DoDataExchange@CDlgViaGrig@@MAEXPAVCDataExchange@@@Z 006169b0 f   DlgViaGrig.obj
 0002:0009ac50       ?GetFields@CDlgViaGrig@@QAEXXZ 00616c50 f   DlgViaGrig.obj
 0002:0009b010       ?SetFields@CDlgViaGrig@@QAEXXZ 00617010 f   DlgViaGrig.obj
 0002:0009b460       ?OnCbnSelchangeComboUnits@CDlgViaGrig@@QAEXXZ 00617460 f   DlgViaGrig.obj
 0002:0009b4e0       ?GetMessageMap@CDlgViaGrig@@MBEPBUAFX_MSGMAP@@XZ 006174e0 f   DlgViaGrig.obj
 0002:0009b530       ?GetThisMessageMap@CDlgViaGrig@@KGPBUAFX_MSGMAP@@XZ 00617530 f   DlgViaGrig.obj
 0002:0009b570       ?_GetBaseClass@CDlgWizQuad@@KGPAUCRuntimeClass@@XZ 00617570 f   DlgWizQuad.obj
 0002:0009b5c0       ?GetThisClass@CDlgWizQuad@@SGPAUCRuntimeClass@@XZ 006175c0 f   DlgWizQuad.obj
 0002:0009b600       ?GetRuntimeClass@CDlgWizQuad@@UBEPAUCRuntimeClass@@XZ 00617600 f   DlgWizQuad.obj
 0002:0009b640       ??0CDlgWizQuad@@QAE@PAVCWnd@@@Z 00617640 f   DlgWizQuad.obj
 0002:0009b9e0       ??_GCDlgWizQuad@@UAEPAXI@Z 006179e0 f i DlgWizQuad.obj
 0002:0009b9e0       ??_ECDlgWizQuad@@UAEPAXI@Z 006179e0 f i DlgWizQuad.obj
 0002:0009ba50       ??1CDlgWizQuad@@UAE@XZ     00617a50 f   DlgWizQuad.obj
 0002:0009bde0       ?DoDataExchange@CDlgWizQuad@@MAEXPAVCDataExchange@@@Z 00617de0 f   DlgWizQuad.obj
 0002:0009c700       ?Initialize@CDlgWizQuad@@QAEXPAVCMapStringToPtr@@PAVCFootLibFolderMap@@HPAVCDlgLog@@@Z 00618700 f   DlgWizQuad.obj
 0002:0009c780       ?GetMessageMap@CDlgWizQuad@@MBEPBUAFX_MSGMAP@@XZ 00618780 f   DlgWizQuad.obj
 0002:0009c7d0       ?GetThisMessageMap@CDlgWizQuad@@KGPBUAFX_MSGMAP@@XZ 006187d0 f   DlgWizQuad.obj
 0002:0009c810       ?OnBnClickedRadioC1@CDlgWizQuad@@AAEXXZ 00618810 f   DlgWizQuad.obj
 0002:0009c890       ?OnBnClickedRadioG1@CDlgWizQuad@@AAEXXZ 00618890 f   DlgWizQuad.obj
 0002:0009c910       ?OnBnClickedRadioZ1@CDlgWizQuad@@AAEXXZ 00618910 f   DlgWizQuad.obj
 0002:0009c990       ?OnBnClickedRadioC2@CDlgWizQuad@@AAEXXZ 00618990 f   DlgWizQuad.obj
 0002:0009ca10       ?OnBnClickedRadioG2@CDlgWizQuad@@AAEXXZ 00618a10 f   DlgWizQuad.obj
 0002:0009ca90       ?OnBnClickedRadioZ2@CDlgWizQuad@@AAEXXZ 00618a90 f   DlgWizQuad.obj
 0002:0009cb10       ?OnCbnSelchangeComboWizShape@CDlgWizQuad@@AAEXXZ 00618b10 f   DlgWizQuad.obj
 0002:0009cff0       ?OnEnChangeEditWizNpins@CDlgWizQuad@@AAEXXZ 00618ff0 f   DlgWizQuad.obj
 0002:0009d390       ?OnEnChangeEditWizHpins@CDlgWizQuad@@AAEXXZ 00619390 f   DlgWizQuad.obj
 0002:0009d610       ?OnEnChangeEditWizX@CDlgWizQuad@@AAEXXZ 00619610 f   DlgWizQuad.obj
 0002:0009d7e0       ?OnEnChangeEditWizY@CDlgWizQuad@@AAEXXZ 006197e0 f   DlgWizQuad.obj
 0002:0009d940       ?OnEnChangeEditWizR@CDlgWizQuad@@AAEXXZ 00619940 f   DlgWizQuad.obj
 0002:0009daa0       ?OnEnChangeEditE@CDlgWizQuad@@AAEXXZ 00619aa0 f   DlgWizQuad.obj
 0002:0009dbf0       ?OnEnChangeEditC1@CDlgWizQuad@@AAEXXZ 00619bf0 f   DlgWizQuad.obj
 0002:0009dd70       ?OnEnChangeEditG1@CDlgWizQuad@@AAEXXZ 00619d70 f   DlgWizQuad.obj
 0002:0009def0       ?OnEnChangeEditZ1@CDlgWizQuad@@AAEXXZ 00619ef0 f   DlgWizQuad.obj
 0002:0009e070       ?OnEnChangeEditC2@CDlgWizQuad@@AAEXXZ 0061a070 f   DlgWizQuad.obj
 0002:0009e1f0       ?OnEnChangeEditG2@CDlgWizQuad@@AAEXXZ 0061a1f0 f   DlgWizQuad.obj
 0002:0009e370       ?OnEnChangeEditZ2@CDlgWizQuad@@AAEXXZ 0061a370 f   DlgWizQuad.obj
 0002:0009e4f0       ?ReviseDependentVariables@CDlgWizQuad@@AAEXXZ 0061a4f0 f   DlgWizQuad.obj
 0002:0009ec50       ?OnCbnSelchangeComboWizType@CDlgWizQuad@@AAEXXZ 0061ac50 f   DlgWizQuad.obj
 0002:0009fa30       ?OnCbnSelchangeComboWizUnits@CDlgWizQuad@@AAEXXZ 0061ba30 f   DlgWizQuad.obj
 0002:0009ff00       ?FormatDimensionString@CDlgWizQuad@@AAEXPAV?$CStringT@DV?$StrTraitMFC_DLL@DV?$ChTraitsCRT@D@ATL@@@@@ATL@@HH@Z 0061bf00 f   DlgWizQuad.obj
 0002:000a0000       ?OnBnClickedButtonSave@CDlgWizQuad@@AAEXXZ 0061c000 f   DlgWizQuad.obj
 0002:000a01a0       ?OnCbnSelchangeComboPin1@CDlgWizQuad@@AAEXXZ 0061c1a0 f   DlgWizQuad.obj
 0002:000a0210       ?OnEnChangeEditWizHd@CDlgWizQuad@@AAEXXZ 0061c210 f   DlgWizQuad.obj
 0002:000a0360       ?OnBnClickedWizButtonExit@CDlgWizQuad@@AAEXXZ 0061c360 f   DlgWizQuad.obj
 0002:000a03d0       ?OnBnClickedButton2@CDlgWizQuad@@AAEXXZ 0061c3d0 f   DlgWizQuad.obj
 0002:000a0580       ?MakeFootprint@CDlgWizQuad@@QAEHXZ 0061c580 f   DlgWizQuad.obj
 0002:000a34b0       ?Copy@CNetList@@QAEXPAV1@@Z 0061f4b0 f   NetList.obj
 0002:000a3af0       ?RemoveOrphanBranches@CNetList@@QAEHPAVcnet@@HHHH@Z 0061faf0 f   NetList.obj
 0002:000a4080       ?_GetBaseClass@CDlg_OpenScad@@KGPAUCRuntimeClass@@XZ 00620080 f   Dlg_OpenScad.obj
 0002:000a40d0       ?GetThisClass@CDlg_OpenScad@@SGPAUCRuntimeClass@@XZ 006200d0 f   Dlg_OpenScad.obj
 0002:000a4110       ?GetRuntimeClass@CDlg_OpenScad@@UBEPAUCRuntimeClass@@XZ 00620110 f   Dlg_OpenScad.obj
 0002:000a4150       ??0CDlg_OpenScad@@QAE@PAVCWnd@@@Z 00620150 f   Dlg_OpenScad.obj
 0002:000a48d0       ??_GCDlg_OpenScad@@UAEPAXI@Z 006208d0 f i Dlg_OpenScad.obj
 0002:000a48d0       ??_ECDlg_OpenScad@@UAEPAXI@Z 006208d0 f i Dlg_OpenScad.obj
 0002:000a4940       ??1CDlg_OpenScad@@UAE@XZ   00620940 f   Dlg_OpenScad.obj
 0002:000a4da0       ?DoDataExchange@CDlg_OpenScad@@MAEXPAVCDataExchange@@@Z 00620da0 f   Dlg_OpenScad.obj
 0002:000a5bb0       ?GetMessageMap@CDlg_OpenScad@@MBEPBUAFX_MSGMAP@@XZ 00621bb0 f   Dlg_OpenScad.obj
 0002:000a5c00       ?GetThisMessageMap@CDlg_OpenScad@@KGPBUAFX_MSGMAP@@XZ 00621c00 f   Dlg_OpenScad.obj
 0002:000a5c40       ?Initialize@CDlg_OpenScad@@QAEXPAV?$CStringT@DV?$StrTraitMFC_DLL@DV?$ChTraitsCRT@D@ATL@@@@@ATL@@00H@Z 00621c40 f   Dlg_OpenScad.obj
 0002:000a5f40       ?SetFields@CDlg_OpenScad@@QAEXXZ 00621f40 f   Dlg_OpenScad.obj
 0002:000a5f80       ?GetFields@CDlg_OpenScad@@QAEXXZ 00621f80 f   Dlg_OpenScad.obj
 0002:000a5fc0       ?GenerateOpenscadData@CDlg_OpenScad@@QAEPAV?$CStringT@DV?$StrTraitMFC_DLL@DV?$ChTraitsCRT@D@ATL@@@@@ATL@@PAV23@@Z 00621fc0 f   Dlg_OpenScad.obj
 0002:000a7600       ?SetSize@?$CArray@PAUgpc_polygon@@ABQAU1@@@QAEXHH@Z 00623600 f i NetList.obj
 0002:000a7b90       ?InterpretDescriptor@CDlg_OpenScad@@IAEXPAV?$CStringT@DV?$StrTraitMFC_DLL@DV?$ChTraitsCRT@D@ATL@@@@@ATL@@@Z 00623b90 f   Dlg_OpenScad.obj
 0002:000a8fb0       ?SetSize@?$CArray@PAVdl_element@@ABQAV1@@@QAEXHH@Z 00624fb0 f i NetList.obj
 0002:000a94b0       ?OnStnClickedStaticLayer1@CDlg_OpenScad@@QAEXXZ 006254b0 f   Dlg_OpenScad.obj
 0002:000a94f0       ?OnEnChangeMatrixX@CDlg_OpenScad@@QAEXXZ 006254f0 f   Dlg_OpenScad.obj
 0002:000a9740       ?OnEnChangeMatrixY@CDlg_OpenScad@@QAEXXZ 00625740 f   Dlg_OpenScad.obj
 0002:000a9990       ?OnEnChangeMatrixZ@CDlg_OpenScad@@QAEXXZ 00625990 f   Dlg_OpenScad.obj
 0002:000a9be0       ?OnEnChangeExtrusionValue@CDlg_OpenScad@@QAEXXZ 00625be0 f   Dlg_OpenScad.obj
 0002:000a9dc0       ?OnEnChangeExtrusionRot@CDlg_OpenScad@@QAEXXZ 00625dc0 f   Dlg_OpenScad.obj
 0002:000aa040       ?OnCbnSelchangeComboResolution@CDlg_OpenScad@@QAEXXZ 00626040 f   Dlg_OpenScad.obj
 0002:000aa080       ?OnEnChangeExtrusionScale@CDlg_OpenScad@@QAEXXZ 00626080 f   Dlg_OpenScad.obj
 0002:000aa0c0       ?ParseStringFields@@YAHPAV?$CStringT@DV?$StrTraitMFC_DLL@DV?$ChTraitsCRT@D@ATL@@@@@ATL@@PAV?$CArray@V?$CStringT@DV?$StrTraitMFC_DLL@DV?$ChTraitsCRT@D@ATL@@@@@ATL@@ABV12@@@@Z 006260c0 f   file_io.obj
 0002:000aa420       ?ParseKeyString@@YAHPAV?$CStringT@DV?$StrTraitMFC_DLL@DV?$ChTraitsCRT@D@ATL@@@@@ATL@@0PAV?$CArray@V?$CStringT@DV?$StrTraitMFC_DLL@DV?$ChTraitsCRT@D@ATL@@@@@ATL@@ABV12@@@@Z 00626420 f   file_io.obj
 0002:000aaba0       ?ParsePin@@YAHPAV?$CStringT@DV?$StrTraitMFC_DLL@DV?$ChTraitsCRT@D@ATL@@@@@ATL@@0@Z 00626ba0 f   file_io.obj
 0002:000aae00       ?ParseMultiPin@@YAHPAV?$CStringT@DV?$StrTraitMFC_DLL@DV?$ChTraitsCRT@D@ATL@@@@@ATL@@PAV?$CArray@V?$CStringT@DV?$StrTraitMFC_DLL@DV?$ChTraitsCRT@D@ATL@@@@@ATL@@ABV12@@@@Z 00626e00 f   file_io.obj
 0002:000ab5c0       ?my_atoi@@YAHPAV?$CStringT@DV?$StrTraitMFC_DLL@DV?$ChTraitsCRT@D@ATL@@@@@ATL@@@Z 006275c0 f   file_io.obj
 0002:000abcd0       ?my_atof@@YANPAV?$CStringT@DV?$StrTraitMFC_DLL@DV?$ChTraitsCRT@D@ATL@@@@@ATL@@@Z 00627cd0 f   file_io.obj
 0002:000ac4a0       ?IndexLib@CFootLibFolder@@QAEXPAV?$CStringT@DV?$StrTraitMFC_DLL@DV?$ChTraitsCRT@D@ATL@@@@@ATL@@PAVCDlgLog@@@Z 006284a0 f   FootprintLib.obj
 0002:000ad480       ?IndexAllLibs@CFootLibFolder@@QAEXPAV?$CStringT@DV?$StrTraitMFC_DLL@DV?$ChTraitsCRT@D@ATL@@@@@ATL@@PAVCDlgLog@@@Z 00629480 f   FootprintLib.obj
 0002:000adb30       ?Clear@CFootLibFolder@@QAEXXZ 00629b30 f   FootprintLib.obj
 0002:000adbb0       ?GetNumLibs@CFootLibFolder@@QAEHXZ 00629bb0 f   FootprintLib.obj
 0002:000adc10       ?GetFullPath@CFootLibFolder@@QAEPAV?$CStringT@DV?$StrTraitMFC_DLL@DV?$ChTraitsCRT@D@ATL@@@@@ATL@@XZ 00629c10 f   FootprintLib.obj
 0002:000adc50       ?GetFootprintInfo@CFootLibFolder@@QAEHPAV?$CStringT@DV?$StrTraitMFC_DLL@DV?$ChTraitsCRT@D@ATL@@@@@ATL@@0PAH1011@Z 00629c50 f   FootprintLib.obj
 0002:000ae190       ?SearchFileName@CFootLibFolder@@QAEHPAV?$CStringT@DV?$StrTraitMFC_DLL@DV?$ChTraitsCRT@D@ATL@@@@@ATL@@@Z 0062a190 f   FootprintLib.obj
 0002:000ae240       ?GetLibraryFullPath@CFootLibFolder@@QAEPAV?$CStringT@DV?$StrTraitMFC_DLL@DV?$ChTraitsCRT@D@ATL@@@@@ATL@@H@Z 0062a240 f   FootprintLib.obj
 0002:000ae2a0       ?GetLibraryFileName@CFootLibFolder@@QAEPAV?$CStringT@DV?$StrTraitMFC_DLL@DV?$ChTraitsCRT@D@ATL@@@@@ATL@@H@Z 0062a2a0 f   FootprintLib.obj
 0002:000ae300       ?GetNumFootprints@CFootLibFolder@@QAEHH@Z 0062a300 f   FootprintLib.obj
 0002:000ae370       ?GetFootprintName@CFootLibFolder@@QAEPAV?$CStringT@DV?$StrTraitMFC_DLL@DV?$ChTraitsCRT@D@ATL@@@@@ATL@@HH@Z 0062a370 f   FootprintLib.obj
 0002:000ae3e0       ?GetFootprintPackage@CFootLibFolder@@QAEPAV?$CStringT@DV?$StrTraitMFC_DLL@DV?$ChTraitsCRT@D@ATL@@@@@ATL@@HH@Z 0062a3e0 f   FootprintLib.obj
 0002:000ae450       ?GetFootprintOffset@CFootLibFolder@@QAEHHH@Z 0062a450 f   FootprintLib.obj
 0002:000ae4c0       ??0CFootLibFolderMap@@QAE@XZ 0062a4c0 f   FootprintLib.obj
 0002:000ae550       ??1CFootLibFolderMap@@QAE@XZ 0062a550 f   FootprintLib.obj
 0002:000ae750       ?AddFolder@CFootLibFolderMap@@QAEPAVCFootLibFolder@@PAV?$CStringT@DV?$StrTraitMFC_DLL@DV?$ChTraitsCRT@D@ATL@@@@@ATL@@PAV2@@Z 0062a750 f   FootprintLib.obj
 0002:000ae970       ?GetFolder@CFootLibFolderMap@@QAEPAVCFootLibFolder@@PAV?$CStringT@DV?$StrTraitMFC_DLL@DV?$ChTraitsCRT@D@ATL@@@@@ATL@@PAVCDlgLog@@@Z 0062a970 f   FootprintLib.obj
 0002:000aec90       ?FolderIndexed@CFootLibFolderMap@@QAEHPAV?$CStringT@DV?$StrTraitMFC_DLL@DV?$ChTraitsCRT@D@ATL@@@@@ATL@@@Z 0062ac90 f   FootprintLib.obj
 0002:000aee50       ?SetDefaultFolder@CFootLibFolderMap@@QAEXPAV?$CStringT@DV?$StrTraitMFC_DLL@DV?$ChTraitsCRT@D@ATL@@@@@ATL@@@Z 0062ae50 f   FootprintLib.obj
 0002:000aeec0       ?SetLastFolder@CFootLibFolderMap@@QAEXPAV?$CStringT@DV?$StrTraitMFC_DLL@DV?$ChTraitsCRT@D@ATL@@@@@ATL@@@Z 0062aec0 f   FootprintLib.obj
 0002:000aef30       ?GetDefaultFolder@CFootLibFolderMap@@QAEPAV?$CStringT@DV?$StrTraitMFC_DLL@DV?$ChTraitsCRT@D@ATL@@@@@ATL@@XZ 0062af30 f   FootprintLib.obj
 0002:000aef70       ?GetLastFolder@CFootLibFolderMap@@QAEPAV?$CStringT@DV?$StrTraitMFC_DLL@DV?$ChTraitsCRT@D@ATL@@@@@ATL@@XZ 0062af70 f   FootprintLib.obj
 0002:000aeff0       ?GetSize@?$CArray@VCFootLibEntry@@ABV1@@@QBEHXZ 0062aff0 f i FootprintLib.obj
 0002:000af030       ??A?$CArray@VCFootLibEntry@@ABV1@@@QAEAAVCFootLibEntry@@H@Z 0062b030 f i FootprintLib.obj
 0002:000af090       ?GetSize@?$CArray@VCFootLib@@ABV1@@@QBEHXZ 0062b090 f i FootprintLib.obj
 0002:000af0d0       ?RemoveAll@?$CArray@VCFootLib@@ABV1@@@QAEXXZ 0062b0d0 f i FootprintLib.obj
 0002:000af130       ?ElementAt@?$CArray@VCFootLibEntry@@ABV1@@@QAEAAVCFootLibEntry@@H@Z 0062b130 f i FootprintLib.obj
 0002:000af1e0       ?CreateObject@CFootprintView@@SGPAVCObject@@XZ 0062b1e0 f   FootprintView.obj
 0002:000af2d0       ?_GetBaseClass@CFootprintView@@KGPAUCRuntimeClass@@XZ 0062b2d0 f   FootprintView.obj
 0002:000af320       ?GetThisClass@CFootprintView@@SGPAUCRuntimeClass@@XZ 0062b320 f   FootprintView.obj
 0002:000af360       ?GetRuntimeClass@CFootprintView@@UBEPAUCRuntimeClass@@XZ 0062b360 f   FootprintView.obj
 0002:000af3a0       ?GetMessageMap@CFootprintView@@MBEPBUAFX_MSGMAP@@XZ 0062b3a0 f   FootprintView.obj
 0002:000af3f0       ?GetThisMessageMap@CFootprintView@@KGPBUAFX_MSGMAP@@XZ 0062b3f0 f   FootprintView.obj
 0002:000af430       ??0CFootprintView@@QAE@XZ  0062b430 f   FootprintView.obj
 0002:000af9c0       ??_ECFootprintView@@UAEPAXI@Z 0062b9c0 f i FootprintView.obj
 0002:000af9c0       ??_GCFootprintView@@UAEPAXI@Z 0062b9c0 f i FootprintView.obj
 0002:000afa30       ?InitInstance@CFootprintView@@QAEXPAVCShape@@@Z 0062ba30 f   FootprintView.obj
 0002:000afe80       ?InitializeView@CFootprintView@@QAEXXZ 0062be80 f   FootprintView.obj
 0002:000afff0       ??1CFootprintView@@UAE@XZ  0062bff0 f   FootprintView.obj
 0002:000b0150       ?PreCreateWindow@CFootprintView@@UAEHAAUtagCREATESTRUCTA@@@Z 0062c150 f   FootprintView.obj
 0002:000b01b0       ?OnDraw@CFootprintView@@UAEXPAVCDC@@@Z 0062c1b0 f   FootprintView.obj
 0002:000b0ba0       ?OnPreparePrinting@CFootprintView@@MAEHPAUCPrintInfo@@@Z 0062cba0 f   FootprintView.obj
 0002:000b0c00       ?OnBeginPrinting@CFootprintView@@MAEXPAVCDC@@PAUCPrintInfo@@@Z 0062cc00 f   FootprintView.obj
 0002:000b0c40       ?OnEndPrinting@CFootprintView@@MAEXPAVCDC@@PAUCPrintInfo@@@Z 0062cc40 f   FootprintView.obj
 0002:000b0c80       ?AssertValid@CFootprintView@@UBEXXZ 0062cc80 f   FootprintView.obj
 0002:000b0cd0       ?Dump@CFootprintView@@UBEXAAVCDumpContext@@@Z 0062ccd0 f   FootprintView.obj
 0002:000b0d30       ?GetDocument@CFootprintView@@QAEPAVCFreePcbDoc@@XZ 0062cd30 f   FootprintView.obj
 0002:000b0dd0       ?OnSize@CFootprintView@@IAEXIHH@Z 0062cdd0 f   FootprintView.obj
 0002:000b11a0       ?MoveToLayer@CFootprintView@@QAEXH@Z 0062d1a0 f   FootprintView.obj
 0002:000b1310       ?SelectSimilar@CFootprintView@@QAEXH@Z 0062d310 f   FootprintView.obj
 0002:000b1530       ?MoveGroup@CFootprintView@@QAEXHH@Z 0062d530 f   FootprintView.obj
 0002:000b1910       ?RotateGroup@CFootprintView@@QAEXH@Z 0062d910 f   FootprintView.obj
 0002:000b20c0       ?MirrorGroup@CFootprintView@@QAEXXZ 0062e0c0 f   FootprintView.obj
 0002:000b2a50       ?DuplicateGroup@CFootprintView@@QAEXXZ 0062ea50 f   FootprintView.obj
 0002:000b3210       ?GroupDelete@CFootprintView@@QAEXXZ 0062f210 f   FootprintView.obj
 0002:000b36c0       ?HighlightGroup@CFootprintView@@QAEXXZ 0062f6c0 f   FootprintView.obj
 0002:000b3960       ?SelectItemsInRect@CFootprintView@@QAEXVCRect@@@Z 0062f960 f   FootprintView.obj
 0002:000b45f0       ?OnLButtonUp@CFootprintView@@IAEXIVCPoint@@@Z 006305f0 f   FootprintView.obj
 0002:000b5e60       ?TestAreaIntersections@CNetList@@QAEHPAVcnet@@H@Z 00631e60 f   NetList.obj
 0002:000b6470       ?OnLButtonDown@CFootprintView@@IAEXIVCPoint@@@Z 00632470 f   FootprintView.obj
 0002:000b6960       ?OnLButtonDblClk@CFootprintView@@IAEXIVCPoint@@@Z 00632960 f   FootprintView.obj
 0002:000b69c0       ?OnRButtonDown@CFootprintView@@IAEXIVCPoint@@@Z 006329c0 f   FootprintView.obj
 0002:000b7030       ?OnSysKeyDown@CFootprintView@@IAEXIII@Z 00633030 f   FootprintView.obj
 0002:000b70c0       ?OnSysKeyUp@CFootprintView@@IAEXIII@Z 006330c0 f   FootprintView.obj
 0002:000b7130       ?OnKeyDown@CFootprintView@@IAEXIII@Z 00633130 f   FootprintView.obj
 0002:000b71b0       ?HandleKeyPress@CFootprintView@@QAEXIII@Z 006331b0 f   FootprintView.obj
 0002:000b9660       ?TestAreaIntersections@CNetList@@QAEHPAVcnet@@HH@Z 00635660 f   NetList.obj
 0002:000b9f90       ?GetX@DlgEditBoardCorner@@QAEHXZ 00635f90 f i FootprintView.obj
 0002:000b9fd0       ?GetY@DlgEditBoardCorner@@QAEHXZ 00635fd0 f i FootprintView.obj
 0002:000ba010       ?OnMouseMove@CFootprintView@@IAEXIVCPoint@@@Z 00636010 f   FootprintView.obj
 0002:000ba3d0       ?SetDCToWorldCoords@CFootprintView@@QAEHPAVCDC@@@Z 006363d0 f   FootprintView.obj
 0002:000ba470       ?WindowToPCB@CFootprintView@@QAE?AVCPoint@@V2@@Z 00636470 f   FootprintView.obj
 0002:000ba590       ?ScreenToPCB@CFootprintView@@QAE?AVCPoint@@V2@@Z 00636590 f   FootprintView.obj
 0002:000ba6b0       ?PCBToScreen@CFootprintView@@QAE?AVCPoint@@V2@@Z 006366b0 f   FootprintView.obj
 0002:000ba7f0       ?SetCursorMode@CFootprintView@@QAEXH@Z 006367f0 f   FootprintView.obj
 0002:000ba870       ?SetFKText@CFootprintView@@QAEXH@Z 00636870 f   FootprintView.obj
 0002:000bb200       ?DrawBottomPane@CFootprintView@@QAEXXZ 00637200 f   FootprintView.obj
 0002:000bb580       ?ShowSelectStatus@CFootprintView@@QAEHXZ 00637580 f   FootprintView.obj
 0002:000bc390       ?ShowCursor@CFootprintView@@QAEHXZ 00638390 f   FootprintView.obj
 0002:000bc630       ?OnMouseWheel@CFootprintView@@IAEHIFVCPoint@@@Z 00638630 f   FootprintView.obj
 0002:000bd030       ?CancelSelection@CFootprintView@@QAEXXZ 00639030 f   FootprintView.obj
 0002:000bd2a0       ?OnContextMenu@CFootprintView@@QAEXPAVCWnd@@VCPoint@@@Z 006392a0 f   FootprintView.obj
 0002:000bdaf0       ?OnPadDelete@CFootprintView@@QAEXH@Z 00639af0 f   FootprintView.obj
 0002:000bdbc0       ?OnPadEdit@CFootprintView@@QAEXH@Z 00639bc0 f   FootprintView.obj
 0002:000bded0       ?OnPadMove@CFootprintView@@QAEXHH@Z 00639ed0 f   FootprintView.obj
 0002:000be080       ?OnGroupMove@CFootprintView@@QAEXXZ 0063a080 f   FootprintView.obj
 0002:000be970       ?OnRefMove@CFootprintView@@QAEXXZ 0063a970 f   FootprintView.obj
 0002:000bead0       ?OnPolylineSetOrigin@CFootprintView@@QAEXXZ 0063aad0 f   FootprintView.obj
 0002:000becf0       ?OnPolylineOpenScad@CFootprintView@@QAEXXZ 0063acf0 f   FootprintView.obj
 0002:000bf220       ?OnPolylineDelete@CFootprintView@@QAEXXZ 0063b220 f   FootprintView.obj
 0002:000bf300       ?OnPolylineCornerMove@CFootprintView@@QAEXXZ 0063b300 f   FootprintView.obj
 0002:000bf430       ?OnPolylineCornerEdit@CFootprintView@@QAEXXZ 0063b430 f   FootprintView.obj
 0002:000bf9b0       ?OnPolylineFirstCorner@CFootprintView@@QAEXXZ 0063b9b0 f   FootprintView.obj
 0002:000bfa90       ?OnPolylineCornerDelete@CFootprintView@@QAEXXZ 0063ba90 f   FootprintView.obj
 0002:000bfba0       ?OnPolylineSideAddCorner@CFootprintView@@QAEXXZ 0063bba0 f   FootprintView.obj
 0002:000bfcd0       ?CurNone@CFootprintView@@QAEHXZ 0063bcd0 f   FootprintView.obj
 0002:000bfd20       ?CurSelected@CFootprintView@@QAEHXZ 0063bd20 f   FootprintView.obj
 0002:000bfda0       ?CurDragging@CFootprintView@@QAEHXZ 0063bda0 f   FootprintView.obj
 0002:000bfdf0       ?CurDraggingPlacement@CFootprintView@@QAEHXZ 0063bdf0 f   FootprintView.obj
 0002:000bfeb0       ?SnapCursorPoint@CFootprintView@@QAEXVCPoint@@@Z 0063beb0 f   FootprintView.obj
 0002:000c08b0       ?OnChangeVisibleGrid@CFootprintView@@QAEJIJ@Z 0063c8b0 f   FootprintView.obj
 0002:000c0960       ?OnChangePlacementGrid@CFootprintView@@QAEJIJ@Z 0063c960 f   FootprintView.obj
 0002:000c09f0       ?OnChangeSnapAngle@CFootprintView@@QAEJIJ@Z 0063c9f0 f   FootprintView.obj
 0002:000c0ae0       ?OnChangeUnits@CFootprintView@@QAEJIJ@Z 0063cae0 f   FootprintView.obj
 0002:000c0bc0       ?OnRefProperties@CFootprintView@@QAEXXZ 0063cbc0 f   FootprintView.obj
 0002:000c0da0       ?GetHeight@CDlgFpRefText@@QAEHXZ 0063cda0 f i FootprintView.obj
 0002:000c0de0       ?GetWidth@CDlgFpRefText@@QAEHXZ 0063cde0 f i FootprintView.obj
 0002:000c0e20       ?OnEraseBkgnd@CFootprintView@@QAEHPAVCDC@@@Z 0063ce20 f   FootprintView.obj
 0002:000c0e70       ?OnPolylineSideConvertToStraightLine@CFootprintView@@QAEXXZ 0063ce70 f   FootprintView.obj
 0002:000c0fa0       ?OnPolylineSideConvertToArcCw@CFootprintView@@QAEXXZ 0063cfa0 f   FootprintView.obj
 0002:000c10d0       ?OnPolylineSideConvertToArcCcw@CFootprintView@@QAEXXZ 0063d0d0 f   FootprintView.obj
 0002:000c1200       ?OnAddPin@CFootprintView@@QAEXXZ 0063d200 f   FootprintView.obj
 0002:000c16d0       ?OnFootprintFileSaveAs@CFootprintView@@QAEXXZ 0063d6d0 f   FootprintView.obj
 0002:000c19d0       ?OnAddPolyline@CFootprintView@@QAEXXZ 0063d9d0 f   FootprintView.obj
 0002:000c1a30       ?AddPolyline@CFootprintView@@QAEXPAVid@@@Z 0063da30 f   FootprintView.obj
 0002:000c20e0       ?GetWidth@CDlgAddPoly@@QAEHXZ 0063e0e0 f i FootprintView.obj
 0002:000c2120       ?GetClosedFlag@CDlgAddPoly@@QAEHXZ 0063e120 f i FootprintView.obj
 0002:000c2160       ?OnFootprintFileImport@CFootprintView@@QAEXXZ 0063e160 f   FootprintView.obj
 0002:000c2430       ?OnFootprintFileClose@CFootprintView@@QAEXXZ 0063e430 f   FootprintView.obj
 0002:000c2c90       ?OnFootprintFileNew@CFootprintView@@QAEXXZ 0063ec90 f   FootprintView.obj
 0002:000c2de0       ?FootprintModified@CFootprintView@@QAEXHHH@Z 0063ede0 f   FootprintView.obj
 0002:000c3150       ?FootprintNameChanged@CFootprintView@@QAEXPAV?$CStringT@DV?$StrTraitMFC_DLL@DV?$ChTraitsCRT@D@ATL@@@@@ATL@@@Z 0063f150 f   FootprintView.obj
 0002:000c31c0       ?OnViewEntireFootprint@CFootprintView@@QAEXXZ 0063f1c0 f   FootprintView.obj
 0002:000c3500       ?ClearUndo@CFootprintView@@QAEXXZ 0063f500 f   FootprintView.obj
 0002:000c3600       ??_GCShape@@QAEPAXI@Z      0063f600 f i FootprintView.obj
 0002:000c3670       ?ClearRedo@CFootprintView@@QAEXXZ 0063f670 f   FootprintView.obj
 0002:000c3770       ?PushUndo@CFootprintView@@QAEXXZ 0063f770 f   FootprintView.obj
 0002:000c3970       ?PushRedo@CFootprintView@@QAEXXZ 0063f970 f   FootprintView.obj
 0002:000c3b70       ?Undo@CFootprintView@@QAEXXZ 0063fb70 f   FootprintView.obj
 0002:000c3bd0       ?UndoNoRedo@CFootprintView@@QAEXXZ 0063fbd0 f   FootprintView.obj
 0002:000c3d60       ?Redo@CFootprintView@@QAEXXZ 0063fd60 f   FootprintView.obj
 0002:000c3f00       ?OnEditUndo@CFootprintView@@QAEXXZ 0063ff00 f   FootprintView.obj
 0002:000c3f50       ?OnEditRedo@CFootprintView@@QAEXXZ 0063ff50 f   FootprintView.obj
 0002:000c3fa0       ?OnFpMove@CFootprintView@@QAEXXZ 0063ffa0 f   FootprintView.obj
 0002:000c4000       ?OnFpEditproperties@CFootprintView@@QAEXXZ 00640000 f   FootprintView.obj
 0002:000c4060       ?OnFpDelete@CFootprintView@@QAEXXZ 00640060 f   FootprintView.obj
 0002:000c40c0       ?OnFpToolsFootprintwizard@CFootprintView@@QAEXXZ 006400c0 f   FootprintView.obj
 0002:000c4360       ?SetWindowTitle@CFootprintView@@QAEXPAV?$CStringT@DV?$StrTraitMFC_DLL@DV?$ChTraitsCRT@D@ATL@@@@@ATL@@@Z 00640360 f   FootprintView.obj
 0002:000c44a0       ?OnToolsFootprintLibraryManager@CFootprintView@@QAEXXZ 006404a0 f   FootprintView.obj
 0002:000c45c0       ?OnAddText@CFootprintView@@QAEXXZ 006405c0 f   FootprintView.obj
 0002:000c49f0       ?OnFpTextEdit@CFootprintView@@QAEXXZ 006409f0 f   FootprintView.obj
 0002:000c4de0       ?OnFpTextMove@CFootprintView@@QAEXXZ 00640de0 f   FootprintView.obj
 0002:000c4f60       ?OnFpTextDelete@CFootprintView@@QAEXXZ 00640f60 f   FootprintView.obj
 0002:000c5010       ?ShowActiveLayer@CFootprintView@@QAEHXZ 00641010 f   FootprintView.obj
 0002:000c53f0       ?OnToolsMoveOriginFP@CFootprintView@@QAEXXZ 006413f0 f   FootprintView.obj
 0002:000c5610       ?MoveOrigin@CFootprintView@@QAEXHH@Z 00641610 f   FootprintView.obj
 0002:000c5950       ?EnableUndo@CFootprintView@@QAEXH@Z 00641950 f   FootprintView.obj
 0002:000c5a20       ?EnableRedo@CFootprintView@@QAEXH@Z 00641a20 f   FootprintView.obj
 0002:000c5af0       ?OnCentroidEdit@CFootprintView@@QAEXXZ 00641af0 f   FootprintView.obj
 0002:000c5ef0       ?OnCentroidMove@CFootprintView@@QAEXXZ 00641ef0 f   FootprintView.obj
 0002:000c6050       ?OnAddSlot@CFootprintView@@QAEXXZ 00642050 f   FootprintView.obj
 0002:000c6170       ?OnAddValueText@CFootprintView@@QAEXXZ 00642170 f   FootprintView.obj
 0002:000c6430       ?OnValueEdit@CFootprintView@@QAEXXZ 00642430 f   FootprintView.obj
 0002:000c6760       ?OnValueMove@CFootprintView@@QAEXXZ 00642760 f   FootprintView.obj
 0002:000c68d0       ?OnAdd3DCode@CFootprintView@@QAEXXZ 006428d0 f   FootprintView.obj
 0002:000c69f0       ?OnAdd3DHole@CFootprintView@@QAEXXZ 006429f0 f   FootprintView.obj
 0002:000c6b10       ?OnAdd3DModule@CFootprintView@@QAEXXZ 00642b10 f   FootprintView.obj
 0002:000c6c30       ?OnAddAdhesive@CFootprintView@@QAEXXZ 00642c30 f   FootprintView.obj
 0002:000c6f80       ?OnAdhesiveEdit@CFootprintView@@QAEXXZ 00642f80 f   FootprintView.obj
 0002:000c7240       ?OnAdhesiveMove@CFootprintView@@QAEXXZ 00643240 f   FootprintView.obj
 0002:000c72b0       ?OnAdhesiveDrag@CFootprintView@@QAEXXZ 006432b0 f   FootprintView.obj
 0002:000c7440       ?OnAdhesiveDelete@CFootprintView@@QAEXXZ 00643440 f   FootprintView.obj
 0002:000c7510       ?OnCentroidRotateAxis@CFootprintView@@QAEXXZ 00643510 f   FootprintView.obj
 0002:000c75f0       ?OnInvalidate@CFootprintView@@QAEXPAVCCmdUI@@@Z 006435f0 f   FootprintView.obj
 0002:000c7650       ?GenerateOpenscadFile@CFootprintView@@QAEXXZ 00643650 f   FootprintView.obj
 0002:000c7ae0       ?RemoveAt@?$CArray@VCPolyLine@@ABV1@@@QAEXHH@Z 00643ae0 f i FootprintView.obj
 0002:000c7cc0       ?RemoveAt@?$CArray@Uglue@@ABU1@@@QAEXHH@Z 00643cc0 f i FootprintView.obj
 0002:000c7e70       ??0?$CArray@PAVCShape@@ABQAV1@@@QAE@XZ 00643e70 f i FootprintView.obj
 0002:000c7f00       ?GetSize@?$CArray@PAVCShape@@ABQAV1@@@QBEHXZ 00643f00 f i FootprintView.obj
 0002:000c7f40       ?RemoveAll@?$CArray@PAVCShape@@ABQAV1@@@QAEXXZ 00643f40 f i FootprintView.obj
 0002:000c7fa0       ?Add@?$CArray@PAVCShape@@ABQAV1@@@QAEHABQAVCShape@@@Z 00643fa0 f i FootprintView.obj
 0002:000c8010       ??A?$CArray@PAVCShape@@ABQAV1@@@QAEAAPAVCShape@@H@Z 00644010 f i FootprintView.obj
 0002:000c8070       ?RemoveAt@?$CArray@PAVCShape@@ABQAV1@@@QAEXHH@Z 00644070 f i FootprintView.obj
 0002:000c8220       ??$strcpy@$0CA@@@YAPADAAY0CA@DPBD@Z 00644220 f i FootprintView.obj
 0002:000c8290       ?ElementAt@?$CArray@PAVCShape@@ABQAV1@@@QAEAAPAVCShape@@H@Z 00644290 f i FootprintView.obj
 0002:000c8340       ?SetAtGrow@?$CArray@PAVCShape@@ABQAV1@@@QAEXHABQAVCShape@@@Z 00644340 f i FootprintView.obj
 0002:000c8410       ?Clear@id@@QAEXXZ          00644410 f i FootprintView.obj
 0002:000c8490       ?Set@id@@QAEXHHHHH@Z       00644490 f i FootprintView.obj
 0002:000c8500       ?SetTopLayer@CDisplayList@@QAEXH@Z 00644500 f i FootprintView.obj
 0002:000c8550       ?SetLayerDrawOrder@CDisplayList@@QAEXHH@Z 00644550 f i FootprintView.obj
 0002:000c85b0       ?GetHatch@CPolyLine@@QAEHXZ 006445b0 f i FootprintView.obj
 0002:000c85f0       ?GetDisplayList@CPolyLine@@QAEPAVCDisplayList@@XZ 006445f0 f i FootprintView.obj
 0002:000c8630       ?SetHatch@CPolyLine@@QAEXH@Z 00644630 f i FootprintView.obj
 0002:000c86a0       ?GetNumTexts@CTextList@@QAEHXZ 006446a0 f i FootprintView.obj
 0002:000c8700       ?InvalidateLeftPane@CFootprintView@@QAEXXZ 00644700 f i FootprintView.obj
 0002:000c8750       ??1?$CArray@PAVCShape@@ABQAV1@@@UAE@XZ 00644750 f i FootprintView.obj
 0002:000c8860       ?Serialize@?$CArray@PAVCShape@@ABQAV1@@@UAEXAAVCArchive@@@Z 00644860 f i FootprintView.obj
 0002:000c8930       ?Dump@?$CArray@PAVCShape@@ABQAV1@@@UBEXAAVCDumpContext@@@Z 00644930 f i FootprintView.obj
 0002:000c8a10       ?AssertValid@?$CArray@PAVCShape@@ABQAV1@@@UBEXXZ 00644a10 f i FootprintView.obj
 0002:000c8b70       ??_GCPolyLine@@QAEPAXI@Z   00644b70 f i FootprintView.obj
 0002:000c8be0       ??_G?$CArray@PAVCShape@@ABQAV1@@@UAEPAXI@Z 00644be0 f i FootprintView.obj
 0002:000c8be0       ??_E?$CArray@PAVCShape@@ABQAV1@@@UAEPAXI@Z 00644be0 f i FootprintView.obj
 0002:000c8c50       ?SetSize@?$CArray@VCPolyLine@@ABV1@@@QAEXHH@Z 00644c50 f i FootprintView.obj
 0002:000c93a0       ?SetSize@?$CArray@Uglue@@ABU1@@@QAEXHH@Z 006453a0 f i FootprintView.obj
 0002:000c9940       ?SetSize@?$CArray@PAVCShape@@ABQAV1@@@QAEXHH@Z 00645940 f i FootprintView.obj
 0002:000c9ed0       ??$SerializeElements@PAVCShape@@@@YGXAAVCArchive@@PAPAVCShape@@H@Z 00645ed0 f i FootprintView.obj
 0002:000ca0c0       ??$DumpElements@PAVCShape@@@@YGXAAVCDumpContext@@PBQAVCShape@@H@Z 006460c0 f i FootprintView.obj
 0002:000ca1b0       ?GetMessageMap@CFreePcbApp@@MBEPBUAFX_MSGMAP@@XZ 006461b0 f   FreePcb.obj
 0002:000ca200       ?GetThisMessageMap@CFreePcbApp@@KGPBUAFX_MSGMAP@@XZ 00646200 f   FreePcb.obj
 0002:000ca240       ??0CFreePcbApp@@QAE@XZ     00646240 f   FreePcb.obj
 0002:000ca340       ??_GCFreePcbApp@@UAEPAXI@Z 00646340 f i FreePcb.obj
 0002:000ca340       ??_ECFreePcbApp@@UAEPAXI@Z 00646340 f i FreePcb.obj
 0002:000ca3b0       ??1CFreePcbApp@@UAE@XZ     006463b0 f i FreePcb.obj
 0002:000ca4a0       ?InitInstance@CFreePcbApp@@UAEHXZ 006464a0 f   FreePcb.obj
 0002:000ca9b0       ??0CAboutDlg@@QAE@XZ       006469b0 f   FreePcb.obj
 0002:000caa70       ??_GCAboutDlg@@UAEPAXI@Z   00646a70 f i FreePcb.obj
 0002:000caa70       ??_ECAboutDlg@@UAEPAXI@Z   00646a70 f i FreePcb.obj
 0002:000caae0       ??1CAboutDlg@@UAE@XZ       00646ae0 f i FreePcb.obj
 0002:000cab90       ?DoDataExchange@CAboutDlg@@MAEXPAVCDataExchange@@@Z 00646b90 f   FreePcb.obj
 0002:000cac30       ?GetMessageMap@CAboutDlg@@MBEPBUAFX_MSGMAP@@XZ 00646c30 f   FreePcb.obj
 0002:000cac80       ?GetThisMessageMap@CAboutDlg@@KGPBUAFX_MSGMAP@@XZ 00646c80 f   FreePcb.obj
 0002:000cacc0       ?OnAppAbout@CFreePcbApp@@QAEXXZ 00646cc0 f   FreePcb.obj
 0002:000cadc0       ?OnViewFootprint@CFreePcbApp@@QAEXXZ 00646dc0 f   FreePcb.obj
 0002:000cae30       ?OnViewPcbEditor@CFreePcbApp@@QAEXXZ 00646e30 f   FreePcb.obj
 0002:000caea0       ?SwitchToView@CFreePcbApp@@QAEHPAUCRuntimeClass@@@Z 00646ea0 f   FreePcb.obj
 0002:000cb7f0       ?ExitInstance@CFreePcbApp@@UAEHXZ 006477f0 f   FreePcb.obj
 0002:000cb840       ?OnHelpFAQ@CFreePcbApp@@QAEXXZ 00647840 f   FreePcb.obj
 0002:000cb990       ?OnHelpGotoWebsite@CFreePcbApp@@QAEXXZ 00647990 f   FreePcb.obj
 0002:000cbae0       ?OnFileMruFile1@CFreePcbApp@@QAEXXZ 00647ae0 f   FreePcb.obj
 0002:000cbc50       ?OnFileMruFile2@CFreePcbApp@@QAEXXZ 00647c50 f   FreePcb.obj
 0002:000cbdc0       ?OnFileMruFile3@CFreePcbApp@@QAEXXZ 00647dc0 f   FreePcb.obj
 0002:000cbf30       ?OnFileMruFile4@CFreePcbApp@@QAEXXZ 00647f30 f   FreePcb.obj
 0002:000cc0a0       ?OnFileMruFile5@CFreePcbApp@@QAEXXZ 006480a0 f   FreePcb.obj
 0002:000cc210       ?OnFileMruFile6@CFreePcbApp@@QAEXXZ 00648210 f   FreePcb.obj
 0002:000cc380       ?OnFileMruFile7@CFreePcbApp@@QAEXXZ 00648380 f   FreePcb.obj
 0002:000cc4f0       ?OnOpenRecentFile@CFreePcbApp@@QAEHI@Z 006484f0 f   FreePcb.obj
 0002:000cc550       ?GetMRUFile@CFreePcbApp@@QAE?AV?$CStringT@DV?$StrTraitMFC_DLL@DV?$ChTraitsCRT@D@ATL@@@@@ATL@@XZ 00648550 f   FreePcb.obj
 0002:000cc730       ?AddMRUFile@CFreePcbApp@@QAEXPAV?$CStringT@DV?$StrTraitMFC_DLL@DV?$ChTraitsCRT@D@ATL@@@@@ATL@@@Z 00648730 f   FreePcb.obj
 0002:000cc7e0       ?OnHelpKeyboardshortcuts@CFreePcbApp@@QAEXXZ 006487e0 f   FreePcb.obj
 0002:000cc970       ?OnToolsOpenOnlineAutorouter@CFreePcbApp@@QAEXXZ 00648970 f   FreePcb.obj
 0002:000ccac0       ?OnHelpFreeRoutingWebsite@CFreePcbApp@@QAEXXZ 00648ac0 f   FreePcb.obj
 0002:000ccc10       ?OnHelpUserGuidePdf@CFreePcbApp@@QAEXXZ 00648c10 f   FreePcb.obj
 0002:000cce40       ?OnUtils@CFreePcbApp@@QAEHI@Z 00648e40 f   FreePcb.obj
 0002:000cd4f0       ?OnHelpUserGuideSupplementPdf@CFreePcbApp@@QAEXXZ 006494f0 f   FreePcb.obj
 0002:000cd640       ?OnHelpFpcRoute@CFreePcbApp@@QAEXXZ 00649640 f   FreePcb.obj
 0002:000cd790       ?DoMessageBox@CFreePcbApp@@UAEHPBDII@Z 00649790 f   FreePcb.obj
 0002:000cd830       ?SupportsRestartManager@CWinApp@@UBEHXZ 00649830 f i FreePcb.obj
 0002:000cd880       ?SupportsApplicationRecovery@CWinApp@@UBEHXZ 00649880 f i FreePcb.obj
 0002:000cd8d0       ?SupportsAutosaveAtRestart@CWinApp@@UBEHXZ 006498d0 f i FreePcb.obj
 0002:000cd920       ?SupportsAutosaveAtInterval@CWinApp@@UBEHXZ 00649920 f i FreePcb.obj
 0002:000cd970       ?ReopenPreviousFilesAtRestart@CWinApp@@UBEHXZ 00649970 f i FreePcb.obj
 0002:000cd9c0       ?RestoreAutosavedFilesAtRestart@CWinApp@@UBEHXZ 006499c0 f i FreePcb.obj
 0002:000cda10       ?GetApplicationRestartFlags@CWinApp@@UAEKXZ 00649a10 f i FreePcb.obj
 0002:000cda50       ?GetApplicationRecoveryParameter@CWinApp@@UAEPAXXZ 00649a50 f i FreePcb.obj
 0002:000cda90       ?GetApplicationRecoveryPingInterval@CWinApp@@UAEKXZ 00649a90 f i FreePcb.obj
 0002:000cdad0       ?GetSize@CRecentFileList@@QBEHXZ 00649ad0 f i FreePcb.obj
 0002:000cdb10       ??ACRecentFileList@@QAEAAV?$CStringT@DV?$StrTraitMFC_DLL@DV?$ChTraitsCRT@D@ATL@@@@@ATL@@H@Z 00649b10 f i FreePcb.obj
 0002:000cdbe0       ?CreateObject@CFreePcbDoc@@SGPAVCObject@@XZ 00649be0 f   FreePcbDoc.obj
 0002:000cdcd0       ?_GetBaseClass@CFreePcbDoc@@KGPAUCRuntimeClass@@XZ 00649cd0 f   FreePcbDoc.obj
 0002:000cdd20       ?GetThisClass@CFreePcbDoc@@SGPAUCRuntimeClass@@XZ 00649d20 f   FreePcbDoc.obj
 0002:000cdd60       ?GetRuntimeClass@CFreePcbDoc@@UBEPAUCRuntimeClass@@XZ 00649d60 f   FreePcbDoc.obj
 0002:000cdda0       ?GetMessageMap@CFreePcbDoc@@MBEPBUAFX_MSGMAP@@XZ 00649da0 f   FreePcbDoc.obj
 0002:000cddf0       ?GetThisMessageMap@CFreePcbDoc@@KGPBUAFX_MSGMAP@@XZ 00649df0 f   FreePcbDoc.obj
 0002:000cde30       ??0CFreePcbDoc@@IAE@XZ     00649e30 f   FreePcbDoc.obj
 0002:000cf2a0       ??_ECFreePcbDoc@@UAEPAXI@Z 0064b2a0 f i FreePcbDoc.obj
 0002:000cf2a0       ??_GCFreePcbDoc@@UAEPAXI@Z 0064b2a0 f i FreePcbDoc.obj
 0002:000cf310       ??1CFreePcbDoc@@UAE@XZ     0064b310 f   FreePcbDoc.obj
 0002:000cfeb0       ??_GCNetList@@QAEPAXI@Z    0064beb0 f i FreePcbDoc.obj
 0002:000cff20       ??_GCPartList@@QAEPAXI@Z   0064bf20 f i FreePcbDoc.obj
 0002:000cff90       ??_GCTextList@@QAEPAXI@Z   0064bf90 f i FreePcbDoc.obj
 0002:000d0000       ??_GDRErrorList@@QAEPAXI@Z 0064c000 f i FreePcbDoc.obj
 0002:000d0070       ??_GCUndoList@@QAEPAXI@Z   0064c070 f i FreePcbDoc.obj
 0002:000d00e0       ??_GCDisplayList@@QAEPAXI@Z 0064c0e0 f i FreePcbDoc.obj
 0002:000d0150       ??_GSMFontUtil@@QAEPAXI@Z  0064c150 f i FreePcbDoc.obj
 0002:000d01c0       ?SendInitialUpdate@CFreePcbDoc@@QAEXXZ 0064c1c0 f   FreePcbDoc.obj
 0002:000d0210       ?OnNewDocument@CFreePcbDoc@@UAEHXZ 0064c210 f   FreePcbDoc.obj
 0002:000d0300       ?Serialize@CFreePcbDoc@@UAEXAAVCArchive@@@Z 0064c300 f   FreePcbDoc.obj
 0002:000d0340       ?AssertValid@CFreePcbDoc@@UBEXXZ 0064c340 f   FreePcbDoc.obj
 0002:000d0390       ?Dump@CFreePcbDoc@@UBEXAAVCDumpContext@@@Z 0064c390 f   FreePcbDoc.obj
 0002:000d03f0       ?OnSaveDocument@CFreePcbDoc@@UAEHPBD@Z 0064c3f0 f   FreePcbDoc.obj
 0002:000d0450       ?OnFileNew@CFreePcbDoc@@QAEXXZ 0064c450 f   FreePcbDoc.obj
 0002:000d14a0       ?GetName@CDlgProjectOptions@@QAE?AV?$CStringT@DV?$StrTraitMFC_DLL@DV?$ChTraitsCRT@D@ATL@@@@@ATL@@XZ 0064d4a0 f i FreePcbDoc.obj
 0002:000d1530       ?GetPathToFolder@CDlgProjectOptions@@QAE?AV?$CStringT@DV?$StrTraitMFC_DLL@DV?$ChTraitsCRT@D@ATL@@@@@ATL@@XZ 0064d530 f i FreePcbDoc.obj
 0002:000d15c0       ?GetLibFolder@CDlgProjectOptions@@QAE?AV?$CStringT@DV?$StrTraitMFC_DLL@DV?$ChTraitsCRT@D@ATL@@@@@ATL@@XZ 0064d5c0 f i FreePcbDoc.obj
 0002:000d1650       ?GetNumCopperLayers@CDlgProjectOptions@@QAEHXZ 0064d650 f i FreePcbDoc.obj
 0002:000d1690       ?GetTraceWidth@CDlgProjectOptions@@QAEHXZ 0064d690 f i FreePcbDoc.obj
 0002:000d16d0       ?GetViaWidth@CDlgProjectOptions@@QAEHXZ 0064d6d0 f i FreePcbDoc.obj
 0002:000d1710       ?GetViaHoleWidth@CDlgProjectOptions@@QAEHXZ 0064d710 f i FreePcbDoc.obj
 0002:000d1750       ?GetAutoRatlineDisable@CDlgProjectOptions@@QAEHXZ 0064d750 f i FreePcbDoc.obj
 0002:000d1790       ?GetAutoRatlineMinPins@CDlgProjectOptions@@QAEHXZ 0064d790 f i FreePcbDoc.obj
 0002:000d17d0       ?RunFileDialog@CFreePcbDoc@@QAE?AV?$CStringT@DV?$StrTraitMFC_DLL@DV?$ChTraitsCRT@D@ATL@@@@@ATL@@HV23@@Z 0064d7d0 f   FreePcbDoc.obj
 0002:000d2570       ?OnFileOpen@CFreePcbDoc@@QAEXXZ 0064e570 f   FreePcbDoc.obj
 0002:000d2a00       ?OnFileAutoOpen@CFreePcbDoc@@QAEXPBD@Z 0064ea00 f   FreePcbDoc.obj
 0002:000d2dd0       ?FileOpen@CFreePcbDoc@@QAEHPBDH@Z 0064edd0 f   FreePcbDoc.obj
 0002:000d4760       ?SetSize@?$CArray@Vcconnect@@ABV1@@@QAEXHH@Z 00650760 f i NetList.obj
 0002:000d4dc0       ?OnFileClose@CFreePcbDoc@@QAEXXZ 00650dc0 f   FreePcbDoc.obj
 0002:000d4e10       ?FileClose@CFreePcbDoc@@QAEHXZ 00650e10 f   FreePcbDoc.obj
 0002:000d59e0       ?OnFileSaveBeforeImport@CFreePcbDoc@@QAEXXZ 006519e0 f   FreePcbDoc.obj
 0002:000d5ac0       ?OnFileSave@CFreePcbDoc@@QAEXXZ 00651ac0 f   FreePcbDoc.obj
 0002:000d5c50       ?AutoSave@CFreePcbDoc@@QAEHXZ 00651c50 f   FreePcbDoc.obj
 0002:000d6540       ?FileSave@CFreePcbDoc@@QAEHPAV?$CStringT@DV?$StrTraitMFC_DLL@DV?$ChTraitsCRT@D@ATL@@@@@ATL@@000H@Z 00652540 f   FreePcbDoc.obj
 0002:000d78d0       ?ReadMerges@CFreePcbDoc@@QAEXPAVCStdioFile@@PAVMerge@@@Z 006538d0 f   FreePcbDoc.obj
 0002:000d7da0       ?WriteMerges@CFreePcbDoc@@QAEXPAVCStdioFile@@PAVMerge@@@Z 00653da0 f   FreePcbDoc.obj
 0002:000d8220       ?OnFileSaveVersion@CFreePcbDoc@@QAEXXZ 00654220 f   FreePcbDoc.obj
 0002:000d8520       ?OnFileSaveAs@CFreePcbDoc@@QAEXXZ 00654520 f   FreePcbDoc.obj
 0002:000d8ab0       ?OnAddPart@CFreePcbDoc@@QAEXXZ 00654ab0 f   FreePcbDoc.obj
 0002:000d9790       ?OnProjectNetlist@CFreePcbDoc@@QAEXXZ 00655790 f   FreePcbDoc.obj
 0002:000d9bf0       ?WriteFootprints@CFreePcbDoc@@QAEHPAVCStdioFile@@PAVCMapStringToPtr@@H@Z 00655bf0 f   FreePcbDoc.obj
 0002:000d9db0       ?GetFootprintPtr@CFreePcbDoc@@QAEPAVCShape@@V?$CStringT@DV?$StrTraitMFC_DLL@DV?$ChTraitsCRT@D@ATL@@@@@ATL@@@Z 00655db0 f   FreePcbDoc.obj
 0002:000da4a0       ?ReadFootprints@CFreePcbDoc@@QAEXPAVCStdioFile@@PAVCMapStringToPtr@@H@Z 006564a0 f   FreePcbDoc.obj
 0002:000db130       ?WriteOutlinesPoly@CFreePcbDoc@@QAEXPAVCStdioFile@@PAV?$CArray@VCPolyLine@@ABV1@@@@Z 00657130 f   FreePcbDoc.obj
 0002:000dc690       ?ReadBoardOutline@CFreePcbDoc@@QAEXPAVCStdioFile@@PAV?$CArray@VCPolyLine@@ABV1@@@@Z 00658690 f   FreePcbDoc.obj
 0002:000dd930       ?ReadSolderMaskCutouts@CFreePcbDoc@@QAEXPAVCStdioFile@@PAV?$CArray@VCPolyLine@@ABV1@@@@Z 00659930 f   FreePcbDoc.obj
 0002:000dec80       ?ReadGraphics@CFreePcbDoc@@QAEXPAVCStdioFile@@PAV?$CArray@VCPolyLine@@ABV1@@@@Z 0065ac80 f   FreePcbDoc.obj
 0002:000dfd10       ?ReadOptions@CFreePcbDoc@@QAEHPAVCStdioFile@@HH@Z 0065bd10 f   FreePcbDoc.obj
 0002:000e54f0       ?DrawVia@CNetList@@QAEHPAVcnet@@HH@Z 006614f0 f   NetList.obj
 0002:000e6120       ?CombineAreas@CNetList@@QAEHPAVcnet@@HH@Z 00662120 f   NetList.obj
 0002:000e69d0       ?WriteOptions@CFreePcbDoc@@QAEXPAVCStdioFile@@H@Z 006629d0 f   FreePcbDoc.obj
 0002:000e9bd0       ?TestAreaPolygon@CNetList@@QAEHPAVcnet@@HHH@Z 00665bd0 f   NetList.obj
 0002:000ea840       ?InitializeNewProject@CFreePcbDoc@@QAEXXZ 00666840 f   FreePcbDoc.obj
 0002:000ec400       ?SetSize@?$CArray@Vcpin@@ABV1@@@QAEXHH@Z 00668400 f i NetList.obj
 0002:000ecaf0       ?ProjectModified@CFreePcbDoc@@QAEXHH@Z 00668af0 f   FreePcbDoc.obj
 0002:000ed030       ?SaveOptions@CFreePcbDoc@@QAEXXZ 00669030 f   FreePcbDoc.obj
 0002:000ed440       ?OnViewLayers@CFreePcbDoc@@QAEXXZ 00669440 f   FreePcbDoc.obj
 0002:000ed6d0       ?OnProjectPartlist@CFreePcbDoc@@QAEXXZ 006696d0 f   FreePcbDoc.obj
 0002:000ed9d0       ?OnPartProperties@CFreePcbDoc@@QAEXXZ 006699d0 f   FreePcbDoc.obj
 0002:000eda40       ?PartProperties@CFreePcbDoc@@QAEXXZ 00669a40 f   FreePcbDoc.obj
 0002:000ee990       ?FileExport@CFreePcbDoc@@QAEXV?$CStringT@DV?$StrTraitMFC_DLL@DV?$ChTraitsCRT@D@ATL@@@@@ATL@@@Z 0066a990 f   FreePcbDoc.obj
 0002:000eec10       ?OnFileExport@CFreePcbDoc@@QAEXXZ 0066ac10 f   FreePcbDoc.obj
 0002:000eed90       ?OnFileReloadNetlist@CFreePcbDoc@@QAEXXZ 0066ad90 f   FreePcbDoc.obj
 0002:000eee30       ?OnFileImportNetlist@CFreePcbDoc@@QAEXXZ 0066ae30 f   FreePcbDoc.obj
 0002:000eef80       ?FileImportNetlist@CFreePcbDoc@@QAEXPAV?$CStringT@DV?$StrTraitMFC_DLL@DV?$ChTraitsCRT@D@ATL@@@@@ATL@@@Z 0066af80 f   FreePcbDoc.obj
 0002:000f1c90       ?GetNetBoundaries@CNetList@@QAEHPAUtagRECT@@H@Z 0066dc90 f   NetList.obj
 0002:000f27e0       ?GetSessionLayer@@YAHPAV?$CStringT@DV?$StrTraitMFC_DLL@DV?$ChTraitsCRT@D@ATL@@@@@ATL@@@Z 0066e7e0 f   FreePcbDoc.obj
 0002:000f29c0       ?ImportSessionFile@CFreePcbDoc@@QAEXPAV?$CStringT@DV?$StrTraitMFC_DLL@DV?$ChTraitsCRT@D@ATL@@@@@ATL@@PAVCDlgLog@@H@Z 0066e9c0 f   FreePcbDoc.obj
 0002:000f4070       ?ImportNetlist@CFreePcbDoc@@QAEHPAVCStdioFile@@IPAV?$CArray@Upart_info@@ABU1@@@PAV?$CArray@Unet_info@@ABU1@@@@Z 00670070 f   FreePcbDoc.obj
 0002:000f4f10       ?ExportPADSPCBNetlist@CFreePcbDoc@@QAEHPAVCStdioFile@@IPAV?$CArray@Upart_info@@ABU1@@@PAV?$CArray@Unet_info@@ABU1@@@@Z 00670f10 f   FreePcbDoc.obj
 0002:000f5510       ?ImportPADSPCBNetlist@CFreePcbDoc@@QAEHPAVCStdioFile@@IPAV?$CArray@Upart_info@@ABU1@@@PAV?$CArray@Unet_info@@ABU1@@@@Z 00671510 f   FreePcbDoc.obj
 0002:000f7510       ?SetSize@?$CArray@Vcarea@@V1@@@QAEXHH@Z 00673510 f i NetList.obj
 0002:000f7d10       ?OnAppExit@CFreePcbDoc@@QAEXXZ 00673d10 f   FreePcbDoc.obj
 0002:000f7d80       ?OnFileConvert@CFreePcbDoc@@QAEXXZ 00673d80 f   FreePcbDoc.obj
 0002:000f7e70       ?CreateMoveOriginUndoRecord@CFreePcbDoc@@QAEPAUundo_move_origin@@HH@Z 00673e70 f   FreePcbDoc.obj
 0002:000f7f10       ?MoveOriginUndoCallback@CFreePcbDoc@@SAXHPAXH@Z 00673f10 f   FreePcbDoc.obj
 0002:000f7fe0       ?CreateOutlinePolyUndoRecord@CFreePcbDoc@@QAEPAUundo_outline_poly@@PAVCPolyLine@@H@Z 00673fe0 f   FreePcbDoc.obj
 0002:000f81b0       ?OutlinePolyUndoCallback@CFreePcbDoc@@SAXHPAXH@Z 006741b0 f   FreePcbDoc.obj
 0002:000f86d0       ?OnFileGenerateCadFiles@CFreePcbDoc@@QAEXXZ 006746d0 f   FreePcbDoc.obj
 0002:000f8db0       ?OnToolsFootprintwizard@CFreePcbDoc@@QAEXXZ 00674db0 f   FreePcbDoc.obj
 0002:000f8ef0       ?MakeLibraryMaps@CFreePcbDoc@@QAEXPAV?$CStringT@DV?$StrTraitMFC_DLL@DV?$ChTraitsCRT@D@ATL@@@@@ATL@@@Z 00674ef0 f   FreePcbDoc.obj
 0002:000f8f70       ?OnProjectOptions@CFreePcbDoc@@QAEXXZ 00674f70 f   FreePcbDoc.obj
 0002:000fa1d0       ?GetAutoInterval@CDlgProjectOptions@@QAEHXZ 006761d0 f i FreePcbDoc.obj
 0002:000fa210       ?GetGlueWidth@CDlgProjectOptions@@QAEHXZ 00676210 f i FreePcbDoc.obj
 0002:000fa250       ?OnTimer@CFreePcbDoc@@QAEXXZ 00676250 f   FreePcbDoc.obj
 0002:000fa320       ?OnToolsCheckPartsAndNets@CFreePcbDoc@@QAEXXZ 00676320 f   FreePcbDoc.obj
 0002:000fa4f0       ?OnToolsDrc@CFreePcbDoc@@QAEXXZ 006764f0 f   FreePcbDoc.obj
 0002:000fa7e0       ?OnToolsClearDrc@CFreePcbDoc@@QAEXXZ 006767e0 f   FreePcbDoc.obj
 0002:000fa890       ?OnToolsShowDRCErrorlist@CFreePcbDoc@@QAEXXZ 00676890 f   FreePcbDoc.obj
 0002:000fa8d0       ?OnToolsCheckConnectivity@CFreePcbDoc@@QAEXXZ 006768d0 f   FreePcbDoc.obj
 0002:000faab0       ?OnViewLog@CFreePcbDoc@@QAEXXZ 00676ab0 f   FreePcbDoc.obj
 0002:000fab30       ?OnToolsCheckCopperAreas@CFreePcbDoc@@QAEXXZ 00676b30 f   FreePcbDoc.obj
 0002:000fdbd0       ?OnToolsCheckTraces@CFreePcbDoc@@QAEXXZ 00679bd0 f   FreePcbDoc.obj
 0002:000fddb0       ?OnEditSelectAll@CFreePcbDoc@@QAEXXZ 00679db0 f   FreePcbDoc.obj
 0002:000fe240       ?OnEditPasteFromFile@CFreePcbDoc@@QAEXXZ 0067a240 f   FreePcbDoc.obj
 0002:000fe3d0       ?PasteFromFile@CFreePcbDoc@@QAEXV?$CStringT@DV?$StrTraitMFC_DLL@DV?$ChTraitsCRT@D@ATL@@@@@ATL@@H@Z 0067a3d0 f   FreePcbDoc.obj
 0002:000ffef0       ?PurgeFootprintCache@CFreePcbDoc@@QAEXXZ 0067bef0 f   FreePcbDoc.obj
 0002:00100110       ?OnFileGerbV@CFreePcbDoc@@QAEXV?$CStringT@DV?$StrTraitMFC_DLL@DV?$ChTraitsCRT@D@ATL@@@@@ATL@@0@Z 0067c110 f   FreePcbDoc.obj
 0002:001008f0       ?OnFileExportDsn@CFreePcbDoc@@QAEXXZ 0067c8f0 f   FreePcbDoc.obj
 0002:00101490       ?OnFileImportSes@CFreePcbDoc@@QAEXXZ 0067d490 f   FreePcbDoc.obj
 0002:00102bd0       ?OnEditUndo@CFreePcbDoc@@QAEXXZ 0067ebd0 f   FreePcbDoc.obj
 0002:00102d20       ?OnEditRedo@CFreePcbDoc@@QAEXXZ 0067ed20 f   FreePcbDoc.obj
 0002:00102e80       ?ResetUndoState@CFreePcbDoc@@QAEXXZ 0067ee80 f   FreePcbDoc.obj
 0002:00102f00       ?OnRepeatDrc@CFreePcbDoc@@QAEXXZ 0067ef00 f   FreePcbDoc.obj
 0002:00102ff0       ?OnFileGenerate3DFile@CFreePcbDoc@@QAEXXZ 0067eff0 f   FreePcbDoc.obj
 0002:001061b0       ?OnFileGenerateReportFile@CFreePcbDoc@@QAEXXZ 006821b0 f   FreePcbDoc.obj
 0002:00106400       ?GetNumBoards@CFreePcbDoc@@QAEHXZ 00682400 f   FreePcbDoc.obj
 0002:001064f0       ?GetNumSMCutouts@CFreePcbDoc@@QAEHXZ 006824f0 f   FreePcbDoc.obj
 0002:001065e0       ?GetNumGraphics@CFreePcbDoc@@QAEHXZ 006825e0 f   FreePcbDoc.obj
 0002:001066d0       ?OPRefreshID@CFreePcbDoc@@QAEXXZ 006826d0 f   FreePcbDoc.obj
 0002:001067f0       ?CombineBoardOutlines@CFreePcbDoc@@QAEHHH@Z 006827f0 f   FreePcbDoc.obj
 0002:001072a0       ?ClipOP@CFreePcbDoc@@QAEXH@Z 006832a0 f   FreePcbDoc.obj
 0002:00107730       ?OnProjectCombineBoard@CFreePcbDoc@@QAEXXZ 00683730 f   FreePcbDoc.obj
 0002:001077e0       ?ProjectCombineBoard@CFreePcbDoc@@QAEXH@Z 006837e0 f   FreePcbDoc.obj
 0002:00107ea0       ?OnProjectCombineNets@CFreePcbDoc@@QAEXXZ 00683ea0 f   FreePcbDoc.obj
 0002:00107f00       ?ProjectCombineNets@CFreePcbDoc@@QAEHPAVCNetList@@@Z 00683f00 f   FreePcbDoc.obj
 0002:00108ab0       ?OnFileLoadLibrary@CFreePcbDoc@@QAEXXZ 00684ab0 f   FreePcbDoc.obj
 0002:00108d30       ?FileLoadLibrary@CFreePcbDoc@@QAEXPBD@Z 00684d30 f   FreePcbDoc.obj
 0002:00109670       ?OnFileSaveLibrary@CFreePcbDoc@@QAEXXZ 00685670 f   FreePcbDoc.obj
 0002:00109aa0       ?RemoveOrphanMerges@CFreePcbDoc@@QAEXXZ 00685aa0 f   FreePcbDoc.obj
 0002:0010a510       ?DRC@CFreePcbDoc@@QAEXXZ   00686510 f   FreePcbDoc.obj
 0002:0011fb20       ?PartFootprintChanged@CNetList@@QAEHPAVcpart@@PAV?$CStringT@DV?$StrTraitMFC_DLL@DV?$ChTraitsCRT@D@ATL@@@@@ATL@@@Z 0069bb20 f   NetList.obj
 0002:00121010       ?OptimizeConnections@CNetList@@QAEHPAVcnet@@HHHH@Z 0069d010 f   NetList.obj
 0002:00122d60       ?ImportNetListInfo@CNetList@@QAEXPAV?$CArray@Unet_info@@ABU1@@@HPAVCDlgLog@@HHH@Z 0069ed60 f   NetList.obj
 0002:00123fb0       ?CheckNetlist@CNetList@@QAEHPAV?$CStringT@DV?$StrTraitMFC_DLL@DV?$ChTraitsCRT@D@ATL@@@@@ATL@@@Z 0069ffb0 f   NetList.obj
 0002:001250a0       ?GetGerberPathes@CFreePcbDoc@@QAEHV?$CStringT@DV?$StrTraitMFC_DLL@DV?$ChTraitsCRT@D@ATL@@@@@ATL@@@Z 006a10a0 f   FreePcbDoc.obj
 0002:001267a0       ?DrcTestforDlElement@CFreePcbDoc@@QAEPAVcnet@@PAVdl_element@@PAVid@@PAH222PAPAVcpart@@PAPAVCText@@PAPAV2@@Z 006a27a0 f   FreePcbDoc.obj
 0002:00128970       ?CheckUpdates@CFreePcbDoc@@QAEHXZ 006a4970 f   FreePcbDoc.obj
 0002:0012a8c0       ?EnsureNotMinimized@CFreePcbDoc@@QAEXPAUHWND__@@H@Z 006a68c0 f   FreePcbDoc.obj
 0002:0012ad50       ?FindSchematicFile@CFreePcbDoc@@QAE?AV?$CStringT@DV?$StrTraitMFC_DLL@DV?$ChTraitsCRT@D@ATL@@@@@ATL@@XZ 006a6d50 f   FreePcbDoc.obj
 0002:0012b130       ?SwitchTo__ECDS@CFreePcbDoc@@QAEXXZ 006a7130 f   FreePcbDoc.obj
 0002:0012b190       ?SwitchTo_ECDS@CFreePcbDoc@@QAEXH@Z 006a7190 f   FreePcbDoc.obj
 0002:0012c520       ?GetAdapter@CDocument@@UAEPAUIDocument@ATL@@XZ 006a8520 f i FreePcbDoc.obj
 0002:0012c6f0       ??0CDocumentAdapter@CDocument@@QAE@PAV1@@Z 006a86f0 f i FreePcbDoc.obj
 0002:0012c760       ??0IDocument@ATL@@IAE@XZ   006a8760 f i FreePcbDoc.obj
 0002:0012c7b0       ?AddRef@IDocument@ATL@@UAEJXZ 006a87b0 f i FreePcbDoc.obj
 0002:0012c810       ?Release@IDocument@ATL@@UAEJXZ 006a8810 f i FreePcbDoc.obj
 0002:0012c910       ??_EIDocument@ATL@@UAEPAXI@Z 006a8910 f i FreePcbDoc.obj
 0002:0012c910       ??_GIDocument@ATL@@UAEPAXI@Z 006a8910 f i FreePcbDoc.obj
 0002:0012c980       ??1IDocument@ATL@@UAE@XZ   006a8980 f i FreePcbDoc.obj
 0002:0012c9c0       ?LoadFromStream@CDocumentAdapter@CDocument@@UAEJPAUIStream@@K@Z 006a89c0 f i FreePcbDoc.obj
 0002:0012caf0       ??0CTraceFileAndLineInfo@ATL@@QAE@PBDH@Z 006a8af0 f i FreePcbDoc.obj
 0002:0012cb40       ??RCTraceFileAndLineInfo@ATL@@QBAXPBDZZ 006a8b40 f i FreePcbDoc.obj
 0002:0012cbd0       ?TraceV@CTrace@ATL@@QBAXPBDHKI0PAD@Z 006a8bd0 f i FreePcbDoc.obj
 0002:0012cc40       ??BCTraceCategory@ATL@@QBEKXZ 006a8c40 f i FreePcbDoc.obj
 0002:0012cc80       ?InitializeSearchContent@CDocumentAdapter@CDocument@@UAEXXZ 006a8c80 f i FreePcbDoc.obj
 0002:0012cd50       ?ClearChunkList@CDocumentAdapter@CDocument@@UAEXXZ 006a8d50 f i FreePcbDoc.obj
 0002:0012ce20       ?SetChunkValue@CDocumentAdapter@CDocument@@UAEHPAUIFilterChunkValue@ATL@@@Z 006a8e20 f i FreePcbDoc.obj
 0002:0012cef0       ?BeginReadChunks@CDocumentAdapter@CDocument@@UAEXXZ 006a8ef0 f i FreePcbDoc.obj
 0002:0012cfc0       ?ReadNextChunkValue@CDocumentAdapter@CDocument@@UAEHPAPAUIFilterChunkValue@ATL@@@Z 006a8fc0 f i FreePcbDoc.obj
 0002:0012d090       ?RemoveChunk@CDocumentAdapter@CDocument@@UAEXABU_GUID@@K@Z 006a9090 f i FreePcbDoc.obj
 0002:0012d170       ?FindChunk@CDocumentAdapter@CDocument@@UAEPAU__POSITION@@ABU_GUID@@K@Z 006a9170 f i FreePcbDoc.obj
 0002:0012d250       ?GetContainer@CDocumentAdapter@CDocument@@UBEPAXXZ 006a9250 f i FreePcbDoc.obj
 0002:0012d290       ?GetThumbnail@CDocumentAdapter@CDocument@@UAEHIPAPAUHBITMAP__@@PAW4WTS_ALPHATYPE@@@Z 006a9290 f i FreePcbDoc.obj
 0002:0012d370       ?OnBeforeRichPreviewFontChanged@CDocument@@UAEXXZ 006a9370 f i FreePcbDoc.obj
 0002:0012d3b0       ?OnRichPreviewFontChanged@CDocument@@UAEXXZ 006a93b0 f i FreePcbDoc.obj
 0002:0012d3f0       ?OnRichPreviewTextColorChanged@CDocument@@UAEXXZ 006a93f0 f i FreePcbDoc.obj
 0002:0012d430       ?OnRichPreviewBackColorChanged@CDocument@@UAEXXZ 006a9430 f i FreePcbDoc.obj
 0002:0012d470       ?OnRichPreviewSiteChanged@CDocument@@UAEXXZ 006a9470 f i FreePcbDoc.obj
 0002:0012d4b0       ?InitializeSearchContent@CDocument@@UAEXXZ 006a94b0 f i FreePcbDoc.obj
 0002:0012d530       ??_ECDocumentAdapter@CDocument@@UAEPAXI@Z 006a9530 f i FreePcbDoc.obj
 0002:0012d530       ??_GCDocumentAdapter@CDocument@@UAEPAXI@Z 006a9530 f i FreePcbDoc.obj
 0002:0012d5a0       ??1CDocumentAdapter@CDocument@@UAE@XZ 006a95a0 f i FreePcbDoc.obj
 0002:0012d6c0       ?ReadMessageFromSchematic@CFreePcbDoc@@QAEHPAV?$CStringT@DV?$StrTraitMFC_DLL@DV?$ChTraitsCRT@D@ATL@@@@@ATL@@H@Z 006a96c0 f   FreePcbDoc.obj
 0002:0012de70       ?AddViaGrid@CFreePcbDoc@@QAEXXZ 006a9e70 f   FreePcbDoc.obj
 0002:001305e0       ?ChannelDuplication@CFreePcbDoc@@QAEXXZ 006ac5e0 f   FreePcbDoc.obj
 0002:001308c0       ?OnFilePrint@CFreePcbDoc@@QAEXXZ 006ac8c0 f   FreePcbDoc.obj
 0002:00130c70       ?FilePrint@CFreePcbDoc@@QAEXHHHHHPAUtagRECT@@@Z 006acc70 f   FreePcbDoc.obj
 0002:00135850       ?RestoreConnectionsAndAreas@CNetList@@QAEXPAV1@HPAVCDlgLog@@@Z 006b1850 f   NetList.obj
 0002:00136b50       ?OnProtection@CFreePcbDoc@@QAEXXZ 006b2b50 f   FreePcbDoc.obj
 0002:00136c50       ?OnInvertColors@CFreePcbDoc@@QAEXXZ 006b2c50 f   FreePcbDoc.obj
 0002:00136cd0       ?OnSwapImages@CFreePcbDoc@@QAEXXZ 006b2cd0 f   FreePcbDoc.obj
 0002:00136d50       ?OnAddTopImage@CFreePcbDoc@@QAEXXZ 006b2d50 f   FreePcbDoc.obj
 0002:001370e0       ?OnAddBottomImage@CFreePcbDoc@@QAEXXZ 006b30e0 f   FreePcbDoc.obj
 0002:00137470       ?OnDeleteTopImage@CFreePcbDoc@@QAEXXZ 006b3470 f   FreePcbDoc.obj
 0002:001376c0       ?OnDeleteBottomImage@CFreePcbDoc@@QAEXXZ 006b36c0 f   FreePcbDoc.obj
 0002:00137910       ?AddBoardHoles@CFreePcbDoc@@QAEXH@Z 006b3910 f   FreePcbDoc.obj
 0002:00137fc0       ?CancelBoardHoles@CFreePcbDoc@@QAEXH@Z 006b3fc0 f   FreePcbDoc.obj
 0002:00138030       ?ClipClear@CFreePcbDoc@@QAEXXZ 006b4030 f   FreePcbDoc.obj
 0002:001380d0       ?OnSelectProjectFolder@CFreePcbDoc@@QAEXXZ 006b40d0 f   FreePcbDoc.obj
 0002:00138130       ?OnReloadMenu@CFreePcbDoc@@QAEXXZ 006b4130 f   FreePcbDoc.obj
 0002:00138290       ?OnSpeedFile@CFreePcbDoc@@QAEHI@Z 006b4290 f   FreePcbDoc.obj
 0002:00138300       ??8ATL@@YA_NABV?$CStringT@DV?$StrTraitMFC_DLL@DV?$ChTraitsCRT@D@ATL@@@@@0@D@Z 006b4300 f i FreePcbDoc.obj
 0002:001383b0       ?GetAt@?$CArray@VCPoint@@ABV1@@@QAEAAVCPoint@@H@Z 006b43b0 f i FreePcbDoc.obj
 0002:00138460       ?RemoveAll@?$CArray@Vpadstack@@ABV1@@@QAEXXZ 006b4460 f i FreePcbDoc.obj
 0002:001384c0       ?Add@?$CArray@Vpadstack@@ABV1@@@QAEHABVpadstack@@@Z 006b44c0 f i FreePcbDoc.obj
 0002:00138530       ??0?$CArray@VCPolyLine@@ABV1@@@QAE@XZ 006b4530 f i FreePcbDoc.obj
 0002:001385c0       ?RemoveAll@?$CArray@VCPolyLine@@ABV1@@@QAEXXZ 006b45c0 f i FreePcbDoc.obj
 0002:00138620       ??A?$CArray@PAVcnet@@ABQAV1@@@QAEAAPAVcnet@@H@Z 006b4620 f i FreePcbDoc.obj
 0002:00138680       ?GetSize@?$CArray@Vcconnect@@ABV1@@@QBEHXZ 006b4680 f i FreePcbDoc.obj
 0002:001386c0       ??0?$CArray@NABN@@QAE@XZ   006b46c0 f i FreePcbDoc.obj
 0002:00138750       ?GetSize@?$CArray@NABN@@QBEHXZ 006b4750 f i FreePcbDoc.obj
 0002:00138790       ?RemoveAll@?$CArray@NABN@@QAEXXZ 006b4790 f i FreePcbDoc.obj
 0002:001387f0       ?Add@?$CArray@NABN@@QAEHABN@Z 006b47f0 f i FreePcbDoc.obj
 0002:00138860       ??A?$CArray@NABN@@QAEAANH@Z 006b4860 f i FreePcbDoc.obj
 0002:001388c0       ?GetAt@?$CArray@PAVCShape@@ABQAV1@@@QAEAAPAVCShape@@H@Z 006b48c0 f i FreePcbDoc.obj
 0002:00138970       ??0?$CArray@Vcnode@@ABV1@@@QAE@XZ 006b4970 f i FreePcbDoc.obj
 0002:00138a00       ?GetSize@?$CArray@Vcnode@@ABV1@@@QBEHXZ 006b4a00 f i FreePcbDoc.obj
 0002:00138a40       ?SetSize@?$CArray@Vcnode@@ABV1@@@QAEXHH@Z 006b4a40 f i FreePcbDoc.obj
 0002:00139140       ??A?$CArray@Vcnode@@ABV1@@@QAEAAVcnode@@H@Z 006b5140 f i FreePcbDoc.obj
 0002:001391a0       ??1?$CArray@Vcnode@@ABV1@@@UAE@XZ 006b51a0 f i FreePcbDoc.obj
 0002:001392d0       ?Serialize@?$CArray@Vcnode@@ABV1@@@UAEXAAVCArchive@@@Z 006b52d0 f i FreePcbDoc.obj
 0002:001393a0       ?Dump@?$CArray@Vcnode@@ABV1@@@UBEXAAVCDumpContext@@@Z 006b53a0 f i FreePcbDoc.obj
 0002:00139480       ?AssertValid@?$CArray@Vcnode@@ABV1@@@UBEXXZ 006b5480 f i FreePcbDoc.obj
 0002:001395e0       ??0?$CArray@Vcpath@@ABV1@@@QAE@XZ 006b55e0 f i FreePcbDoc.obj
 0002:00139670       ?GetSize@?$CArray@Vcpath@@ABV1@@@QBEHXZ 006b5670 f i FreePcbDoc.obj
 0002:001396b0       ?SetSize@?$CArray@Vcpath@@ABV1@@@QAEXHH@Z 006b56b0 f i FreePcbDoc.obj
 0002:00139db0       ??A?$CArray@Vcpath@@ABV1@@@QAEAAVcpath@@H@Z 006b5db0 f i FreePcbDoc.obj
 0002:00139e10       ??1?$CArray@Vcpath@@ABV1@@@UAE@XZ 006b5e10 f i FreePcbDoc.obj
 0002:00139f40       ?Serialize@?$CArray@Vcpath@@ABV1@@@UAEXAAVCArchive@@@Z 006b5f40 f i FreePcbDoc.obj
 0002:0013a010       ?Dump@?$CArray@Vcpath@@ABV1@@@UBEXAAVCDumpContext@@@Z 006b6010 f i FreePcbDoc.obj
 0002:0013a0f0       ?AssertValid@?$CArray@Vcpath@@ABV1@@@UBEXXZ 006b60f0 f i FreePcbDoc.obj
 0002:0013a250       ??0?$CArray@VCArc@@ABV1@@@QAE@XZ 006b6250 f i FreePcbDoc.obj
 0002:0013a2e0       ??1?$CArray@VCArc@@ABV1@@@UAE@XZ 006b62e0 f i FreePcbDoc.obj
 0002:0013a3f0       ?Serialize@?$CArray@VCArc@@ABV1@@@UAEXAAVCArchive@@@Z 006b63f0 f i FreePcbDoc.obj
 0002:0013a4c0       ?Dump@?$CArray@VCArc@@ABV1@@@UBEXAAVCDumpContext@@@Z 006b64c0 f i FreePcbDoc.obj
 0002:0013a5a0       ?AssertValid@?$CArray@VCArc@@ABV1@@@UBEXXZ 006b65a0 f i FreePcbDoc.obj
 0002:0013a700       ??0?$CArray@PAVCPolyLine@@ABQAV1@@@QAE@XZ 006b6700 f i FreePcbDoc.obj
 0002:0013a790       ??A?$CArray@PAVCPolyLine@@ABQAV1@@@QAEAAPAVCPolyLine@@H@Z 006b6790 f i FreePcbDoc.obj
 0002:0013a7f0       ?Serialize@?$CArray@PAVCPolyLine@@ABQAV1@@@UAEXAAVCArchive@@@Z 006b67f0 f i FreePcbDoc.obj
 0002:0013a8c0       ?Dump@?$CArray@PAVCPolyLine@@ABQAV1@@@UBEXAAVCDumpContext@@@Z 006b68c0 f i FreePcbDoc.obj
 0002:0013a9a0       ?AssertValid@?$CArray@PAVCPolyLine@@ABQAV1@@@UBEXXZ 006b69a0 f i FreePcbDoc.obj
 0002:0013ab00       ??_E?$CArray@Vcnode@@ABV1@@@UAEPAXI@Z 006b6b00 f i FreePcbDoc.obj
 0002:0013ab00       ??_G?$CArray@Vcnode@@ABV1@@@UAEPAXI@Z 006b6b00 f i FreePcbDoc.obj
 0002:0013ab70       ??_Gcnode@@QAEPAXI@Z       006b6b70 f i FreePcbDoc.obj
 0002:0013abe0       ??0cnode@@QAE@XZ           006b6be0 f i FreePcbDoc.obj
 0002:0013ac90       ??_E?$CArray@Vcpath@@ABV1@@@UAEPAXI@Z 006b6c90 f i FreePcbDoc.obj
 0002:0013ac90       ??_G?$CArray@Vcpath@@ABV1@@@UAEPAXI@Z 006b6c90 f i FreePcbDoc.obj
 0002:0013ad00       ??_Gcpath@@QAEPAXI@Z       006b6d00 f i FreePcbDoc.obj
 0002:0013ad70       ??0cpath@@QAE@XZ           006b6d70 f i FreePcbDoc.obj
 0002:0013add0       ??_E?$CArray@VCArc@@ABV1@@@UAEPAXI@Z 006b6dd0 f i FreePcbDoc.obj
 0002:0013add0       ??_G?$CArray@VCArc@@ABV1@@@UAEPAXI@Z 006b6dd0 f i FreePcbDoc.obj
 0002:0013ae40       ??_G?$CArray@PAVCPolyLine@@ABQAV1@@@UAEPAXI@Z 006b6e40 f i FreePcbDoc.obj
 0002:0013ae40       ??_E?$CArray@PAVCPolyLine@@ABQAV1@@@UAEPAXI@Z 006b6e40 f i FreePcbDoc.obj
 0002:0013aeb0       ??1?$CArray@PAVCPolyLine@@ABQAV1@@@UAE@XZ 006b6eb0 f i FreePcbDoc.obj
 0002:0013afc0       ??1cnode@@QAE@XZ           006b6fc0 f i FreePcbDoc.obj
 0002:0013b070       ??1cpath@@QAE@XZ           006b7070 f i FreePcbDoc.obj
 0002:0013b0d0       ?SetAtGrow@?$CArray@Vpadstack@@ABV1@@@QAEXHABVpadstack@@@Z 006b70d0 f i FreePcbDoc.obj
 0002:0013b1a0       ?ElementAt@?$CArray@PAVcnet@@ABQAV1@@@QAEAAPAVcnet@@H@Z 006b71a0 f i FreePcbDoc.obj
 0002:0013b250       ?ElementAt@?$CArray@NABN@@QAEAANH@Z 006b7250 f i FreePcbDoc.obj
 0002:0013b300       ?SetAtGrow@?$CArray@NABN@@QAEXHABN@Z 006b7300 f i FreePcbDoc.obj
 0002:0013b3d0       ?ElementAt@?$CArray@Vcnode@@ABV1@@@QAEAAVcnode@@H@Z 006b73d0 f i FreePcbDoc.obj
 0002:0013b480       ??$SerializeElements@Vcnode@@@@YGXAAVCArchive@@PAVcnode@@H@Z 006b7480 f i FreePcbDoc.obj
 0002:0013b670       ??$DumpElements@Vcnode@@@@YGXAAVCDumpContext@@PBVcnode@@H@Z 006b7670 f i FreePcbDoc.obj
 0002:0013b760       ?ElementAt@?$CArray@Vcpath@@ABV1@@@QAEAAVcpath@@H@Z 006b7760 f i FreePcbDoc.obj
 0002:0013b810       ??$SerializeElements@Vcpath@@@@YGXAAVCArchive@@PAVcpath@@H@Z 006b7810 f i FreePcbDoc.obj
 0002:0013ba00       ??$DumpElements@Vcpath@@@@YGXAAVCDumpContext@@PBVcpath@@H@Z 006b7a00 f i FreePcbDoc.obj
 0002:0013baf0       ?SetSize@?$CArray@VCArc@@ABV1@@@QAEXHH@Z 006b7af0 f i FreePcbDoc.obj
 0002:0013c090       ??$SerializeElements@VCArc@@@@YGXAAVCArchive@@PAVCArc@@H@Z 006b8090 f i FreePcbDoc.obj
 0002:0013c280       ??$DumpElements@VCArc@@@@YGXAAVCDumpContext@@PBVCArc@@H@Z 006b8280 f i FreePcbDoc.obj
 0002:0013c370       ?SetSize@?$CArray@PAVCPolyLine@@ABQAV1@@@QAEXHH@Z 006b8370 f i FreePcbDoc.obj
 0002:0013c900       ?ElementAt@?$CArray@PAVCPolyLine@@ABQAV1@@@QAEAAPAVCPolyLine@@H@Z 006b8900 f i FreePcbDoc.obj
 0002:0013c9b0       ??$SerializeElements@PAVCPolyLine@@@@YGXAAVCArchive@@PAPAVCPolyLine@@H@Z 006b89b0 f i FreePcbDoc.obj
 0002:0013cba0       ??$DumpElements@PAVCPolyLine@@@@YGXAAVCDumpContext@@PBQAVCPolyLine@@H@Z 006b8ba0 f i FreePcbDoc.obj
 0002:0013cc90       ??0?$CArray@Vcpath_pt@@ABV1@@@QAE@XZ 006b8c90 f i FreePcbDoc.obj
 0002:0013cd20       ?GetGridStyle@CDisplayList@@QAEHXZ 006b8d20 f i FreePcbDoc.obj
 0002:0013cd60       ?SetGridStyle@CDisplayList@@QAEXH@Z 006b8d60 f i FreePcbDoc.obj
 0002:0013cdb0       ?GetTopLayer@CDisplayList@@QAEHXZ 006b8db0 f i FreePcbDoc.obj
 0002:0013cdf0       ??0Merge@@QAE@XZ           006b8df0 f i FreePcbDoc.obj
 0002:0013cef0       ??1Merge@@UAE@XZ           006b8ef0 f i FreePcbDoc.obj
 0002:0013cfc0       ?AddNew@Merge@@QAEHV?$CStringT@DV?$StrTraitMFC_DLL@DV?$ChTraitsCRT@D@ATL@@@@@ATL@@H@Z 006b8fc0 f i FreePcbDoc.obj
 0002:0013d1f0       ?GetClearance@Merge@@QAEHH@Z 006b91f0 f i FreePcbDoc.obj
 0002:0013d270       ?Clear@Merge@@QAEXXZ       006b9270 f i FreePcbDoc.obj
 0002:0013d2f0       ?CopyFrom@Merge@@QAEXPAV1@@Z 006b92f0 f i FreePcbDoc.obj
 0002:0013d4e0       ?mark0@Merge@@QAEXXZ       006b94e0 f i FreePcbDoc.obj
 0002:0013d570       ?GetMark@Merge@@QAEHH@Z    006b9570 f i FreePcbDoc.obj
 0002:0013d5f0       ??_EMerge@@UAEPAXI@Z       006b95f0 f i FreePcbDoc.obj
 0002:0013d5f0       ??_GMerge@@UAEPAXI@Z       006b95f0 f i FreePcbDoc.obj
 0002:0013d660       ?GetUtility@CPolyLine@@QAEHXZ 006b9660 f i FreePcbDoc.obj
 0002:0013d6a0       ?SetUtility@CPolyLine@@QAEXH@Z 006b96a0 f i FreePcbDoc.obj
 0002:0013d6f0       ?GetGpcPoly@CPolyLine@@QAEPAUgpc_polygon@@XZ 006b96f0 f i FreePcbDoc.obj
 0002:0013d730       ?Set_default_mask_clearance@CPartList@@QAEXH@Z 006b9730 f i FreePcbDoc.obj
 0002:0013d780       ?Set_default_paste_clearance@CPartList@@QAEXH@Z 006b9780 f i FreePcbDoc.obj
 0002:0013d7d0       ?UseNetList@CPartList@@QAEXPAVCNetList@@@Z 006b97d0 f i FreePcbDoc.obj
 0002:0013d820       ?SetShapeCacheMap@CPartList@@QAEXPAVCMapStringToPtr@@@Z 006b9820 f i FreePcbDoc.obj
 0002:0013d870       ?SetNumCopperLayers@CPartList@@QAEXH@Z 006b9870 f i FreePcbDoc.obj
 0002:0013d8c0       ?SetNumCopperLayers@CNetList@@QAEXH@Z 006b98c0 f i FreePcbDoc.obj
 0002:0013d910       ?SetSMTconnect@CNetList@@QAEXH@Z 006b9910 f i FreePcbDoc.obj
 0002:0013d960       ?OnFileCam1@CFreePcbDoc@@QAEXXZ 006b9960 f i FreePcbDoc.obj
 0002:0013da70       ?OnFileCam2@CFreePcbDoc@@QAEXXZ 006b9a70 f i FreePcbDoc.obj
 0002:0013db80       ?OnFileCam3@CFreePcbDoc@@QAEXXZ 006b9b80 f i FreePcbDoc.obj
 0002:0013dc90       ?OnFileCam4@CFreePcbDoc@@QAEXXZ 006b9c90 f i FreePcbDoc.obj
 0002:0013dda0       ?OnFileCam5@CFreePcbDoc@@QAEXXZ 006b9da0 f i FreePcbDoc.obj
 0002:0013deb0       ?OnFileCam6@CFreePcbDoc@@QAEXXZ 006b9eb0 f i FreePcbDoc.obj
 0002:0013dfc0       ?OnFileCam7@CFreePcbDoc@@QAEXXZ 006b9fc0 f i FreePcbDoc.obj
 0002:0013e0d0       ?OnFileCam8@CFreePcbDoc@@QAEXXZ 006ba0d0 f i FreePcbDoc.obj
 0002:0013e1e0       ?OnFileCam9@CFreePcbDoc@@QAEXXZ 006ba1e0 f i FreePcbDoc.obj
 0002:0013e2f0       ?OnFileCam10@CFreePcbDoc@@QAEXXZ 006ba2f0 f i FreePcbDoc.obj
 0002:0013e400       ?OnFileCam11@CFreePcbDoc@@QAEXXZ 006ba400 f i FreePcbDoc.obj
 0002:0013e510       ?OnFileCam12@CFreePcbDoc@@QAEXXZ 006ba510 f i FreePcbDoc.obj
 0002:0013e620       ?OnFileCam13@CFreePcbDoc@@QAEXXZ 006ba620 f i FreePcbDoc.obj
 0002:0013e730       ?OnFileCam14@CFreePcbDoc@@QAEXXZ 006ba730 f i FreePcbDoc.obj
 0002:0013e840       ?OnFileCam15@CFreePcbDoc@@QAEXXZ 006ba840 f i FreePcbDoc.obj
 0002:0013e950       ?OnFileCam16@CFreePcbDoc@@QAEXXZ 006ba950 f i FreePcbDoc.obj
 0002:0013ea60       ?OnFileCam17@CFreePcbDoc@@QAEXXZ 006baa60 f i FreePcbDoc.obj
 0002:0013eb70       ?OnFileCam18@CFreePcbDoc@@QAEXXZ 006bab70 f i FreePcbDoc.obj
 0002:0013ec80       ?OnFileCam19@CFreePcbDoc@@QAEXXZ 006bac80 f i FreePcbDoc.obj
 0002:0013ed90       ?OnFileCam20@CFreePcbDoc@@QAEXXZ 006bad90 f i FreePcbDoc.obj
 0002:0013eea0       ?OnFileCam21@CFreePcbDoc@@QAEXXZ 006baea0 f i FreePcbDoc.obj
 0002:0013efb0       ?InvalidateLeftPane@CFreePcbView@@QAEXXZ 006bafb0 f i FreePcbDoc.obj
 0002:0013f000       ?RemoveAll@?$CArray@HABH@@QAEXXZ 006bb000 f i FreePcbDoc.obj
 0002:0013f060       ??1?$CArray@VCPolyLine@@ABV1@@@UAE@XZ 006bb060 f i FreePcbDoc.obj
 0002:0013f190       ?Serialize@?$CArray@VCPolyLine@@ABV1@@@UAEXAAVCArchive@@@Z 006bb190 f i FreePcbDoc.obj
 0002:0013f260       ?Dump@?$CArray@VCPolyLine@@ABV1@@@UBEXAAVCDumpContext@@@Z 006bb260 f i FreePcbDoc.obj
 0002:0013f340       ?AssertValid@?$CArray@VCPolyLine@@ABV1@@@UBEXXZ 006bb340 f i FreePcbDoc.obj
 0002:0013f4a0       ?GetSize@?$CArray@Vcpath_pt@@ABV1@@@QBEHXZ 006bb4a0 f i FreePcbDoc.obj
 0002:0013f4e0       ??A?$CArray@Vcpath_pt@@ABV1@@@QAEAAVcpath_pt@@H@Z 006bb4e0 f i FreePcbDoc.obj
 0002:0013f540       ??1?$CArray@Vcpath_pt@@ABV1@@@UAE@XZ 006bb540 f i FreePcbDoc.obj
 0002:0013f650       ?Serialize@?$CArray@Vcpath_pt@@ABV1@@@UAEXAAVCArchive@@@Z 006bb650 f i FreePcbDoc.obj
 0002:0013f720       ?Dump@?$CArray@Vcpath_pt@@ABV1@@@UBEXAAVCDumpContext@@@Z 006bb720 f i FreePcbDoc.obj
 0002:0013f800       ?AssertValid@?$CArray@Vcpath_pt@@ABV1@@@UBEXXZ 006bb800 f i FreePcbDoc.obj
 0002:0013f960       ??1?$CArray@NABN@@UAE@XZ   006bb960 f i FreePcbDoc.obj
 0002:0013fa70       ?Serialize@?$CArray@NABN@@UAEXAAVCArchive@@@Z 006bba70 f i FreePcbDoc.obj
 0002:0013fb40       ?Dump@?$CArray@NABN@@UBEXAAVCDumpContext@@@Z 006bbb40 f i FreePcbDoc.obj
 0002:0013fc20       ?AssertValid@?$CArray@NABN@@UBEXXZ 006bbc20 f i FreePcbDoc.obj
 0002:0013fd80       ??_E?$CArray@VCPolyLine@@ABV1@@@UAEPAXI@Z 006bbd80 f i FreePcbDoc.obj
 0002:0013fd80       ??_G?$CArray@VCPolyLine@@ABV1@@@UAEPAXI@Z 006bbd80 f i FreePcbDoc.obj
 0002:0013fdf0       ??_G?$CArray@Vcpath_pt@@ABV1@@@UAEPAXI@Z 006bbdf0 f i FreePcbDoc.obj
 0002:0013fdf0       ??_E?$CArray@Vcpath_pt@@ABV1@@@UAEPAXI@Z 006bbdf0 f i FreePcbDoc.obj
 0002:0013fe60       ??_E?$CArray@NABN@@UAEPAXI@Z 006bbe60 f i FreePcbDoc.obj
 0002:0013fe60       ??_G?$CArray@NABN@@UAEPAXI@Z 006bbe60 f i FreePcbDoc.obj
 0002:0013fed0       ??$SerializeElements@VCPolyLine@@@@YGXAAVCArchive@@PAVCPolyLine@@H@Z 006bbed0 f i FreePcbDoc.obj
 0002:001400d0       ??$DumpElements@VCPolyLine@@@@YGXAAVCDumpContext@@PBVCPolyLine@@H@Z 006bc0d0 f i FreePcbDoc.obj
 0002:001401c0       ?SetSize@?$CArray@PAVcnet@@ABQAV1@@@QAEXHH@Z 006bc1c0 f i FreePcbDoc.obj
 0002:00140750       ?SetSize@?$CArray@Vcpath_pt@@ABV1@@@QAEXHH@Z 006bc750 f i FreePcbDoc.obj
 0002:00140cf0       ?ElementAt@?$CArray@Vcpath_pt@@ABV1@@@QAEAAVcpath_pt@@H@Z 006bccf0 f i FreePcbDoc.obj
 0002:00140da0       ??$SerializeElements@Vcpath_pt@@@@YGXAAVCArchive@@PAVcpath_pt@@H@Z 006bcda0 f i FreePcbDoc.obj
 0002:00140f90       ??$DumpElements@Vcpath_pt@@@@YGXAAVCDumpContext@@PBVcpath_pt@@H@Z 006bcf90 f i FreePcbDoc.obj
 0002:00141080       ?SetSize@?$CArray@NABN@@QAEXHH@Z 006bd080 f i FreePcbDoc.obj
 0002:00141610       ??$SerializeElements@N@@YGXAAVCArchive@@PANH@Z 006bd610 f i FreePcbDoc.obj
 0002:00141800       ??$DumpElements@N@@YGXAAVCDumpContext@@PBNH@Z 006bd800 f i FreePcbDoc.obj
 0002:001418f0       ?CreateObject@CFreePcbView@@SGPAVCObject@@XZ 006bd8f0 f   FreePcbView.obj
 0002:001419e0       ?_GetBaseClass@CFreePcbView@@KGPAUCRuntimeClass@@XZ 006bd9e0 f   FreePcbView.obj
 0002:00141a30       ?GetThisClass@CFreePcbView@@SGPAUCRuntimeClass@@XZ 006bda30 f   FreePcbView.obj
 0002:00141a70       ?GetRuntimeClass@CFreePcbView@@UBEPAUCRuntimeClass@@XZ 006bda70 f   FreePcbView.obj
 0002:00141ab0       ?GetMessageMap@CFreePcbView@@MBEPBUAFX_MSGMAP@@XZ 006bdab0 f   FreePcbView.obj
 0002:00141b00       ?GetThisMessageMap@CFreePcbView@@KGPBUAFX_MSGMAP@@XZ 006bdb00 f   FreePcbView.obj
 0002:00141b40       ??0CFreePcbView@@QAE@XZ    006bdb40 f   FreePcbView.obj
 0002:00141f20       ??_ECFreePcbView@@UAEPAXI@Z 006bdf20 f i FreePcbView.obj
 0002:00141f20       ??_GCFreePcbView@@UAEPAXI@Z 006bdf20 f i FreePcbView.obj
 0002:00141f90       ?InitInstance@CFreePcbView@@QAEXXZ 006bdf90 f   FreePcbView.obj
 0002:00142310       ?InitializeView@CFreePcbView@@QAEXXZ 006be310 f   FreePcbView.obj
 0002:001426d0       ??1CFreePcbView@@UAE@XZ    006be6d0 f   FreePcbView.obj
 0002:00142840       ?PreCreateWindow@CFreePcbView@@UAEHAAUtagCREATESTRUCTA@@@Z 006be840 f   FreePcbView.obj
 0002:001428a0       ?OnDraw@CFreePcbView@@UAEXPAVCDC@@@Z 006be8a0 f   FreePcbView.obj
 0002:00143ba0       ?OnPreparePrinting@CFreePcbView@@MAEHPAUCPrintInfo@@@Z 006bfba0 f   FreePcbView.obj
 0002:00143c00       ?OnBeginPrinting@CFreePcbView@@MAEXPAVCDC@@PAUCPrintInfo@@@Z 006bfc00 f   FreePcbView.obj
 0002:00143c40       ?OnEndPrinting@CFreePcbView@@MAEXPAVCDC@@PAUCPrintInfo@@@Z 006bfc40 f   FreePcbView.obj
 0002:00143c80       ?AssertValid@CFreePcbView@@UBEXXZ 006bfc80 f   FreePcbView.obj
 0002:00143cd0       ?Dump@CFreePcbView@@UBEXAAVCDumpContext@@@Z 006bfcd0 f   FreePcbView.obj
 0002:00143d30       ?GetDocument@CFreePcbView@@QAEPAVCFreePcbDoc@@XZ 006bfd30 f   FreePcbView.obj
 0002:00143dd0       ?OnSize@CFreePcbView@@IAEXIHH@Z 006bfdd0 f   FreePcbView.obj
 0002:00144410       ?OnLButtonUp@CFreePcbView@@QAEXIVCPoint@@@Z 006c0410 f   FreePcbView.obj
 0002:00153180       ?ReadNets@CNetList@@QAEHPAVCStdioFile@@NPAH@Z 006cf180 f   NetList.obj
 0002:00156ce0       ?abs@@YAMM@Z               006d2ce0 f i FreePcbView.obj
 0002:00156d40       _fabsf                     006d2d40 f i FreePcbView.obj
 0002:00156db0       ?OnLButtonDblClk@CFreePcbView@@IAEXIVCPoint@@@Z 006d2db0 f   FreePcbView.obj
 0002:00156e10       ?OnRButtonDown@CFreePcbView@@IAEXIVCPoint@@@Z 006d2e10 f   FreePcbView.obj
 0002:001590a0       ?OnSysKeyDown@CFreePcbView@@IAEXIII@Z 006d50a0 f   FreePcbView.obj
 0002:00159130       ?OnSysKeyUp@CFreePcbView@@IAEXIII@Z 006d5130 f   FreePcbView.obj
 0002:001591a0       ?OnKeyUp@CFreePcbView@@QAEXIII@Z 006d51a0 f   FreePcbView.obj
 0002:001593b0       ?OnKeyDown@CFreePcbView@@IAEXIII@Z 006d53b0 f   FreePcbView.obj
 0002:00159510       ?HandleKeyPress@CFreePcbView@@QAEXIII@Z 006d5510 f   FreePcbView.obj
 0002:001667b0       ?ClipAreaPolygon@CNetList@@QAEHPAVcnet@@HHHHHPAH@Z 006e27b0 f   NetList.obj
 0002:00167960       ?ImportNetRouting@CNetList@@QAEXPAV?$CStringT@DV?$StrTraitMFC_DLL@DV?$ChTraitsCRT@D@ATL@@@@@ATL@@PAV?$CArray@Vcnode@@ABV1@@@PAV?$CArray@Vcpath@@ABV1@@@HPAVCDlgLog@@H@Z 006e3960 f   NetList.obj
 0002:00169c60       ?strchr@@YAPADPADH@Z       006e5c60 f i FreePcbView.obj
 0002:00169cc0       ?OnMouseMove@CFreePcbView@@IAEXIVCPoint@@@Z 006e5cc0 f   FreePcbView.obj
 0002:0016b9e0       ?SetDCToWorldCoords@CFreePcbView@@QAEHPAVCDC@@@Z 006e79e0 f   FreePcbView.obj
 0002:0016ba80       ?SetCursorMode@CFreePcbView@@QAEXH@Z 006e7a80 f   FreePcbView.obj
 0002:0016bb80       ?SetFKText@CFreePcbView@@QAEXH@Z 006e7b80 f   FreePcbView.obj
 0002:0016e090       ?SegmentMovable@CFreePcbView@@QAEHXZ 006ea090 f   FreePcbView.obj
 0002:0016e590       ?DrawBottomPane@CFreePcbView@@QAEXXZ 006ea590 f   FreePcbView.obj
 0002:0016e950       ?ShowRelativeDistance@CFreePcbView@@QAEXHH@Z 006ea950 f   FreePcbView.obj
 0002:0016ed10       ?ShowRelativeDistance@CFreePcbView@@QAEXHHHH@Z 006ead10 f   FreePcbView.obj
 0002:0016f110       ?ShowSelectStatus@CFreePcbView@@QAEHXZ 006eb110 f   FreePcbView.obj
 0002:001737e0       ?ShowCursor@CFreePcbView@@QAEHXZ 006ef7e0 f   FreePcbView.obj
 0002:00173a90       ?ShowActiveLayer@CFreePcbView@@QAEHHH@Z 006efa90 f   FreePcbView.obj
 0002:00175300       ?OnMouseWheel@CFreePcbView@@IAEHIFVCPoint@@@Z 006f1300 f   FreePcbView.obj
 0002:00175c70       ?SelectPart@CFreePcbView@@QAEHPAVcpart@@H@Z 006f1c70 f   FreePcbView.obj
 0002:00175d60       ?CancelSelection@CFreePcbView@@QAEXH@Z 006f1d60 f   FreePcbView.obj
 0002:001768b0       ?TryToReselectAreaCorner@CFreePcbView@@QAEXHH@Z 006f28b0 f   FreePcbView.obj
 0002:00176a90       ?SetWidth@CFreePcbView@@QAEHH@Z 006f2a90 f   FreePcbView.obj
 0002:00177790       ?GetWidthsForSegment@CFreePcbView@@QAEHPAH00H@Z 006f3790 f   FreePcbView.obj
 0002:00177d70       ?OnProjectSelectArcElements@CFreePcbView@@QAEXXZ 006f3d70 f   FreePcbView.obj
 0002:001781d0       ?OnProjectSelectViaElements@CFreePcbView@@QAEXXZ 006f41d0 f   FreePcbView.obj
 0002:00178780       ?ProjectRunInfoBox@CFreePcbView@@QAEXXZ 006f4780 f   FreePcbView.obj
 0002:00178ae0       ?OnProjectRunInfoBox@CFreePcbView@@QAEXXZ 006f4ae0 f   FreePcbView.obj
 0002:00178b50       ?OnRangeCmds@CFreePcbView@@QAEXPAVCCmdUI@@@Z 006f4b50 f   FreePcbView.obj
 0002:00178bb0       ?OnSetOriginToSelectedItem@CFreePcbView@@QAEXXZ 006f4bb0 f   FreePcbView.obj
 0002:001790c0       ?OnContextMenu@CFreePcbView@@QAEXPAVCWnd@@VCPoint@@@Z 006f50c0 f   FreePcbView.obj
 0002:0017a4b0       ?OnAddArea@CFreePcbView@@QAEXXZ 006f64b0 f   FreePcbView.obj
 0002:0017af30       ?AreaAddCutout@CFreePcbView@@QAEXXZ 006f6f30 f   FreePcbView.obj
 0002:0017b160       ?OnAreaAddCutout@CFreePcbView@@QAEXXZ 006f7160 f   FreePcbView.obj
 0002:0017b1c0       ?AreaDeleteCutout@CFreePcbView@@QAEXXZ 006f71c0 f   FreePcbView.obj
 0002:0017b3a0       ?OnAreaDeleteCutout@CFreePcbView@@QAEXXZ 006f73a0 f   FreePcbView.obj
 0002:0017b3f0       ?OnPartMove@CFreePcbView@@QAEXXZ 006f73f0 f   FreePcbView.obj
 0002:0017b7f0       ?OnTextAdd@CFreePcbView@@QAEXXZ 006f77f0 f   FreePcbView.obj
 0002:0017bd70       ?OnTextDelete@CFreePcbView@@QAEXXZ 006f7d70 f   FreePcbView.obj
 0002:0017be30       ?OnTextMove@CFreePcbView@@QAEXXZ 006f7e30 f   FreePcbView.obj
 0002:0017bfd0       ?OnPartGlue@CFreePcbView@@QAEXXZ 006f7fd0 f   FreePcbView.obj
 0002:0017c080       ?OnPartUnglue@CFreePcbView@@QAEXXZ 006f8080 f   FreePcbView.obj
 0002:0017c170       ?DeletePart@CFreePcbView@@QAEXXZ 006f8170 f   FreePcbView.obj
 0002:0017c1e0       ?OnPartDelete@CFreePcbView@@QAEXXZ 006f81e0 f   FreePcbView.obj
 0002:0017c230       ?OnPartOptimize@CFreePcbView@@QAEXXZ 006f8230 f   FreePcbView.obj
 0002:0017c2e0       ?OnPartRemoveMerge@CFreePcbView@@QAEXXZ 006f82e0 f   FreePcbView.obj
 0002:0017c7c0       ?OnSelectSimilarParts@CFreePcbView@@QAEXXZ 006f87c0 f   FreePcbView.obj
 0002:0017c820       ?OnSelectSimilarPackages@CFreePcbView@@QAEXXZ 006f8820 f   FreePcbView.obj
 0002:0017c880       ?OnRefMove@CFreePcbView@@QAEXXZ 006f8880 f   FreePcbView.obj
 0002:0017c9d0       ?OnPadOptimize@CFreePcbView@@QAEXXZ 006f89d0 f   FreePcbView.obj
 0002:0017ca80       ?OnPadStartStubTrace@CFreePcbView@@QAEXXZ 006f8a80 f   FreePcbView.obj
 0002:0017d1a0       ?OnPadAddToNet@CFreePcbView@@QAEXXZ 006f91a0 f   FreePcbView.obj
 0002:0017d7b0       ?OnPadDetachFromNet@CFreePcbView@@QAEXXZ 006f97b0 f   FreePcbView.obj
 0002:0017db00       ?OnPadConnectToPin@CFreePcbView@@QAEXXZ 006f9b00 f   FreePcbView.obj
 0002:0017ddc0       ?OnVertexConnectToPin@CFreePcbView@@QAEXXZ 006f9dc0 f   FreePcbView.obj
 0002:0017df50       ?OnSegmentSetWidth@CFreePcbView@@QAEXXZ 006f9f50 f   FreePcbView.obj
 0002:0017e000       ?OnSegmentUnroute@CFreePcbView@@QAEXXZ 006fa000 f   FreePcbView.obj
 0002:0017e890       ?OnSegmentDelete@CFreePcbView@@QAEXXZ 006fa890 f   FreePcbView.obj
 0002:0017eb70       ?OnRatlineRoute@CFreePcbView@@QAEXXZ 006fab70 f   FreePcbView.obj
 0002:0017fcf0       ?OnRatlineOptimize@CFreePcbView@@QAEXXZ 006fbcf0 f   FreePcbView.obj
 0002:0017fdb0       ?OnRatlineChangeEndPin@CFreePcbView@@QAEXXZ 006fbdb0 f   FreePcbView.obj
 0002:0017ff60       ?OnVertexSize@CFreePcbView@@QAEXXZ 006fbf60 f   FreePcbView.obj
 0002:00180610       ?OnVertexMove@CFreePcbView@@QAEXXZ 006fc610 f   FreePcbView.obj
 0002:00180830       ?OnVertexDelete@CFreePcbView@@QAEXXZ 006fc830 f   FreePcbView.obj
 0002:00181330       ?OnEndVertexMove@CFreePcbView@@QAEXXZ 006fd330 f   FreePcbView.obj
 0002:00181490       ?OnEndVertexAddVia@CFreePcbView@@QAEXXZ 006fd490 f   FreePcbView.obj
 0002:00181590       ?OnEndVertexRemoveVia@CFreePcbView@@QAEXXZ 006fd590 f   FreePcbView.obj
 0002:00181760       ?OnEndVertexAddSegments@CFreePcbView@@QAEXXZ 006fd760 f   FreePcbView.obj
 0002:00181c70       ?OnEndVertexAddConnection@CFreePcbView@@QAEXXZ 006fdc70 f   FreePcbView.obj
 0002:00181cc0       ?OnEndVertexDelete@CFreePcbView@@QAEXXZ 006fdcc0 f   FreePcbView.obj
 0002:00181d10       ?OnEndVertexEdit@CFreePcbView@@QAEXXZ 006fdd10 f   FreePcbView.obj
 0002:00182020       ?OnRatlineComplete@CFreePcbView@@QAEXXZ 006fe020 f   FreePcbView.obj
 0002:001824b0       ?OnRatlineSetWidth@CFreePcbView@@QAEXXZ 006fe4b0 f   FreePcbView.obj
 0002:00182540       ?OnRatlineDeleteConnection@CFreePcbView@@QAEXXZ 006fe540 f   FreePcbView.obj
 0002:001826a0       ?OnRatlineLockConnection@CFreePcbView@@QAEXXZ 006fe6a0 f   FreePcbView.obj
 0002:00182800       ?OnRatlineUnlockConnection@CFreePcbView@@QAEXXZ 006fe800 f   FreePcbView.obj
 0002:00182940       ?OnTextEdit@CFreePcbView@@QAEXXZ 006fe940 f   FreePcbView.obj
 0002:001830b0       ?OnOPCornerMove@CFreePcbView@@QAEXXZ 006ff0b0 f   FreePcbView.obj
 0002:00183260       ?OnOPCornerEdit@CFreePcbView@@QAEXXZ 006ff260 f   FreePcbView.obj
 0002:00183880       ?OnOPCornerDelete@CFreePcbView@@QAEXXZ 006ff880 f   FreePcbView.obj
 0002:00183a20       ?OnOPSideAddCorner@CFreePcbView@@QAEXXZ 006ffa20 f   FreePcbView.obj
 0002:00183b50       ?OnOPDeleteOutline@CFreePcbView@@QAEXXZ 006ffb50 f   FreePcbView.obj
 0002:00183c40       ?OnAreaCornerMove@CFreePcbView@@QAEXXZ 006ffc40 f   FreePcbView.obj
 0002:00183df0       ?OnAreaCornerDelete@CFreePcbView@@QAEXXZ 006ffdf0 f   FreePcbView.obj
 0002:00183fa0       ?OnAreaCornerDeleteArea@CFreePcbView@@QAEXXZ 006fffa0 f   FreePcbView.obj
 0002:00184010       ?OnAreaSideAddCorner@CFreePcbView@@QAEXXZ 00700010 f   FreePcbView.obj
 0002:00184140       ?AreaSideDeleteArea@CFreePcbView@@QAEXXZ 00700140 f   FreePcbView.obj
 0002:00184260       ?OnAreaSideDeleteArea@CFreePcbView@@QAEXXZ 00700260 f   FreePcbView.obj
 0002:001842d0       ?CurNone@CFreePcbView@@QAEHXZ 007002d0 f   FreePcbView.obj
 0002:00184320       ?CurSelected@CFreePcbView@@QAEHXZ 00700320 f   FreePcbView.obj
 0002:001843a0       ?CurDragging@CFreePcbView@@QAEHXZ 007003a0 f   FreePcbView.obj
 0002:00184420       ?CurDraggingRouting@CFreePcbView@@QAEHXZ 00700420 f   FreePcbView.obj
 0002:00184580       ?CurDraggingPlacement@CFreePcbView@@QAEHXZ 00700580 f   FreePcbView.obj
 0002:00184690       ?SnapCursorPoint@CFreePcbView@@QAEXVCPoint@@I@Z 00700690 f   FreePcbView.obj
 0002:001866b0       ?OnChangeVisibleGrid@CFreePcbView@@QAEJIJ@Z 007026b0 f   FreePcbView.obj
 0002:00186780       ?OnChangePlacementGrid@CFreePcbView@@QAEJIJ@Z 00702780 f   FreePcbView.obj
 0002:00186820       ?OnChangeRoutingGrid@CFreePcbView@@QAEJIJ@Z 00702820 f   FreePcbView.obj
 0002:00186910       ?OnChangeSnapAngle@CFreePcbView@@QAEJIJ@Z 00702910 f   FreePcbView.obj
 0002:00186a40       ?OnChangeUnits@CFreePcbView@@QAEJIJ@Z 00702a40 f   FreePcbView.obj
 0002:00186ce0       ?OnSegmentDeleteTrace@CFreePcbView@@QAEXXZ 00702ce0 f   FreePcbView.obj
 0002:00186d30       ?OnAreaCornerProperties@CFreePcbView@@QAEXXZ 00702d30 f   FreePcbView.obj
 0002:001871b0       ?OnRefProperties@CFreePcbView@@QAEXXZ 007031b0 f   FreePcbView.obj
 0002:00187b00       ?OnVertexProperties@CFreePcbView@@QAEXXZ 00703b00 f   FreePcbView.obj
 0002:00187e20       ?OnEraseBkgnd@CFreePcbView@@QAEHPAVCDC@@@Z 00703e20 f   FreePcbView.obj
 0002:00187e70       ?OnOPSideConvertToStraightLine@CFreePcbView@@QAEXXZ 00703e70 f   FreePcbView.obj
 0002:00187f80       ?OnOPSideConvertToArcCw@CFreePcbView@@QAEXXZ 00703f80 f   FreePcbView.obj
 0002:00188090       ?OnOPSideConvertToArcCcw@CFreePcbView@@QAEXXZ 00704090 f   FreePcbView.obj
 0002:001881a0       ?OnUnrouteTrace@CFreePcbView@@QAEXXZ 007041a0 f   FreePcbView.obj
 0002:001883c0       ?SaveUndoInfoForGroup@CFreePcbView@@QAEHHPAVCUndoList@@HH@Z 007043c0 f   FreePcbView.obj
 0002:0018b9c0       ??0undo_group_descriptor@@QAE@XZ 007079c0 f i FreePcbView.obj
 0002:0018ba70       ??_Gundo_group_descriptor@@QAEPAXI@Z 00707a70 f i FreePcbView.obj
 0002:0018bae0       ??1undo_group_descriptor@@QAE@XZ 00707ae0 f i FreePcbView.obj
 0002:0018bb90       ?SaveUndoInfoFor2PartsAndNets@CFreePcbView@@QAEXPAVcpart@@0HPAVCUndoList@@@Z 00707b90 f   FreePcbView.obj
 0002:0018beb0       ?SaveUndoInfoForNetAndConnectionsAndAreas@CFreePcbView@@QAEXPAVcnet@@PAVCUndoList@@H@Z 00707eb0 f   FreePcbView.obj
 0002:0018bf60       ?SaveUndoInfoForNetAndConnectionsAndArea@CFreePcbView@@QAEXPAVcnet@@HHHPAVCUndoList@@@Z 00707f60 f   FreePcbView.obj
 0002:0018c060       ?SaveUndoInfoForArea@CFreePcbView@@QAEXPAVcnet@@HHHPAVCUndoList@@@Z 00708060 f   FreePcbView.obj
 0002:0018c1d0       ?SaveUndoInfoForAllAreasInNet@CFreePcbView@@QAEXPAVcnet@@HPAVCUndoList@@@Z 007081d0 f   FreePcbView.obj
 0002:0018c320       ?SaveUndoInfoForAllAreasIn2Nets@CFreePcbView@@QAEXPAVcnet@@0HPAVCUndoList@@@Z 00708320 f   FreePcbView.obj
 0002:0018c430       ?SaveUndoInfoForAllNets@CFreePcbView@@QAEXHPAVCUndoList@@@Z 00708430 f   FreePcbView.obj
 0002:0018c660       ?SaveUndoInfoForMoveOrigin@CFreePcbView@@QAEXHHPAVCUndoList@@@Z 00708660 f   FreePcbView.obj
 0002:0018c730       ?SaveUndoInfoForOutlinePoly@CFreePcbView@@QAEXHHPAVCUndoList@@@Z 00708730 f   FreePcbView.obj
 0002:0018c930       ?SaveUndoInfoForText@CFreePcbView@@QAEXPAVCText@@HHPAVCUndoList@@@Z 00708930 f   FreePcbView.obj
 0002:0018ca10       ?SaveUndoInfoForText@CFreePcbView@@QAEXPAUundo_text@@HHPAVCUndoList@@@Z 00708a10 f   FreePcbView.obj
 0002:0018cb40       ??0undo_text@@QAE@XZ       00708b40 f i FreePcbView.obj
 0002:0018cbb0       ??4undo_text@@QAEAAU0@ABU0@@Z 00708bb0 f i FreePcbView.obj
 0002:0018cd00       ?OnViewEntireBoard@CFreePcbView@@QAEXXZ 00708d00 f   FreePcbView.obj
 0002:0018d4e0       ?ViewAllElements@CFreePcbView@@QAE?AUtagRECT@@H@Z 007094e0 f   FreePcbView.obj
 0002:0018da90       ?OnViewAllElements@CFreePcbView@@QAEXXZ 00709a90 f   FreePcbView.obj
 0002:0018db10       ?OnRouteComplete@CFreePcbView@@QAEXXZ 00709b10 f   FreePcbView.obj
 0002:0018dee0       ?OnAreaEdgeHatchStyle@CFreePcbView@@QAEXXZ 00709ee0 f   FreePcbView.obj
 0002:0018e090       ?GetHatch@CDlgSetAreaHatch@@QAEHXZ 0070a090 f i FreePcbView.obj
 0002:0018e0d0       ?OnPartEditFootprint@CFreePcbView@@QAEXXZ 0070a0d0 f   FreePcbView.obj
 0002:0018e180       ?OnPartEditThisFootprint@CFreePcbView@@QAEXXZ 0070a180 f   FreePcbView.obj
 0002:0018e250       ?OnExternalChangeFootprint@CFreePcbView@@QAEXPAVCShape@@@Z 0070a250 f   FreePcbView.obj
 0002:0018e950       ?OnViewFindpart@CFreePcbView@@QAEXXZ 0070a950 f   FreePcbView.obj
 0002:0018ee70       ?OnFootprintWizard@CFreePcbView@@QAEXXZ 0070ae70 f   FreePcbView.obj
 0002:0018eed0       ?OnFootprintEditor@CFreePcbView@@QAEXXZ 0070aed0 f   FreePcbView.obj
 0002:0018ef30       ?OnCheckPartsAndNets@CFreePcbView@@QAEXXZ 0070af30 f   FreePcbView.obj
 0002:0018ef90       ?OnDrc@CFreePcbView@@QAEXXZ 0070af90 f   FreePcbView.obj
 0002:0018eff0       ?OnClearDRC@CFreePcbView@@QAEXXZ 0070aff0 f   FreePcbView.obj
 0002:0018f050       ?AddOutlinePoly@CFreePcbView@@QAEXHH@Z 0070b050 f   FreePcbView.obj
 0002:0018f940       ?OnAddOutlinePoly@CFreePcbView@@QAEXXZ 0070b940 f   FreePcbView.obj
 0002:0018f9a0       ?OPSetWidth@CFreePcbView@@QAEHXZ 0070b9a0 f   FreePcbView.obj
 0002:0018ff10       ?OnOPSetWidth@CFreePcbView@@QAEXXZ 0070bf10 f   FreePcbView.obj
 0002:0018ff60       ?OPHatchStyle@CFreePcbView@@QAEHXZ 0070bf60 f   FreePcbView.obj
 0002:001903a0       ?OnOPHatchStyle@CFreePcbView@@QAEXXZ 0070c3a0 f   FreePcbView.obj
 0002:00190400       ?OnPartChangeSide@CFreePcbView@@QAEXXZ 0070c400 f   FreePcbView.obj
 0002:001905b0       ?OnPartRotate@CFreePcbView@@QAEXXZ 0070c5b0 f   FreePcbView.obj
 0002:00190760       ?OnPartRotateCCW@CFreePcbView@@QAEXXZ 0070c760 f   FreePcbView.obj
 0002:00190910       ?OnNetSetWidth@CFreePcbView@@QAEXXZ 0070c910 f   FreePcbView.obj
 0002:001909b0       ?OnConnectSetWidth@CFreePcbView@@QAEXXZ 0070c9b0 f   FreePcbView.obj
 0002:00190a50       ?OnSegmentAddVertex@CFreePcbView@@QAEXXZ 0070ca50 f   FreePcbView.obj
 0002:00190c00       ?OnConnectUnroutetrace@CFreePcbView@@QAEXXZ 0070cc00 f   FreePcbView.obj
 0002:00190c50       ?OnConnectDeletetrace@CFreePcbView@@QAEXXZ 0070cc50 f   FreePcbView.obj
 0002:00190ca0       ?OnSegmentChangeLayer@CFreePcbView@@QAEXXZ 0070cca0 f   FreePcbView.obj
 0002:00190d40       ?OnConnectChangeLayer@CFreePcbView@@QAEXXZ 0070cd40 f   FreePcbView.obj
 0002:00190da0       ?OnNetChangeLayer@CFreePcbView@@QAEXXZ 0070cda0 f   FreePcbView.obj
 0002:00190e00       ?ChangeTraceLayer@CFreePcbView@@QAEXHH@Z 0070ce00 f   FreePcbView.obj
 0002:00191a70       ?OnNetEditnet@CFreePcbView@@QAEXXZ 0070da70 f   FreePcbView.obj
 0002:00191ad0       ?Editnet@CFreePcbView@@QAEXH@Z 0070dad0 f   FreePcbView.obj
 0002:00191fa0       ?OnToolsMoveOrigin@CFreePcbView@@QAEXXZ 0070dfa0 f   FreePcbView.obj
 0002:001921f0       ?MoveOrigin@CFreePcbView@@QAEXHH@Z 0070e1f0 f   FreePcbView.obj
 0002:00192350       ?OnLButtonDown@CFreePcbView@@IAEXIVCPoint@@@Z 0070e350 f   FreePcbView.obj
 0002:00192400       ?SelectItemsInRect@CFreePcbView@@QAEXVCRect@@I@Z 0070e400 f   FreePcbView.obj
 0002:00194ca0       ?StartDraggingGroup@CFreePcbView@@QAEXHHH@Z 00710ca0 f   FreePcbView.obj
 0002:00197640       ?CancelDraggingGroup@CFreePcbView@@QAEXXZ 00713640 f   FreePcbView.obj
 0002:00197d30       ?TurnGroup@CFreePcbView@@QAEXXZ 00713d30 f   FreePcbView.obj
 0002:00199220       ?SetInflectionMode@CDisplayList@@QAEXH@Z 00715220 f i FreePcbView.obj
 0002:00199270       ?OnGroupMove@CFreePcbView@@QAEXXZ 00715270 f   FreePcbView.obj
 0002:00199380       ?ThisGroupContainsGluedParts@CFreePcbView@@QAEHXZ 00715380 f   FreePcbView.obj
 0002:00199450       ?MoveGroup@CFreePcbView@@QAEXHHH@Z 00715450 f   FreePcbView.obj
 0002:0019a240       ?OnInsidePolyline@CFreePcbView@@QAEXXZ 00716240 f   FreePcbView.obj
 0002:0019aa80       ?HighlightGroup@CFreePcbView@@QAEXH@Z 00716a80 f   FreePcbView.obj
 0002:0019b690       ?GluedPartsInGroup@CFreePcbView@@QAEHXZ 00717690 f   FreePcbView.obj
 0002:0019b790       ?UnselectGluedPartsInGroup@CFreePcbView@@QAEXXZ 00717790 f   FreePcbView.obj
 0002:0019b8c0       ?SelectGluedParts@CFreePcbView@@QAEXXZ 007178c0 f   FreePcbView.obj
 0002:0019b9c0       ?SetSelMaskArray@CFreePcbView@@QAEXH@Z 007179c0 f   FreePcbView.obj
 0002:0019ba60       ?OnAddSimilarArea@CFreePcbView@@QAEXXZ 00717a60 f   FreePcbView.obj
 0002:0019bac0       ?AddSimilarArea@CFreePcbView@@QAEXXZ 00717ac0 f   FreePcbView.obj
 0002:0019bd40       ?OnAreaEdit@CFreePcbView@@QAEXXZ 00717d40 f   FreePcbView.obj
 0002:0019c3a0       ?SetPtr@CPolyLine@@QAEXPAX@Z 007183a0 f i FreePcbView.obj
 0002:0019c3f0       ?OnAreaEdgeApplyClearances@CFreePcbView@@QAEXXZ 007183f0 f   FreePcbView.obj
 0002:0019c430       ?ReselectNetItemIfConnectionsChanged@CFreePcbView@@QAEXH@Z 00718430 f   FreePcbView.obj
 0002:0019c710       ?OnGroupCopy@CFreePcbView@@QAEXXZ 00718710 f   FreePcbView.obj
 0002:0019ddf0       ??4cvertex@@QAEAAV0@AAV0@@Z 00719df0 f i FreePcbView.obj
 0002:0019df40       ?OnGroupCut@CFreePcbView@@QAEXXZ 00719f40 f   FreePcbView.obj
 0002:0019dfa0       ?OnGroupDelete@CFreePcbView@@QAEXXZ 00719fa0 f   FreePcbView.obj
 0002:0019e000       ?DeleteGroup@CFreePcbView@@QAEXH@Z 0071a000 f   FreePcbView.obj
 0002:0019e1e0       ?OnGroupPaste@CFreePcbView@@QAEXHH@Z 0071a1e0 f   FreePcbView.obj
 0002:001a26e0       ?SetMerge@Merge@@QAEXHV?$CStringT@DV?$StrTraitMFC_DLL@DV?$ChTraitsCRT@D@ATL@@@@@ATL@@@Z 0071e6e0 f i FreePcbView.obj
 0002:001a27d0       ?OnGroupStaticHighlight@CFreePcbView@@QAEXXZ 0071e7d0 f   FreePcbView.obj
 0002:001a2850       ?OnGroupCancelHighlight@CFreePcbView@@QAEXXZ 0071e850 f   FreePcbView.obj
 0002:001a28a0       ?GroupCancelHighlight@CFreePcbView@@QAEXXZ 0071e8a0 f   FreePcbView.obj
 0002:001a2920       ?OnApproximationArc@CFreePcbView@@QAEXXZ 0071e920 f   FreePcbView.obj
 0002:001a29d0       ?OnGroupAlignParts@CFreePcbView@@QAEXXZ 0071e9d0 f   FreePcbView.obj
 0002:001a2e30       ?OnGroupSaveToFile@CFreePcbView@@QAEXXZ 0071ee30 f   FreePcbView.obj
 0002:001a30a0       ?SaveToFile@CFreePcbView@@QAEXPAV?$CStringT@DV?$StrTraitMFC_DLL@DV?$ChTraitsCRT@D@ATL@@@@@ATL@@@Z 0071f0a0 f   FreePcbView.obj
 0002:001a3660       ?OnEditCopy@CFreePcbView@@QAEXXZ 0071f660 f   FreePcbView.obj
 0002:001a36d0       ?OnEditPaste@CFreePcbView@@QAEXXZ 0071f6d0 f   FreePcbView.obj
 0002:001a3770       ?OnEditCut@CFreePcbView@@QAEXXZ 0071f770 f   FreePcbView.obj
 0002:001a37e0       ?RotateGroup@CFreePcbView@@QAEXHHHH@Z 0071f7e0 f   FreePcbView.obj
 0002:001a4d40       ?FindGroupCenter@CFreePcbView@@QAEXXZ 00720d40 f   FreePcbView.obj
 0002:001a5450       ?SaveUndoInfoForPart@CFreePcbView@@QAEXPAVcpart@@HPAV?$CStringT@DV?$StrTraitMFC_DLL@DV?$ChTraitsCRT@D@ATL@@@@@ATL@@HPAVCUndoList@@@Z 00721450 f   FreePcbView.obj
 0002:001a5620       ?SaveUndoInfoForPartAndNets@CFreePcbView@@QAEXPAVcpart@@HPAV?$CStringT@DV?$StrTraitMFC_DLL@DV?$ChTraitsCRT@D@ATL@@@@@ATL@@HPAVCUndoList@@@Z 00721620 f   FreePcbView.obj
 0002:001a5820       ?SaveUndoInfoForNet@CFreePcbView@@QAEXPAVcnet@@HHPAVCUndoList@@@Z 00721820 f   FreePcbView.obj
 0002:001a58c0       ?SaveUndoInfoForNetAndConnections@CFreePcbView@@QAEXPAVcnet@@HHPAVCUndoList@@@Z 007218c0 f   FreePcbView.obj
 0002:001a59d0       ?SaveUndoInfoForConnection@CFreePcbView@@QAEXPAVcnet@@HHPAVCUndoList@@@Z 007219d0 f   FreePcbView.obj
 0002:001a5a70       ?CreateUndoDescriptor@CFreePcbView@@QAEPAXPAVCUndoList@@HPAV?$CStringT@DV?$StrTraitMFC_DLL@DV?$ChTraitsCRT@D@ATL@@@@@ATL@@1HH1PAX@Z 00721a70 f   FreePcbView.obj
 0002:001a5be0       ??0undo_descriptor@@QAE@XZ 00721be0 f i FreePcbView.obj
 0002:001a5c80       ?UndoCallback@CFreePcbView@@SAXHPAXH@Z 00721c80 f   FreePcbView.obj
 0002:001a6430       _!=                        00722430 f i FreePcbView.obj
 0002:001a6490       _==                        00722490 f i FreePcbView.obj
 0002:001a64f0       _IsEqualGUID               007224f0 f i FreePcbView.obj
 0002:001a6550       ??_Gundo_descriptor@@QAEPAXI@Z 00722550 f i FreePcbView.obj
 0002:001a65c0       ??1undo_descriptor@@QAE@XZ 007225c0 f i FreePcbView.obj
 0002:001a6660       ?UndoGroupCallback@CFreePcbView@@SAXHPAXH@Z 00722660 f   FreePcbView.obj
 0002:001a6c50       ?OnGroupRotate@CFreePcbView@@QAEXXZ 00722c50 f   FreePcbView.obj
 0002:001a6cb0       ?RotateGroup@CFreePcbView@@QAEXH@Z 00722cb0 f   FreePcbView.obj
 0002:001a6e50       ?SetMainMenu@CFreePcbView@@QAEXH@Z 00722e50 f   FreePcbView.obj
 0002:001a6fa0       ?VertexMoved@CFreePcbView@@QAEXXZ 00722fa0 f   FreePcbView.obj
 0002:001a71f0       ?SelectMergeSegments@CFreePcbView@@QAEXPAVcpart@@@Z 007231f0 f   FreePcbView.obj
 0002:001a75d0       ?SelectSimilarParts@CFreePcbView@@QAEXH@Z 007235d0 f   FreePcbView.obj
 0002:001a7af0       ?OnRefShowPart@CFreePcbView@@QAEXPAVcpart@@H@Z 00723af0 f   FreePcbView.obj
 0002:001a7ef0       ?OnAreaSideStyle@CFreePcbView@@QAEXXZ 00723ef0 f   FreePcbView.obj
 0002:001a81b0       ?OnValueMove@CFreePcbView@@QAEXXZ 007241b0 f   FreePcbView.obj
 0002:001a8300       ?OnValueProperties@CFreePcbView@@QAEXXZ 00724300 f   FreePcbView.obj
 0002:001a8b00       ?OnRefShowPart@CFreePcbView@@QAEXXZ 00724b00 f   FreePcbView.obj
 0002:001a8b80       ?OnValueShowPart@CFreePcbView@@QAEXXZ 00724b80 f   FreePcbView.obj
 0002:001a8c00       ?OnPartEditValue@CFreePcbView@@QAEXXZ 00724c00 f   FreePcbView.obj
 0002:001a8c50       ?OnRefRotateCW@CFreePcbView@@QAEXXZ 00724c50 f   FreePcbView.obj
 0002:001a8d80       ?OnRefRotateCCW@CFreePcbView@@QAEXXZ 00724d80 f   FreePcbView.obj
 0002:001a8eb0       ?OnValueRotateCW@CFreePcbView@@QAEXXZ 00724eb0 f   FreePcbView.obj
 0002:001a8fe0       ?OnValueRotateCCW@CFreePcbView@@QAEXXZ 00724fe0 f   FreePcbView.obj
 0002:001a9110       ?SetSize@?$CArray@Vcseg@@ABV1@@@QAEXHH@Z 00725110 f i FreePcbView.obj
 0002:001a9810       ??0cseg@@QAE@XZ            00725810 f i FreePcbView.obj
 0002:001a98d0       ?OnSegmentMove@CFreePcbView@@QAEXXZ 007258d0 f   FreePcbView.obj
 0002:001a9d60       ?AlignSegments@CFreePcbView@@QAEXPAVcnet@@HHHMH@Z 00725d60 f   FreePcbView.obj
 0002:001aa090       ?AlignSides@CFreePcbView@@QAEXHHH@Z 00726090 f   FreePcbView.obj
 0002:001aa5f0       ?SetSize@?$CArray@Vcvertex@@ABV1@@@QAEXHH@Z 007265f0 f i FreePcbView.obj
 0002:001aacf0       ??0cvertex@@QAE@XZ         00726cf0 f i FreePcbView.obj
 0002:001aae20       ?SelectBetween@CFreePcbView@@QAEXXZ 00726e20 f   FreePcbView.obj
 0002:001ac9f0       ?TestSelElements@CFreePcbView@@QAEHH@Z 007289f0 f   FreePcbView.obj
 0002:001ad580       ??1?$CArray@Vid@@ABV1@@@UAE@XZ 00729580 f i FreePcbView.obj
 0002:001ad690       ?Serialize@?$CArray@Vid@@ABV1@@@UAEXAAVCArchive@@@Z 00729690 f i FreePcbView.obj
 0002:001ad760       ?Dump@?$CArray@Vid@@ABV1@@@UBEXAAVCDumpContext@@@Z 00729760 f i FreePcbView.obj
 0002:001ad840       ?AssertValid@?$CArray@Vid@@ABV1@@@UBEXXZ 00729840 f i FreePcbView.obj
 0002:001ad9a0       ?OnSetClearance@CFreePcbView@@QAEXXZ 007299a0 f   FreePcbView.obj
 0002:001b0080       ?GetUtility@CPolyLine@@QAEHH@Z 0072c080 f i FreePcbView.obj
 0002:001b00f0       ?SetUtility@CPolyLine@@QAEXHH@Z 0072c0f0 f i FreePcbView.obj
 0002:001b0160       ??A?$CArray@VCPolyPt@@ABV1@@@QAEAAVCPolyPt@@H@Z 0072c160 f i FreePcbView.obj
 0002:001b01c0       ??_Gcseg@@QAEPAXI@Z        0072c1c0 f i FreePcbView.obj
 0002:001b0230       ??1cseg@@QAE@XZ            0072c230 f i FreePcbView.obj
 0002:001b02c0       ??_Gcvertex@@QAEPAXI@Z     0072c2c0 f i FreePcbView.obj
 0002:001b0330       ??1cvertex@@QAE@XZ         0072c330 f i FreePcbView.obj
 0002:001b03e0       ??_E?$CArray@Vid@@ABV1@@@UAEPAXI@Z 0072c3e0 f i FreePcbView.obj
 0002:001b03e0       ??_G?$CArray@Vid@@ABV1@@@UAEPAXI@Z 0072c3e0 f i FreePcbView.obj
 0002:001b0450       ?FindNEXTSegmentOfGroup@CFreePcbView@@QAEPAVcnet@@MPAVid@@PAV2@01@Z 0072c450 f   FreePcbView.obj
 0002:001b0d70       ?find_side_for_set_clearance@CFreePcbView@@QAEHPAVCPolyLine@@PAVid@@HMH@Z 0072cd70 f   FreePcbView.obj
 0002:001b10a0       ?InsertSegment@CFreePcbView@@QAEHPAVcnet@@HHH@Z 0072d0a0 f   FreePcbView.obj
 0002:001b1a70       ?ApproximArc@CFreePcbView@@QAEXXZ 0072da70 f   FreePcbView.obj
 0002:001b2370       ?ArcApp@CFreePcbView@@QAEHPAVCPolyLine@@HPAVcnet@@H@Z 0072e370 f   FreePcbView.obj
 0002:001b2c70       ?GetSelCount@CFreePcbView@@QAEHXZ 0072ec70 f   FreePcbView.obj
 0002:001b2e80       ?ElementAt@?$CArray@VCPolyPt@@ABV1@@@QAEAAVCPolyPt@@H@Z 0072ee80 f i FreePcbView.obj
 0002:001b2f30       ?DeleteWithRecalculationPoint@CFreePcbView@@QAEHPAVCPolyLine@@PAVcconnect@@H@Z 0072ef30 f   FreePcbView.obj
 0002:001b3df0       ?TracesRadiusUpDown@CFreePcbView@@QAEXH@Z 0072fdf0 f   FreePcbView.obj
 0002:001b53b0       ?SelectContour@CFreePcbView@@QAEXH@Z 007313b0 f   FreePcbView.obj
 0002:001b5d00       ?SetUpReferences@CFreePcbView@@QAEXXZ 00731d00 f   FreePcbView.obj
 0002:001b6b50       ?MoveSegment@CFreePcbView@@QAEXPAVcnet@@HHHHH@Z 00732b50 f   FreePcbView.obj
 0002:001b77b0       ?MergeGroup@CFreePcbView@@QAEXH@Z 007337b0 f   FreePcbView.obj
 0002:001b7e70       ?MergeGroup@CFreePcbView@@QAEXXZ 00733e70 f   FreePcbView.obj
 0002:001b88c0       ?ExplodeGroup@CFreePcbView@@QAEXXZ 007348c0 f   FreePcbView.obj
 0002:001b8990       ?NewSelectM@CFreePcbView@@QAE?AV?$CStringT@DV?$StrTraitMFC_DLL@DV?$ChTraitsCRT@D@ATL@@@@@ATL@@PAVcpart@@H@Z 00734990 f   FreePcbView.obj
 0002:001b98f0       ?mark1@Merge@@QAEXHH@Z     007358f0 f i FreePcbView.obj
 0002:001b9970       ?OnInfoBoxMess@CFreePcbView@@QAEXHHPAV?$CArray@V?$CStringT@DV?$StrTraitMFC_DLL@DV?$ChTraitsCRT@D@ATL@@@@@ATL@@ABV12@@@H@Z 00735970 f   FreePcbView.obj
 0002:001bc460       ?OnSendMess@CFreePcbView@@QAEPAVCWnd@@V?$CStringT@DV?$StrTraitMFC_DLL@DV?$ChTraitsCRT@D@ATL@@@@@ATL@@PAUHWND__@@@Z 00738460 f   FreePcbView.obj
 0002:001bc700       ?GetSelectedItem@CFreePcbView@@QAEHXZ 00738700 f   FreePcbView.obj
 0002:001bcfd0       ?SetSize@?$CArray@Vid@@ABV1@@@QAEXHH@Z 00738fd0 f i FreePcbView.obj
 0002:001bd6c0       ?UnSelect@CFreePcbView@@QAEHPAXPAVid@@HH@Z 007396c0 f   FreePcbView.obj
 0002:001bdd20       ??$SerializeElements@Vid@@@@YGXAAVCArchive@@PAVid@@H@Z 00739d20 f i FreePcbView.obj
 0002:001bdf10       ??$DumpElements@Vid@@@@YGXAAVCDumpContext@@PBVid@@H@Z 00739f10 f i FreePcbView.obj
 0002:001be000       ?NewSelect@CFreePcbView@@QAEHPAXPAVid@@HHH@Z 0073a000 f   FreePcbView.obj
 0002:001c0000       ?MarkAllOutlinePoly@CFreePcbView@@QAEXHH@Z 0073c000 f   FreePcbView.obj
 0002:001c0110       ?SetUpParts@CFreePcbView@@QAEXXZ 0073c110 f   FreePcbView.obj
 0002:001c1200       ?ShowPinState@CFreePcbView@@QAEXPAVcpart@@H@Z 0073d200 f   FreePcbView.obj
 0002:001c1950       ?PartHasNoInterPinTraces@CFreePcbView@@QAEHPAVcpart@@@Z 0073d950 f   FreePcbView.obj
 0002:001c1e60       ?ShowMerges@CFreePcbView@@QAEHH@Z 0073de60 f   FreePcbView.obj
 0002:001c2d10       ?DetachRatLines@CFreePcbView@@QAEHXZ 0073ed10 f   FreePcbView.obj
 0002:001c3130       ?MoveAreaToLayer@CFreePcbView@@QAEHH@Z 0073f130 f   FreePcbView.obj
 0002:001c3450       ?ForceVia@CFreePcbView@@QAEXXZ 0073f450 f   FreePcbView.obj
 0002:001c37a0       ?OnAlignSides@CFreePcbView@@QAEXXZ 0073f7a0 f   FreePcbView.obj
 0002:001c39f0       ?OnAlignment@CFreePcbView@@QAEXHH@Z 0073f9f0 f   FreePcbView.obj
 0002:001c4fe0       ?OnAlignX@CFreePcbView@@QAEXXZ 00740fe0 f   FreePcbView.obj
 0002:001c5060       ?OnAlignY@CFreePcbView@@QAEXXZ 00741060 f   FreePcbView.obj
 0002:001c50e0       ?OnAlignXY@CFreePcbView@@QAEXXZ 007410e0 f   FreePcbView.obj
 0002:001c5180       ?OnAlignMiddleX@CFreePcbView@@QAEXXZ 00741180 f   FreePcbView.obj
 0002:001c5260       ?OnAlignMiddleY@CFreePcbView@@QAEXXZ 00741260 f   FreePcbView.obj
 0002:001c5340       ?OnAlign45Y@CFreePcbView@@QAEXXZ 00741340 f   FreePcbView.obj
 0002:001c5470       ?OnAlign45X@CFreePcbView@@QAEXXZ 00741470 f   FreePcbView.obj
 0002:001c55a0       ?OnAlignBetweenX@CFreePcbView@@QAEXXZ 007415a0 f   FreePcbView.obj
 0002:001c5620       ?OnAlignBetweenY@CFreePcbView@@QAEXXZ 00741620 f   FreePcbView.obj
 0002:001c56a0       ?OnAlignBetweenXY@CFreePcbView@@QAEXXZ 007416a0 f   FreePcbView.obj
 0002:001c5740       ?OnCopyCutout@CFreePcbView@@QAEXXZ 00741740 f   FreePcbView.obj
 0002:001c59a0       ?SetDrawLayer@CFreePcbView@@QAEHH@Z 007419a0 f   FreePcbView.obj
 0002:001c5a20       ?JumpToPin@CFreePcbView@@QAEXPAVcpart@@Vid@@@Z 00741a20 f   FreePcbView.obj
 0002:001c5c90       ??HATL@@YA?AV?$CStringT@DV?$StrTraitMFC_DLL@DV?$ChTraitsCRT@D@ATL@@@@@0@ABV10@D@Z 00741c90 f i FreePcbView.obj
 0002:001c5e50       ?RemoveAt@?$CArray@Vcseg@@ABV1@@@QAEXHH@Z 00741e50 f i FreePcbView.obj
 0002:001c6020       ?RemoveAt@?$CArray@Vcvertex@@ABV1@@@QAEXHH@Z 00742020 f i FreePcbView.obj
 0002:001c61f0       ?GetSize@?$CArray@Vcarea@@V1@@@QBEHXZ 007421f0 f i FreePcbView.obj
 0002:001c6230       ??0?$CArray@Vid@@ABV1@@@QAE@XZ 00742230 f i FreePcbView.obj
 0002:001c62c0       ?GetSize@?$CArray@Vid@@ABV1@@@QBEHXZ 007422c0 f i FreePcbView.obj
 0002:001c6300       ??A?$CArray@Vid@@ABV1@@@QAEAAVid@@H@Z 00742300 f i FreePcbView.obj
 0002:001c6360       ??0?$CArray@UtagRECT@@ABU1@@@QAE@XZ 00742360 f i FreePcbView.obj
 0002:001c63f0       ?SetSize@?$CArray@UtagRECT@@ABU1@@@QAEXHH@Z 007423f0 f i FreePcbView.obj
 0002:001c6990       ??A?$CArray@UtagRECT@@ABU1@@@QAEAAUtagRECT@@H@Z 00742990 f i FreePcbView.obj
 0002:001c69f0       ??1?$CArray@UtagRECT@@ABU1@@@UAE@XZ 007429f0 f i FreePcbView.obj
 0002:001c6b00       ?Serialize@?$CArray@UtagRECT@@ABU1@@@UAEXAAVCArchive@@@Z 00742b00 f i FreePcbView.obj
 0002:001c6bd0       ?Dump@?$CArray@UtagRECT@@ABU1@@@UBEXAAVCDumpContext@@@Z 00742bd0 f i FreePcbView.obj
 0002:001c6cb0       ?AssertValid@?$CArray@UtagRECT@@ABU1@@@UBEXXZ 00742cb0 f i FreePcbView.obj
 0002:001c6e10       ??_G?$CArray@UtagRECT@@ABU1@@@UAEPAXI@Z 00742e10 f i FreePcbView.obj
 0002:001c6e10       ??_E?$CArray@UtagRECT@@ABU1@@@UAEPAXI@Z 00742e10 f i FreePcbView.obj
 0002:001c6e80       ?ElementAt@?$CArray@Vid@@ABV1@@@QAEAAVid@@H@Z 00742e80 f i FreePcbView.obj
 0002:001c6f30       ?ElementAt@?$CArray@UtagRECT@@ABU1@@@QAEAAUtagRECT@@H@Z 00742f30 f i FreePcbView.obj
 0002:001c6fe0       ??$SerializeElements@UtagRECT@@@@YGXAAVCArchive@@PAUtagRECT@@H@Z 00742fe0 f i FreePcbView.obj
 0002:001c71d0       ??$DumpElements@UtagRECT@@@@YGXAAVCDumpContext@@PBUtagRECT@@H@Z 007431d0 f i FreePcbView.obj
 0002:001c72c0       ??1Cuid@@QAE@XZ            007432c0 f i FreePcbView.obj
 0002:001c7300       ??0CAperture@@QAE@XZ       00743300 f   Gerber.obj
 0002:001c7360       ??0CAperture@@QAE@HHHHH@Z  00743360 f   Gerber.obj
 0002:001c73e0       ??1CAperture@@QAE@XZ       007433e0 f   Gerber.obj
 0002:001c7420       ?Equals@CAperture@@QAEHPAV1@@Z 00743420 f   Gerber.obj
 0002:001c7700       ?FindInArray@CAperture@@QAEHPAV?$CArray@VCAperture@@V1@@@H@Z 00743700 f   Gerber.obj
 0002:001c7840       ?WriteMoveTo@@YAXPAVCStdioFile@@HHH@Z 00743840 f   Gerber.obj
 0002:001c7a40       ?WritePolygonSide@@YAXPAVCStdioFile@@HHHHHHH@Z 00743a40 f   Gerber.obj
 0002:001c8170       ?ChangeAperture@@YAXPAVCAperture@@0PAV?$CArray@VCAperture@@V1@@@HPAVCStdioFile@@@Z 00744170 f   Gerber.obj
 0002:001c8360       ?WriteTiltPolygon@@YAXHHHHHHHHHPAVCStdioFile@@@Z 00744360 f   Gerber.obj
 0002:001ca0a0       ?DrawClearanceInForeignAreas@@YAXPAVcnet@@HHHHHHHHHHPAVCStdioFile@@HHHPAV?$CArray@PAVcnet@@ABQAV1@@@PAV?$CArray@PAVcarea@@ABQAV1@@@PAVCDlgLog@@@Z 007460a0 f   Gerber.obj
 0002:001cbf60       ?abs@@YA_J_J@Z             00747f60 f i Gerber.obj
 0002:001cbfc0       ?WriteGerberFile@@YAHPAVCStdioFile@@HHPAVCDlgLog@@HHHHHHHHHHHHHPAV?$CArray@VCPolyLine@@ABV1@@@PAVCPartList@@PAVCNetList@@PAVCTextList@@PAVCDisplayList@@PAVMerge@@@Z 00747fc0 f   Gerber.obj
 0002:001d7850       ?AddToArray@@YAHHPAV?$CArray@HH@@@Z 00753850 f   Gerber.obj
 0002:001d7900       ?WriteDrillFile@@YA?AVCPoint@@PAVCStdioFile@@PAVCPartList@@PAVCNetList@@PAV?$CArray@VCPolyLine@@ABV1@@@HHHH@Z 00753900 f   Gerber.obj
 0002:001d8890       ??0?$CArray@PAVcnet@@ABQAV1@@@QAE@XZ 00754890 f i Gerber.obj
 0002:001d8920       ?Add@?$CArray@PAVcnet@@ABQAV1@@@QAEHABQAVcnet@@@Z 00754920 f i Gerber.obj
 0002:001d8990       ??0?$CArray@VCAperture@@V1@@@QAE@XZ 00754990 f i Gerber.obj
 0002:001d8a20       ?GetSize@?$CArray@VCAperture@@V1@@@QBEHXZ 00754a20 f i Gerber.obj
 0002:001d8a60       ?GetAt@?$CArray@VCAperture@@V1@@@QAEAAVCAperture@@H@Z 00754a60 f i Gerber.obj
 0002:001d8b10       ?Add@?$CArray@VCAperture@@V1@@@QAEHVCAperture@@@Z 00754b10 f i Gerber.obj
 0002:001d8c00       ??A?$CArray@VCAperture@@V1@@@QAEAAVCAperture@@H@Z 00754c00 f i Gerber.obj
 0002:001d8c60       ??1?$CArray@VCAperture@@V1@@@UAE@XZ 00754c60 f i Gerber.obj
 0002:001d8d90       ?Serialize@?$CArray@VCAperture@@V1@@@UAEXAAVCArchive@@@Z 00754d90 f i Gerber.obj
 0002:001d8e60       ?Dump@?$CArray@VCAperture@@V1@@@UBEXAAVCDumpContext@@@Z 00754e60 f i Gerber.obj
 0002:001d8f40       ?AssertValid@?$CArray@VCAperture@@V1@@@UBEXXZ 00754f40 f i Gerber.obj
 0002:001d90a0       ??0?$CArray@PAVcarea@@ABQAV1@@@QAE@XZ 007550a0 f i Gerber.obj
 0002:001d9130       ?GetSize@?$CArray@PAVcarea@@ABQAV1@@@QBEHXZ 00755130 f i Gerber.obj
 0002:001d9170       ?Add@?$CArray@PAVcarea@@ABQAV1@@@QAEHABQAVcarea@@@Z 00755170 f i Gerber.obj
 0002:001d91e0       ??A?$CArray@PAVcarea@@ABQAV1@@@QAEAAPAVcarea@@H@Z 007551e0 f i Gerber.obj
 0002:001d9240       ??1?$CArray@PAVcarea@@ABQAV1@@@UAE@XZ 00755240 f i Gerber.obj
 0002:001d9350       ?Serialize@?$CArray@PAVcarea@@ABQAV1@@@UAEXAAVCArchive@@@Z 00755350 f i Gerber.obj
 0002:001d9420       ?Dump@?$CArray@PAVcarea@@ABQAV1@@@UBEXAAVCDumpContext@@@Z 00755420 f i Gerber.obj
 0002:001d9500       ?AssertValid@?$CArray@PAVcarea@@ABQAV1@@@UBEXXZ 00755500 f i Gerber.obj
 0002:001d9660       ?GetSize@?$CArray@HH@@QBEHXZ 00755660 f i Gerber.obj
 0002:001d96a0       ?GetAt@?$CArray@HH@@QAEAAHH@Z 007556a0 f i Gerber.obj
 0002:001d9750       ?Add@?$CArray@HH@@QAEHH@Z  00755750 f i Gerber.obj
 0002:001d97c0       ??_G?$CArray@VCAperture@@V1@@@UAEPAXI@Z 007557c0 f i Gerber.obj
 0002:001d97c0       ??_E?$CArray@VCAperture@@V1@@@UAEPAXI@Z 007557c0 f i Gerber.obj
 0002:001d9830       ??_GCAperture@@QAEPAXI@Z   00755830 f i Gerber.obj
 0002:001d98a0       ??_G?$CArray@PAVcarea@@ABQAV1@@@UAEPAXI@Z 007558a0 f i Gerber.obj
 0002:001d98a0       ??_E?$CArray@PAVcarea@@ABQAV1@@@UAEPAXI@Z 007558a0 f i Gerber.obj
 0002:001d9910       ?SetAtGrow@?$CArray@PAVcnet@@ABQAV1@@@QAEXHABQAVcnet@@@Z 00755910 f i Gerber.obj
 0002:001d99e0       ?SetSize@?$CArray@VCAperture@@V1@@@QAEXHH@Z 007559e0 f i Gerber.obj
 0002:001da0e0       ?ElementAt@?$CArray@VCAperture@@V1@@@QAEAAVCAperture@@H@Z 007560e0 f i Gerber.obj
 0002:001da190       ?SetAtGrow@?$CArray@VCAperture@@V1@@@QAEXHVCAperture@@@Z 00756190 f i Gerber.obj
 0002:001da2d0       ??$SerializeElements@VCAperture@@@@YGXAAVCArchive@@PAVCAperture@@H@Z 007562d0 f i Gerber.obj
 0002:001da4c0       ??$DumpElements@VCAperture@@@@YGXAAVCDumpContext@@PBVCAperture@@H@Z 007564c0 f i Gerber.obj
 0002:001da5b0       ?SetSize@?$CArray@PAVcarea@@ABQAV1@@@QAEXHH@Z 007565b0 f i Gerber.obj
 0002:001dab40       ?ElementAt@?$CArray@PAVcarea@@ABQAV1@@@QAEAAPAVcarea@@H@Z 00756b40 f i Gerber.obj
 0002:001dabf0       ?SetAtGrow@?$CArray@PAVcarea@@ABQAV1@@@QAEXHABQAVcarea@@@Z 00756bf0 f i Gerber.obj
 0002:001dacc0       ??$SerializeElements@PAVcarea@@@@YGXAAVCArchive@@PAPAVcarea@@H@Z 00756cc0 f i Gerber.obj
 0002:001daeb0       ??$DumpElements@PAVcarea@@@@YGXAAVCDumpContext@@PBQAVcarea@@H@Z 00756eb0 f i Gerber.obj
 0002:001dafa0       ?SetAtGrow@?$CArray@HH@@QAEXHH@Z 00756fa0 f i Gerber.obj
 0002:001db070       ?GetNumCopperLayers@CNetList@@QAEHXZ 00757070 f i Gerber.obj
 0002:001db0b0       ??1?$CArray@PAVcnet@@ABQAV1@@@UAE@XZ 007570b0 f i Gerber.obj
 0002:001db1c0       ?Serialize@?$CArray@PAVcnet@@ABQAV1@@@UAEXAAVCArchive@@@Z 007571c0 f i Gerber.obj
 0002:001db290       ?Dump@?$CArray@PAVcnet@@ABQAV1@@@UBEXAAVCDumpContext@@@Z 00757290 f i Gerber.obj
 0002:001db370       ?AssertValid@?$CArray@PAVcnet@@ABQAV1@@@UBEXXZ 00757370 f i Gerber.obj
 0002:001db4d0       ??_E?$CArray@PAVcnet@@ABQAV1@@@UAEPAXI@Z 007574d0 f i Gerber.obj
 0002:001db4d0       ??_G?$CArray@PAVcnet@@ABQAV1@@@UAEPAXI@Z 007574d0 f i Gerber.obj
 0002:001db540       ??$SerializeElements@PAVcnet@@@@YGXAAVCArchive@@PAPAVcnet@@H@Z 00757540 f i Gerber.obj
 0002:001db730       ??$DumpElements@PAVcnet@@@@YGXAAVCDumpContext@@PBQAVcnet@@H@Z 00757730 f i Gerber.obj
 0002:001db820       ?gpc_free_polygon@@YAXPAUgpc_polygon@@@Z 00757820 f   gpc_232.obj
 0002:001db950       ?gpc_read_polygon@@YAXPAU_iobuf@@HPAUgpc_polygon@@@Z 00757950 f   gpc_232.obj
 0002:001dbd10       ?gpc_write_polygon@@YAXPAU_iobuf@@HPAUgpc_polygon@@@Z 00757d10 f   gpc_232.obj
 0002:001dbeb0       ?gpc_add_contour@@YAXPAUgpc_polygon@@PAUgpc_vertex_list@@H@Z 00757eb0 f   gpc_232.obj
 0002:001dc2f0       ?gpc_polygon_clip@@YAXW4gpc_op@@PAUgpc_polygon@@11@Z 007582f0 f   gpc_232.obj
 0002:001e1b70       ?gpc_free_tristrip@@YAXPAUgpc_tristrip@@@Z 0075db70 f   gpc_232.obj
 0002:001e1c70       ?gpc_polygon_to_tristrip@@YAXPAUgpc_polygon@@PAUgpc_tristrip@@@Z 0075dc70 f   gpc_232.obj
 0002:001e1d20       ?gpc_tristrip_clip@@YAXW4gpc_op@@PAUgpc_polygon@@1PAUgpc_tristrip@@@Z 0075dd20 f   gpc_232.obj
 0002:001e5db0       ?ConvertIvex@@YAHPAVCStdioFile@@0PAVCEdit@@@Z 00761db0 f   ivex_mod_file.obj
 0002:001ea120       ??0mod_padstack@@QAE@XZ    00766120 f i ivex_mod_file.obj
 0002:001ea1e0       ??0?$CArray@Upad_stack_entry@@ABU1@@@QAE@XZ 007661e0 f i ivex_mod_file.obj
 0002:001ea270       ?GetSize@?$CArray@Upad_stack_entry@@ABU1@@@QBEHXZ 00766270 f i ivex_mod_file.obj
 0002:001ea2b0       ?SetSize@?$CArray@Upad_stack_entry@@ABU1@@@QAEXHH@Z 007662b0 f i ivex_mod_file.obj
 0002:001ea910       ??A?$CArray@Upad_stack_entry@@ABU1@@@QAEAAUpad_stack_entry@@H@Z 00766910 f i ivex_mod_file.obj
 0002:001ea970       ?Serialize@?$CArray@Upad_stack_entry@@ABU1@@@UAEXAAVCArchive@@@Z 00766970 f i ivex_mod_file.obj
 0002:001eaa40       ?Dump@?$CArray@Upad_stack_entry@@ABU1@@@UBEXAAVCDumpContext@@@Z 00766a40 f i ivex_mod_file.obj
 0002:001eab20       ?AssertValid@?$CArray@Upad_stack_entry@@ABU1@@@UBEXXZ 00766b20 f i ivex_mod_file.obj
 0002:001eac80       ??0?$CArray@Umtg_hole@@ABU1@@@QAE@XZ 00766c80 f i ivex_mod_file.obj
 0002:001ead10       ?GetSize@?$CArray@Umtg_hole@@ABU1@@@QBEHXZ 00766d10 f i ivex_mod_file.obj
 0002:001ead50       ?SetSize@?$CArray@Umtg_hole@@ABU1@@@QAEXHH@Z 00766d50 f i ivex_mod_file.obj
 0002:001eb2f0       ?RemoveAll@?$CArray@Umtg_hole@@ABU1@@@QAEXXZ 007672f0 f i ivex_mod_file.obj
 0002:001eb350       ??A?$CArray@Umtg_hole@@ABU1@@@QAEAAUmtg_hole@@H@Z 00767350 f i ivex_mod_file.obj
 0002:001eb3b0       ??1?$CArray@Umtg_hole@@ABU1@@@UAE@XZ 007673b0 f i ivex_mod_file.obj
 0002:001eb4c0       ?Serialize@?$CArray@Umtg_hole@@ABU1@@@UAEXAAVCArchive@@@Z 007674c0 f i ivex_mod_file.obj
 0002:001eb590       ?Dump@?$CArray@Umtg_hole@@ABU1@@@UBEXAAVCDumpContext@@@Z 00767590 f i ivex_mod_file.obj
 0002:001eb670       ?AssertValid@?$CArray@Umtg_hole@@ABU1@@@UBEXXZ 00767670 f i ivex_mod_file.obj
 0002:001eb7d0       ??_E?$CArray@Upad_stack_entry@@ABU1@@@UAEPAXI@Z 007677d0 f i ivex_mod_file.obj
 0002:001eb7d0       ??_G?$CArray@Upad_stack_entry@@ABU1@@@UAEPAXI@Z 007677d0 f i ivex_mod_file.obj
 0002:001eb840       ??1?$CArray@Upad_stack_entry@@ABU1@@@UAE@XZ 00767840 f i ivex_mod_file.obj
 0002:001eb970       ??_Gpad_stack_entry@@QAEPAXI@Z 00767970 f i ivex_mod_file.obj
 0002:001eb9e0       ??0pad_stack_entry@@QAE@XZ 007679e0 f i ivex_mod_file.obj
 0002:001eba40       ??_G?$CArray@Umtg_hole@@ABU1@@@UAEPAXI@Z 00767a40 f i ivex_mod_file.obj
 0002:001eba40       ??_E?$CArray@Umtg_hole@@ABU1@@@UAEPAXI@Z 00767a40 f i ivex_mod_file.obj
 0002:001ebab0       ??1pad_stack_entry@@QAE@XZ 00767ab0 f i ivex_mod_file.obj
 0002:001ebb10       ?ElementAt@?$CArray@Upad_stack_entry@@ABU1@@@QAEAAUpad_stack_entry@@H@Z 00767b10 f i ivex_mod_file.obj
 0002:001ebbc0       ??$SerializeElements@Upad_stack_entry@@@@YGXAAVCArchive@@PAUpad_stack_entry@@H@Z 00767bc0 f i ivex_mod_file.obj
 0002:001ebdb0       ??$DumpElements@Upad_stack_entry@@@@YGXAAVCDumpContext@@PBUpad_stack_entry@@H@Z 00767db0 f i ivex_mod_file.obj
 0002:001ebea0       ?ElementAt@?$CArray@Umtg_hole@@ABU1@@@QAEAAUmtg_hole@@H@Z 00767ea0 f i ivex_mod_file.obj
 0002:001ebf50       ??$SerializeElements@Umtg_hole@@@@YGXAAVCArchive@@PAUmtg_hole@@H@Z 00767f50 f i ivex_mod_file.obj
 0002:001ec140       ??$DumpElements@Umtg_hole@@@@YGXAAVCDumpContext@@PBUmtg_hole@@H@Z 00768140 f i ivex_mod_file.obj
 0002:001ec230       ?CreateObject@CMainFrame@@SGPAVCObject@@XZ 00768230 f   MainFrm.obj
 0002:001ec320       ?_GetBaseClass@CMainFrame@@KGPAUCRuntimeClass@@XZ 00768320 f   MainFrm.obj
 0002:001ec370       ?GetThisClass@CMainFrame@@SGPAUCRuntimeClass@@XZ 00768370 f   MainFrm.obj
 0002:001ec3b0       ?GetRuntimeClass@CMainFrame@@UBEPAUCRuntimeClass@@XZ 007683b0 f   MainFrm.obj
 0002:001ec3f0       ?GetMessageMap@CMainFrame@@MBEPBUAFX_MSGMAP@@XZ 007683f0 f   MainFrm.obj
 0002:001ec440       ?GetThisMessageMap@CMainFrame@@KGPBUAFX_MSGMAP@@XZ 00768440 f   MainFrm.obj
 0002:001ec480       ??0CMainFrame@@IAE@XZ      00768480 f   MainFrm.obj
 0002:001ec5a0       ??_GCMainFrame@@UAEPAXI@Z  007685a0 f i MainFrm.obj
 0002:001ec5a0       ??_ECMainFrame@@UAEPAXI@Z  007685a0 f i MainFrm.obj
 0002:001ec610       ??1CMainFrame@@UAE@XZ      00768610 f   MainFrm.obj
 0002:001ec6e0       ?OnCreate@CMainFrame@@IAEHPAUtagCREATESTRUCTA@@@Z 007686e0 f   MainFrm.obj
 0002:001ecf90       ?DisableMenuItems@CMainFrame@@QAEXPAVCMenu@@@Z 00768f90 f   MainFrm.obj
 0002:001ed250       ?EnableMenuItems@CMainFrame@@QAEXPAVCMenu@@@Z 00769250 f   MainFrm.obj
 0002:001ed570       ?PreCreateWindow@CMainFrame@@UAEHAAUtagCREATESTRUCTA@@@Z 00769570 f   MainFrm.obj
 0002:001ed670       ?DrawStatus@CMainFrame@@QAEHHPAV?$CStringT@DV?$StrTraitMFC_DLL@DV?$ChTraitsCRT@D@ATL@@@@@ATL@@@Z 00769670 f   MainFrm.obj
 0002:001ed6f0       ?AssertValid@CMainFrame@@UBEXXZ 007696f0 f   MainFrm.obj
 0002:001ed740       ?Dump@CMainFrame@@UBEXAAVCDumpContext@@@Z 00769740 f   MainFrm.obj
 0002:001ed7a0       ?OnChangeVisibleGrid@CMainFrame@@QAEJIJ@Z 007697a0 f   MainFrm.obj
 0002:001ed880       ?OnChangePlacementGrid@CMainFrame@@QAEJIJ@Z 00769880 f   MainFrm.obj
 0002:001ed960       ?OnChangeRoutingGrid@CMainFrame@@QAEJIJ@Z 00769960 f   MainFrm.obj
 0002:001eda00       ?OnChangeSnapAngle@CMainFrame@@QAEJIJ@Z 00769a00 f   MainFrm.obj
 0002:001edae0       ?OnChangeUnits@CMainFrame@@QAEJIJ@Z 00769ae0 f   MainFrm.obj
 0002:001edbc0       ?Wm__DropFiles@CMainFrame@@QAEJIJ@Z 00769bc0 f   MainFrm.obj
 0002:001ede20       ?OnCopyData@CMainFrame@@QAEHPAVCWnd@@PAUtagCOPYDATASTRUCT@@@Z 00769e20 f   MainFrm.obj
 0002:001ee870       ?OnSysCommand@CMainFrame@@QAEXIJ@Z 0076a870 f   MainFrm.obj
 0002:001ee960       ?OnEditUndo@CMainFrame@@QAEXXZ 0076a960 f   MainFrm.obj
 0002:001eea40       ?OnTimer@CMainFrame@@QAEXI@Z 0076aa40 f   MainFrm.obj
 0002:001eeb90       ?OnSetCursor@CMainFrame@@QAEHPAVCWnd@@II@Z 0076ab90 f   MainFrm.obj
 0002:001eed60       ?OnMove@CMainFrame@@QAEXHH@Z 0076ad60 f   MainFrm.obj
 0002:001eeee0       ?OnSize@CMainFrame@@QAEXIHH@Z 0076aee0 f   MainFrm.obj
 0002:001ef000       ?SetHideCursor@CMainFrame@@QAEXHPAVCRect@@@Z 0076b000 f   MainFrm.obj
 0002:001ef0d0       ?DestroyWindow@CMainFrame@@UAEHXZ 0076b0d0 f   MainFrm.obj
 0002:001ef220       ?_GetBaseClass@CMyToolBar@@KGPAUCRuntimeClass@@XZ 0076b220 f   MyToolBar.obj
 0002:001ef270       ?GetThisClass@CMyToolBar@@SGPAUCRuntimeClass@@XZ 0076b270 f   MyToolBar.obj
 0002:001ef2b0       ?GetRuntimeClass@CMyToolBar@@UBEPAUCRuntimeClass@@XZ 0076b2b0 f   MyToolBar.obj
 0002:001ef2f0       ??0CMyToolBar@@QAE@XZ      0076b2f0 f   MyToolBar.obj
 0002:001ef4a0       ??_GCMyToolBar@@UAEPAXI@Z  0076b4a0 f i MyToolBar.obj
 0002:001ef4a0       ??_ECMyToolBar@@UAEPAXI@Z  0076b4a0 f i MyToolBar.obj
 0002:001ef510       ??1CMyToolBar@@UAE@XZ      0076b510 f   MyToolBar.obj
 0002:001ef6b0       ?GetMessageMap@CMyToolBar@@MBEPBUAFX_MSGMAP@@XZ 0076b6b0 f   MyToolBar.obj
 0002:001ef700       ?GetThisMessageMap@CMyToolBar@@KGPBUAFX_MSGMAP@@XZ 0076b700 f   MyToolBar.obj
 0002:001ef740       ?OnCreate@CMyToolBar@@QAEHPAUtagCREATESTRUCTA@@@Z 0076b740 f   MyToolBar.obj
 0002:001f00a0       ?SetLists@CMyToolBar@@QAEXPAV?$CArray@NABN@@00NNNHH@Z 0076c0a0 f   MyToolBar.obj
 0002:001f15b0       ?OnEditVisibleGrid@CMyToolBar@@QAEXXZ 0076d5b0 f   MyToolBar.obj
 0002:001f16f0       ?OnEditPlacementGrid@CMyToolBar@@QAEXXZ 0076d6f0 f   MyToolBar.obj
 0002:001f1830       ?OnSelectVisibleGrid@CMyToolBar@@QAEXXZ 0076d830 f   MyToolBar.obj
 0002:001f1980       ?OnSelectPlacementGrid@CMyToolBar@@QAEXXZ 0076d980 f   MyToolBar.obj
 0002:001f1ad0       ?OnSelectRoutingGrid@CMyToolBar@@QAEXXZ 0076dad0 f   MyToolBar.obj
 0002:001f1bf0       ?OnSelectSnapAngle@CMyToolBar@@QAEXXZ 0076dbf0 f   MyToolBar.obj
 0002:001f1d10       ?OnSelectUnits@CMyToolBar@@QAEXXZ 0076dd10 f   MyToolBar.obj
 0002:001f1e30       ?SetUnits@CMyToolBar@@QAEXH@Z 0076de30 f   MyToolBar.obj
 0002:001f1f70       ??0CIterator_cnet@@QAE@PBVCNetList@@@Z 0076df70 f   Net_iter.obj
 0002:001f2040       ?GetFirst@CIterator_cnet@@QAEPAVcnet@@XZ 0076e040 f   Net_iter.obj
 0002:001f20d0       ?GetNext@CIterator_cnet@@QAEPAVcnet@@XZ 0076e0d0 f   Net_iter.obj
 0002:001f2270       ?OnRemove@CIterator_cnet@@SAXPBVcnet@@@Z 0076e270 f   Net_iter.obj
 0002:001f22a0       ??0CIterator_cconnect@@QAE@PAVcnet@@@Z 0076e2a0 f   Net_iter.obj
 0002:001f2360       ?GetFirst@CIterator_cconnect@@QAEPAVcconnect@@XZ 0076e360 f   Net_iter.obj
 0002:001f23e0       ?GetNext@CIterator_cconnect@@QAEPAVcconnect@@XZ 0076e3e0 f   Net_iter.obj
 0002:001f2490       ?OnRemove@CIterator_cconnect@@QAEXH@Z 0076e490 f   Net_iter.obj
 0002:001f2520       ?OnRemove@CIterator_cconnect@@QAEXPAVcconnect@@@Z 0076e520 f   Net_iter.obj
 0002:001f2610       ??0CIterator_cseg@@QAE@PAVcconnect@@@Z 0076e610 f   Net_iter.obj
 0002:001f26d0       ?GetFirst@CIterator_cseg@@QAEPAVcseg@@XZ 0076e6d0 f   Net_iter.obj
 0002:001f2750       ?GetNext@CIterator_cseg@@QAEPAVcseg@@XZ 0076e750 f   Net_iter.obj
 0002:001f2800       ?OnRemove@CIterator_cseg@@QAEXH@Z 0076e800 f   Net_iter.obj
 0002:001f2890       ?OnRemove@CIterator_cseg@@QAEXPAVcseg@@@Z 0076e890 f   Net_iter.obj
 0002:001f2980       ??0CIterator_cvertex@@QAE@PAVcconnect@@@Z 0076e980 f   Net_iter.obj
 0002:001f2a40       ?GetFirst@CIterator_cvertex@@QAEPAVcvertex@@XZ 0076ea40 f   Net_iter.obj
 0002:001f2ac0       ?GetNext@CIterator_cvertex@@QAEPAVcvertex@@XZ 0076eac0 f   Net_iter.obj
 0002:001f2b70       ?OnRemove@CIterator_cvertex@@QAEXH@Z 0076eb70 f   Net_iter.obj
 0002:001f2c00       ?OnRemove@CIterator_cvertex@@QAEXPAVcvertex@@@Z 0076ec00 f   Net_iter.obj
 0002:001f2cf0       ??0CDLinkList@@QAE@XZ      0076ecf0 f i Net_iter.obj
 0002:001f2d50       ??1CDLinkList@@QAE@XZ      0076ed50 f i Net_iter.obj
 0002:001f2da0       ?_DLinkList_remove@CDLinkList@@AAEXXZ 0076eda0 f i Net_iter.obj
 0002:001f2e00       ?DLinkList_init@CDLinkList@@QAEXXZ 0076ee00 f i Net_iter.obj
 0002:001f2e50       ?insert_after@CDLinkList@@QAEXPAV1@@Z 0076ee50 f i Net_iter.obj
 0002:001f2ef0       ?isLinked@CDLinkList@@QBEHXZ 0076eef0 f i Net_iter.obj
 0002:001f2f40       ??0carea@@QAE@XZ           0076ef40 f   NetList.obj
 0002:001f3080       ?Initialize@carea@@QAEXPAVCDisplayList@@@Z 0076f080 f   NetList.obj
 0002:001f31a0       ??1carea@@QAE@XZ           0076f1a0 f   NetList.obj
 0002:001f3390       ??0carea@@QAE@ABV0@@Z      0076f390 f   NetList.obj
 0002:001f3520       ??4carea@@QAEAAV0@AAV0@@Z  0076f520 f   NetList.obj
 0002:001f3560       ??0CNetList@@QAE@PAVCDisplayList@@PAVCPartList@@@Z 0076f560 f   NetList.obj
 0002:001f3650       ?SetPartList@CNetList@@QAEXPAVCPartList@@@Z 0076f650 f   NetList.obj
 0002:001f36a0       ??1CNetList@@QAE@XZ        0076f6a0 f   NetList.obj
 0002:001f3760       ?AddNet@CNetList@@QAEPAVcnet@@V?$CStringT@DV?$StrTraitMFC_DLL@DV?$ChTraitsCRT@D@ATL@@@@@ATL@@HHH@Z 0076f760 f   NetList.obj
 0002:001f39f0       ?RemoveNet@CNetList@@QAEXPAVcnet@@@Z 0076f9f0 f   NetList.obj
 0002:001f3ca0       ??_Gcnet@@QAEPAXI@Z        0076fca0 f i NetList.obj
 0002:001f3d10       ??1cnet@@QAE@XZ            0076fd10 f i NetList.obj
 0002:001f3df0       ?RemoveAllNets@CNetList@@QAEXXZ 0076fdf0 f   NetList.obj
 0002:001f3f60       ?GetFirstNet@CNetList@@QAEPAVcnet@@XZ 0076ff60 f   NetList.obj
 0002:001f4230       ?GetNextNet@CNetList@@QAEPAVcnet@@XZ 00770230 f   NetList.obj
 0002:001f4480       ?CancelNextNet@CNetList@@QAEXH@Z 00770480 f   NetList.obj
 0002:001f44e0       ?GetNumNets@CNetList@@QAEHXZ 007704e0 f   NetList.obj
 0002:001f4570       ?SplitNet@CNetList@@QAEPAVcnet@@PAV2@HH@Z 00770570 f   NetList.obj
 0002:001f6520       ?MarkAllNets@CNetList@@QAEXH@Z 00772520 f   NetList.obj
 0002:001f6770       ?MoveOrigin@CNetList@@QAEXHH@Z 00772770 f   NetList.obj
 0002:001f6a40       ?UndrawConnection@CNetList@@QAEXPAVcnet@@H@Z 00772a40 f   NetList.obj
 0002:001f6b80       ?DrawConnection@CNetList@@QAEXPAVcnet@@H@Z 00772b80 f   NetList.obj
 0002:001f6c40       ?DrawConnections@CNetList@@QAEXPAVcnet@@@Z 00772c40 f   NetList.obj
 0002:001f6cd0       ?DrawAreas@CNetList@@QAEXPAVcnet@@@Z 00772cd0 f   NetList.obj
 0002:001f6d70       ?GenPolygonConnect@CNetList@@QAEHPAVcnet@@HHHPAV?$CArray@VCPoint@@ABV1@@@@Z 00772d70 f   NetList.obj
 0002:001f7510       ?AddCutout@CNetList@@QAEXPAV?$CArray@PAUgpc_polygon@@ABQAU1@@@PAV?$CArray@UtagRECT@@ABU1@@@PAPAUgpc_polygon@@PAU4@3PAUtagRECT@@@Z 00773510 f   NetList.obj
 0002:001f7980       ?AddCutoutsForArea@CNetList@@QAEHPAVcnet@@H0HHHHHHHHHHPAVMerge@@HH@Z 00773980 f   NetList.obj
 0002:001fce90       ?AddNetPin@CNetList@@QAEXPAVcnet@@PAV?$CStringT@DV?$StrTraitMFC_DLL@DV?$ChTraitsCRT@D@ATL@@@@@ATL@@1H@Z 00778e90 f   NetList.obj
 0002:001fd0a0       ?RemoveNetPin@CNetList@@QAEXPAVcnet@@PAV?$CStringT@DV?$StrTraitMFC_DLL@DV?$ChTraitsCRT@D@ATL@@@@@ATL@@1HH@Z 007790a0 f   NetList.obj
 0002:001fd210       ?RemoveNetPin@CNetList@@QAEXPAVcnet@@HHHH@Z 00779210 f   NetList.obj
 0002:001fd6d0       ?DisconnectNetPin@CNetList@@QAEXPAVcpart@@PAV?$CStringT@DV?$StrTraitMFC_DLL@DV?$ChTraitsCRT@D@ATL@@@@@ATL@@H@Z 007796d0 f   NetList.obj
 0002:001fd960       ?DisconnectNetPin@CNetList@@QAEXPAVcnet@@PAV?$CStringT@DV?$StrTraitMFC_DLL@DV?$ChTraitsCRT@D@ATL@@@@@ATL@@1H@Z 00779960 f   NetList.obj
 0002:001fdbf0       ?GetPinIndexBy_XY_ForPart@CNetList@@QAEHPAVcpart@@HH@Z 00779bf0 f   NetList.obj
 0002:001fddd0       ?GetPinIndexByNameForPart@CNetList@@QAEHPAVcpart@@V?$CStringT@DV?$StrTraitMFC_DLL@DV?$ChTraitsCRT@D@ATL@@@@@ATL@@HH@Z 00779dd0 f   NetList.obj
 0002:001fe070       ?GetNetPinIndex@CNetList@@QAEHPAVcnet@@PAV?$CStringT@DV?$StrTraitMFC_DLL@DV?$ChTraitsCRT@D@ATL@@@@@ATL@@1@Z 0077a070 f   NetList.obj
 0002:001fe150       ?FindPin@CNetList@@QAEPAVcnet@@PAV?$CStringT@DV?$StrTraitMFC_DLL@DV?$ChTraitsCRT@D@ATL@@@@@ATL@@0@Z 0077a150 f   NetList.obj
 0002:001fe310       ?GetLength@CNetList@@QAEHPAVcnet@@H@Z 0077a310 f   NetList.obj
 0002:001fe4e0       ?AddNetConnect@CNetList@@QAEHPAVcnet@@HHHHHH@Z 0077a4e0 f   NetList.obj
 0002:001fefd0       ?RepairBranch@CNetList@@QAEXPAVcnet@@HH@Z 0077afd0 f   NetList.obj
 0002:001ff250       ?RepairAllBranches@CNetList@@QAEXH@Z 0077b250 f   NetList.obj
 0002:001ff3f0       ?RepairBranchesForNet@CNetList@@QAEXPAVcnet@@@Z 0077b3f0 f   NetList.obj
 0002:00200090       ?MirrorNetConnect@CNetList@@QAEHPAVcnet@@HHH@Z 0077c090 f   NetList.obj
 0002:002008f0       ?TestHitOnConnectionEndPad@CNetList@@QAEHHHPAVcnet@@HHH@Z 0077c8f0 f   NetList.obj
 0002:00200ad0       ?TestHitOnAnyPadInNet@CNetList@@QAEHHHHPAVcnet@@PAH@Z 0077cad0 f   NetList.obj
 0002:00201b10       ?GetNumRatlines@CNetList@@QAEHPAVcnet@@PAH1PAV?$CStringT@DV?$StrTraitMFC_DLL@DV?$ChTraitsCRT@D@ATL@@@@@ATL@@PAPAVcpart@@3PAVid@@4@Z 0077db10 f   NetList.obj
 0002:002024c0       ?UnrouteNetConnect@CNetList@@QAEHPAVcnet@@H@Z 0077e4c0 f   NetList.obj
 0002:00203290       ?MergeUnroutedSegments@CNetList@@QAEXPAVcnet@@HH@Z 0077f290 f   NetList.obj
 0002:002044e0       ?RenumberConnections@CNetList@@QAEXPAVcnet@@@Z 007804e0 f   NetList.obj
 0002:002046a0       ?RenumberConnection@CNetList@@QAEXPAVcnet@@H@Z 007806a0 f   NetList.obj
 0002:002049d0       ?RenumberAreas@CNetList@@QAEXPAVcnet@@@Z 007809d0 f   NetList.obj
 0002:00204fb0       ?RouteTrace@CNetList@@QAEXPAVcnet@@HHHHH@Z 00780fb0 f   NetList.obj
 0002:00205780       ?AppendSegment@CNetList@@QAEHPAVcnet@@HHHHHHHH@Z 00781780 f   NetList.obj
 0002:00206080       ?SetConnectionWidth@CNetList@@QAEHPAVcnet@@HHHH@Z 00782080 f   NetList.obj
 0002:00206150       ?SetNetWidth@CNetList@@QAEHPAVcnet@@HHH@Z 00782150 f   NetList.obj
 0002:00206620       ?PartRouted@CNetList@@QAEHPAVcpart@@@Z 00782620 f   NetList.obj
 0002:00207720       ?SwapConnects@CNetList@@QAEXPAVcnet@@0Vid@@1@Z 00783720 f   NetList.obj
 0002:00209880       ?PartMoved@CNetList@@QAEHPAVcpart@@HH@Z 00785880 f   NetList.obj
 0002:0020b560       ?PartDeleted@CNetList@@QAEHPAVcpart@@H@Z 00787560 f   NetList.obj
 0002:0020ba80       ?PartDisconnected@CNetList@@QAEHPAVcpart@@H@Z 00787a80 f   NetList.obj
 0002:0020bbb0       ?AddPinsToGrid@@YAXPADHHH@Z 00787bb0 f   NetList.obj
 0002:0020bd40       ?OptimizeConnections@CNetList@@QAEXHHH@Z 00787d40 f   NetList.obj
 0002:0020beb0       ?OptimizeConnections@CNetList@@QAEXPAVcpart@@HHH@Z 00787eb0 f   NetList.obj
 0002:0020e6b0       ?HighlightDrcCircles@@YAXH@Z 0078a6b0 f   NetList.obj
 0002:0020eca0       ?MoveEndVertex@CNetList@@QAEXPAVcnet@@HHHH@Z 0078aca0 f   NetList.obj
 0002:0020eed0       ?MoveVertex@CNetList@@QAEXPAVcnet@@HHHH@Z 0078aed0 f   NetList.obj
 0002:0020f540       ?StartDraggingVertex@CNetList@@QAEHPAVCDC@@PAVcnet@@HHHHH@Z 0078b540 f   NetList.obj
 0002:0020fc30       ?StartDraggingSegment@CNetList@@QAEHPAVCDC@@PAVcnet@@HHHHHHHHHHHH@Z 0078bc30 f   NetList.obj
 0002:0020fd90       ?StartDraggingSegmentNewVertex@CNetList@@QAEHPAVCDC@@PAVcnet@@HHHHHHH@Z 0078bd90 f   NetList.obj
 0002:00210180       ?StartDraggingAreaCorner@CNetList@@QAEHPAVCDC@@PAVcnet@@HHHHH@Z 0078c180 f   NetList.obj
 0002:00210200       ?StartDraggingInsertedAreaCorner@CNetList@@QAEHPAVCDC@@PAVcnet@@HHHHH@Z 0078c200 f   NetList.obj
 0002:002102a0       ?CancelDraggingInsertedAreaCorner@CNetList@@QAEHPAVcnet@@HH@Z 0078c2a0 f   NetList.obj
 0002:00210340       ?CancelDraggingAreaCorner@CNetList@@QAEHPAVcnet@@HH@Z 0078c340 f   NetList.obj
 0002:002103d0       ?CancelDraggingSegment@CNetList@@QAEHPAVcnet@@HH@Z 0078c3d0 f   NetList.obj
 0002:00210660       ?CancelDraggingVertex@CNetList@@QAEHPAVcnet@@HH@Z 0078c660 f   NetList.obj
 0002:002109a0       ?CancelDraggingSegmentNewVertex@CNetList@@QAEHPAVcnet@@HH@Z 0078c9a0 f   NetList.obj
 0002:00211010       ?GetViaPadInfo@CNetList@@QAEXPAVcnet@@HHHPAH11@Z 0078d010 f   NetList.obj
 0002:00211430       ?AddArea@CNetList@@QAEHPAVcnet@@HHHHH@Z 0078d430 f   NetList.obj
 0002:002116a0       ?AppendAreaCorner@CNetList@@QAEHPAVcnet@@HHHHH@Z 0078d6a0 f   NetList.obj
 0002:00211980       ?HighlightAreaCorner@CNetList@@QAEXPAVcnet@@HHH@Z 0078d980 f   NetList.obj
 0002:00211a70       ?GetAreaCorner@CNetList@@QAE?AVCPoint@@PAVcnet@@HH@Z 0078da70 f   NetList.obj
 0002:00211b60       ?CompleteArea@CNetList@@QAEHPAVcnet@@HH@Z 0078db60 f   NetList.obj
 0002:00211c40       ?SetAreaHatch@CNetList@@QAEXPAVcnet@@HH@Z 0078dc40 f   NetList.obj
 0002:00211e30       ?SetAreaConnections@CNetList@@QAEXPAVcnet@@@Z 0078de30 f   NetList.obj
 0002:00211f50       ?SetAreaConnections@CNetList@@QAEXPAVcpart@@@Z 0078df50 f   NetList.obj
 0002:002131e0       ?RemoveArea@CNetList@@QAEHPAVcnet@@H@Z 0078f1e0 f   NetList.obj
 0002:00213320       ?SelectAreaSide@CNetList@@QAEXPAVcnet@@HH@Z 0078f320 f   NetList.obj
 0002:002133a0       ?SelectAreaCorner@CNetList@@QAEXPAVcnet@@HH@Z 0078f3a0 f   NetList.obj
 0002:00213450       ?SetAreaSideStyle@CNetList@@QAEXPAVcnet@@HHH@Z 0078f450 f   NetList.obj
 0002:00213800       ?HighlightRatLines@CNetList@@QAEXPAVcnet@@HH@Z 0078f800 f   NetList.obj
 0002:002138d0       ?HighlightNetConnections@CNetList@@QAEXPAVcnet@@HHHH@Z 0078f8d0 f   NetList.obj
 0002:00213980       ?HighlightConnection@CNetList@@QAEXPAVcnet@@HH@Z 0078f980 f   NetList.obj
 0002:00213b60       ?HighlightConnection@CNetList@@QAEXPAVcnet@@HHHHHH@Z 0078fb60 f   NetList.obj
 0002:00213e40       ?HighlightSegment@CNetList@@QAEXPAVcnet@@HHHHH@Z 0078fe40 f   NetList.obj
 0002:00214640       ?HighlightAreaSides@CNetList@@QAEXPAVcnet@@HHH@Z 00790640 f   NetList.obj
 0002:00214840       ?ForceVia@CNetList@@QAEHPAVcnet@@HHHHH@Z 00790840 f   NetList.obj
 0002:00214970       ?UnforceVia@CNetList@@QAEHPAVcnet@@HHH@Z 00790970 f   NetList.obj
 0002:00214e90       ?ReconcileVia@CNetList@@QAEHPAVcnet@@HHHHH@Z 00790e90 f   NetList.obj
 0002:00215b80       ?WriteNets@CNetList@@QAEHPAVCStdioFile@@@Z 00791b80 f   NetList.obj
 0002:00219210       ?UndrawVia@CNetList@@QAEXPAVcnet@@HH@Z 00795210 f   NetList.obj
 0002:0021a440       ?GetNetVisibility@CNetList@@QAEHPAVcnet@@@Z 00796440 f   NetList.obj
 0002:0021a880       ?ExportNetListInfo@CNetList@@QAEXPAV?$CArray@Unet_info@@ABU1@@@@Z 00796880 f   NetList.obj
 0002:0021cc00       ?ReassignCopperLayers@CNetList@@QAEXHPAH@Z 00798c00 f   NetList.obj
 0002:0021e6e0       ?CreateConnectUndoRecord@CNetList@@QAEPAUundo_con@@PAVcnet@@HH@Z 0079a6e0 f   NetList.obj
 0002:0021eea0       ?CreateNetUndoRecord@CNetList@@QAEPAUundo_net@@PAVcnet@@@Z 0079aea0 f   NetList.obj
 0002:0021f200       ?NetUndoCallback@CNetList@@SAXHPAXH@Z 0079b200 f   NetList.obj
 0002:0021fb50       ?AreaUndoCallback@CNetList@@SAXHPAXH@Z 0079bb50 f   NetList.obj
 0002:00221840       ?CheckConnectivity@CNetList@@QAEHPAV?$CStringT@DV?$StrTraitMFC_DLL@DV?$ChTraitsCRT@D@ATL@@@@@ATL@@@Z 0079d840 f   NetList.obj
 0002:00222180       ?TestAreaPolygon@CNetList@@QAEHPAVcnet@@H@Z 0079e180 f   NetList.obj
 0002:00224560       ?AreaPolygonModified@CNetList@@QAEHPAVcnet@@HHHH@Z 007a0560 f   NetList.obj
 0002:00224b10       ?CombineAllAreasInNet@CNetList@@QAEHPAVcnet@@HH@Z 007a0b10 f   NetList.obj
 0002:00225e10       ?TestAreaIntersection@CNetList@@QAEHPAVcnet@@HH@Z 007a1e10 f   NetList.obj
 0002:00226880       ?SetWidths@CNetList@@QAEXHHH@Z 007a2880 f   NetList.obj
 0002:00226940       ?GetWidths@CNetList@@QAEXPAVcnet@@PAH11@Z 007a2940 f   NetList.obj
 0002:00226b10       ?GetSelCount@CNetList@@QAEHPAVcnet@@@Z 007a2b10 f   NetList.obj
 0002:00227440       ?ClearTeeIDs@CNetList@@QAEXXZ 007a3440 f   NetList.obj
 0002:002274e0       ?FindTeeID@CNetList@@QAEHH@Z 007a34e0 f   NetList.obj
 0002:00227650       ?RemoveTeeID@CNetList@@QAEXH@Z 007a3650 f   NetList.obj
 0002:002276d0       ?AddTeeID@CNetList@@QAEXH@Z 007a36d0 f   NetList.obj
 0002:002279a0       ?FindTeeVertex@CNetList@@QAEHHPAPAVcnet@@PAH1@Z 007a39a0 f   NetList.obj
 0002:00227b30       ?DisconnectBranch@CNetList@@QAEHPAVcnet@@H@Z 007a3b30 f   NetList.obj
 0002:00227c80       ?RemoveTee@CNetList@@QAEHPAVcnet@@HH@Z 007a3c80 f   NetList.obj
 0002:00227e10       ?TeeViaNeeded@CNetList@@QAEHPAVcnet@@H@Z 007a3e10 f   NetList.obj
 0002:00228880       ?RouteToPin@@YAHHPAVcnode@@PAV?$CArray@Vcnode@@ABV1@@@PAV?$CArray@Vcpath@@ABV1@@@PAVCDlgLog@@@Z 007a4880 f   NetList.obj
 0002:0022aa40       ?Add@?$CArray@VCPoint@@ABV1@@@QAEHABVCPoint@@@Z 007a6a40 f i NetList.obj
 0002:0022aad0       ??0?$CArray@PAVdl_element@@ABQAV1@@@QAE@XZ 007a6ad0 f i NetList.obj
 0002:0022aba0       ?SetAtGrow@?$CArray@PAVdl_element@@ABQAV1@@@QAEXHABQAVdl_element@@@Z 007a6ba0 f i NetList.obj
 0002:0022ad90       ?GetSize@?$CArray@PAVcnet@@ABQAV1@@@QBEHXZ 007a6d90 f i NetList.obj
 0002:0022add0       ?GetSize@?$CArray@Vcseg@@ABV1@@@QBEHXZ 007a6dd0 f i NetList.obj
 0002:0022ae30       ?RemoveAll@?$CArray@Vcconnect@@ABV1@@@QAEXXZ 007a6e30 f i NetList.obj
 0002:0022b040       ?GetSize@?$CArray@Vcpin@@ABV1@@@QBEHXZ 007a7040 f i NetList.obj
 0002:0022b0a0       ?RemoveAll@?$CArray@Vcpin@@ABV1@@@QAEXXZ 007a70a0 f i NetList.obj
 0002:0022b2d0       ?RemoveAll@?$CArray@Vcarea@@V1@@@QAEXXZ 007a72d0 f i NetList.obj
 0002:0022b8d0       ?GetSize@?$CArray@PAUgpc_polygon@@ABQAU1@@@QBEHXZ 007a78d0 f i NetList.obj
 0002:0022bec0       ?RemoveAll@?$CArray@PAUgpc_polygon@@ABQAU1@@@QAEXXZ 007a7ec0 f i NetList.obj
 0002:0022bfe0       ?Add@?$CArray@PAUgpc_polygon@@ABQAU1@@@QAEHABQAUgpc_polygon@@@Z 007a7fe0 f i NetList.obj
 0002:0022c040       ??A?$CArray@PAUgpc_polygon@@ABQAU1@@@QAEAAPAUgpc_polygon@@H@Z 007a8040 f i NetList.obj
 0002:0022c3d0       ?Serialize@?$CArray@PAUgpc_polygon@@ABQAU1@@@UAEXAAVCArchive@@@Z 007a83d0 f i NetList.obj
 0002:0022c4b0       ?Dump@?$CArray@PAUgpc_polygon@@ABQAU1@@@UBEXAAVCDumpContext@@@Z 007a84b0 f i NetList.obj
 0002:0022c650       ?GetSize@?$CArray@UtagRECT@@ABU1@@@QBEHXZ 007a8650 f i NetList.obj
 0002:0022c6b0       ?RemoveAll@?$CArray@UtagRECT@@ABU1@@@QAEXXZ 007a86b0 f i NetList.obj
 0002:0022c720       ?Add@?$CArray@UtagRECT@@ABU1@@@QAEHABUtagRECT@@@Z 007a8720 f i NetList.obj
 0002:0022c980       ?GetSize@?$CArray@PAVCPolyLine@@ABQAV1@@@QBEHXZ 007a8980 f i NetList.obj
 0002:0022caa0       ??_G?$CArray@PAUgpc_polygon@@ABQAU1@@@UAEPAXI@Z 007a8aa0 f i NetList.obj
 0002:0022caa0       ??_E?$CArray@PAUgpc_polygon@@ABQAU1@@@UAEPAXI@Z 007a8aa0 f i NetList.obj
 0002:0022cb70       ?SetAtGrow@?$CArray@VCPoint@@ABV1@@@QAEXHABVCPoint@@@Z 007a8b70 f i NetList.obj
 0002:0022cc20       ?ElementAt@?$CArray@PAUgpc_polygon@@ABQAU1@@@QAEAAPAUgpc_polygon@@H@Z 007a8c20 f i NetList.obj
 0002:0022ccf0       ?SetAtGrow@?$CArray@PAUgpc_polygon@@ABQAU1@@@QAEXHABQAUgpc_polygon@@@Z 007a8cf0 f i NetList.obj
 0002:0022cfd0       ??$DumpElements@PAUgpc_polygon@@@@YGXAAVCDumpContext@@PBQAUgpc_polygon@@H@Z 007a8fd0 f i NetList.obj
 0002:0022d110       ?Dragging_third_segment@CDisplayList@@QAEHXZ 007a9110 f i NetList.obj
 0002:0022d200       ?Initialize@cseg@@QAEXPAVCDisplayList@@PAVCNetList@@@Z 007a9200 f i NetList.obj
 0002:0022d250       ?Initialize@cvertex@@QAEXPAVCDisplayList@@PAVCNetList@@@Z 007a9250 f i NetList.obj
 0002:0022d2a0       ?Initialize@cconnect@@QAEXPAVCNetList@@@Z 007a92a0 f i NetList.obj
 0002:0022d3a0       ??0cnet@@QAE@PAVCDisplayList@@@Z 007a93a0 f i NetList.obj
 0002:0022d580       ?Serialize@?$CArray@PAVdl_element@@ABQAV1@@@UAEXAAVCArchive@@@Z 007a9580 f i NetList.obj
 0002:0022d660       ?Dump@?$CArray@PAVdl_element@@ABQAV1@@@UBEXAAVCDumpContext@@@Z 007a9660 f i NetList.obj
 0002:0022d850       ??0?$CArray@Vcconnect@@ABV1@@@QAE@XZ 007a9850 f i NetList.obj
 0002:0022da50       ?Serialize@?$CArray@Vcconnect@@ABV1@@@UAEXAAVCArchive@@@Z 007a9a50 f i NetList.obj
 0002:0022db30       ?Dump@?$CArray@Vcconnect@@ABV1@@@UBEXAAVCDumpContext@@@Z 007a9b30 f i NetList.obj
 0002:0022dd20       ??0?$CArray@Vcpin@@ABV1@@@QAE@XZ 007a9d20 f i NetList.obj
 0002:0022df20       ?Serialize@?$CArray@Vcpin@@ABV1@@@UAEXAAVCArchive@@@Z 007a9f20 f i NetList.obj
 0002:0022e000       ?Dump@?$CArray@Vcpin@@ABV1@@@UBEXAAVCDumpContext@@@Z 007aa000 f i NetList.obj
 0002:0022e1f0       ??0?$CArray@Vcarea@@V1@@@QAE@XZ 007aa1f0 f i NetList.obj
 0002:0022e3f0       ?Serialize@?$CArray@Vcarea@@V1@@@UAEXAAVCArchive@@@Z 007aa3f0 f i NetList.obj
 0002:0022e4d0       ?Dump@?$CArray@Vcarea@@V1@@@UBEXAAVCDumpContext@@@Z 007aa4d0 f i NetList.obj
 0002:0022e6a0       ??_E?$CArray@PAVdl_element@@ABQAV1@@@UAEPAXI@Z 007aa6a0 f i NetList.obj
 0002:0022e6a0       ??_G?$CArray@PAVdl_element@@ABQAV1@@@UAEPAXI@Z 007aa6a0 f i NetList.obj
 0002:0022e710       ??_E?$CArray@Vcconnect@@ABV1@@@UAEPAXI@Z 007aa710 f i NetList.obj
 0002:0022e710       ??_G?$CArray@Vcconnect@@ABV1@@@UAEPAXI@Z 007aa710 f i NetList.obj
 0002:0022e780       ??_Gcconnect@@QAEPAXI@Z    007aa780 f i NetList.obj
 0002:0022e840       ??1cconnect@@QAE@XZ        007aa840 f i NetList.obj
 0002:0022ea40       ?Serialize@?$CArray@Vcseg@@ABV1@@@UAEXAAVCArchive@@@Z 007aaa40 f i NetList.obj
 0002:0022eb20       ?Dump@?$CArray@Vcseg@@ABV1@@@UBEXAAVCDumpContext@@@Z 007aab20 f i NetList.obj
 0002:0022ec80       ?AssertValid@?$CArray@Vcseg@@ABV1@@@UBEXXZ 007aac80 f i NetList.obj
 0002:0022ee80       ?Serialize@?$CArray@Vcvertex@@ABV1@@@UAEXAAVCArchive@@@Z 007aae80 f i NetList.obj
 0002:0022ef60       ?Dump@?$CArray@Vcvertex@@ABV1@@@UBEXAAVCDumpContext@@@Z 007aaf60 f i NetList.obj
 0002:0022f130       ??_E?$CArray@Vcseg@@ABV1@@@UAEPAXI@Z 007ab130 f i NetList.obj
 0002:0022f130       ??_G?$CArray@Vcseg@@ABV1@@@UAEPAXI@Z 007ab130 f i NetList.obj
 0002:0022f1a0       ??_E?$CArray@Vcvertex@@ABV1@@@UAEPAXI@Z 007ab1a0 f i NetList.obj
 0002:0022f1a0       ??_G?$CArray@Vcvertex@@ABV1@@@UAEPAXI@Z 007ab1a0 f i NetList.obj
 0002:0022f210       ??_E?$CArray@Vcpin@@ABV1@@@UAEPAXI@Z 007ab210 f i NetList.obj
 0002:0022f210       ??_G?$CArray@Vcpin@@ABV1@@@UAEPAXI@Z 007ab210 f i NetList.obj
 0002:0022f280       ??_Gcpin@@QAEPAXI@Z        007ab280 f i NetList.obj
 0002:0022f2f0       ??_G?$CArray@Vcarea@@V1@@@UAEPAXI@Z 007ab2f0 f i NetList.obj
 0002:0022f2f0       ??_E?$CArray@Vcarea@@V1@@@UAEPAXI@Z 007ab2f0 f i NetList.obj
 0002:0022f360       ??_Gcarea@@QAEPAXI@Z       007ab360 f i NetList.obj
 0002:0022f3e0       ??1cpin@@QAE@XZ            007ab3e0 f i NetList.obj
 0002:0022fc50       ??$DumpElements@PAVdl_element@@@@YGXAAVCDumpContext@@PBQAVdl_element@@H@Z 007abc50 f i NetList.obj
 0002:0022ff30       ??$DumpElements@Vcseg@@@@YGXAAVCDumpContext@@PBVcseg@@H@Z 007abf30 f i NetList.obj
 0002:00230210       ??$DumpElements@Vcvertex@@@@YGXAAVCDumpContext@@PBVcvertex@@H@Z 007ac210 f i NetList.obj
 0002:00230ad0       ??0?$CArray@Vcseg@@ABV1@@@QAE@XZ 007acad0 f i NetList.obj
 0002:00230b60       ??0?$CArray@Vcvertex@@ABV1@@@QAE@XZ 007acb60 f i NetList.obj
 0002:00230e40       ??$DumpElements@Vcconnect@@@@YGXAAVCDumpContext@@PBVcconnect@@H@Z 007ace40 f i NetList.obj
 0002:002315d0       ??0cpin@@QAE@XZ            007ad5d0 f i NetList.obj
 0002:002318b0       ??$DumpElements@Vcpin@@@@YGXAAVCDumpContext@@PBVcpin@@H@Z 007ad8b0 f i NetList.obj
 0002:002322a0       ??0part_pin@@QAE@XZ        007ae2a0 f   PartList.obj
 0002:00232350       ??1part_pin@@QAE@XZ        007ae350 f   PartList.obj
 0002:00232400       ??0cpart@@QAE@XZ           007ae400 f   PartList.obj
 0002:00232560       ??1cpart@@QAE@XZ           007ae560 f   PartList.obj
 0002:00232670       ??0CPartList@@QAE@PAVCDisplayList@@PAVSMFontUtil@@@Z 007ae670 f   PartList.obj
 0002:00232840       ??1CPartList@@QAE@XZ       007ae840 f   PartList.obj
 0002:00232920       ?Add@CPartList@@QAEPAVcpart@@XZ 007ae920 f   PartList.obj
 0002:00232af0       ?Add@CPartList@@QAEPAVcpart@@PAVCShape@@PAV?$CStringT@DV?$StrTraitMFC_DLL@DV?$ChTraitsCRT@D@ATL@@@@@ATL@@HHHHHH@Z 007aeaf0 f   PartList.obj
 0002:00232be0       ?SetPartData@CPartList@@QAEHPAVcpart@@PAVCShape@@PAV?$CStringT@DV?$StrTraitMFC_DLL@DV?$ChTraitsCRT@D@ATL@@@@@ATL@@HHHHHHH@Z 007aebe0 f   PartList.obj
 0002:00232f80       ?HighlightPart@CPartList@@QAEHPAVcpart@@H@Z 007aef80 f   PartList.obj
 0002:00233100       ?SetLinesVis@CPartList@@QAEXPAVcpart@@H@Z 007af100 f   PartList.obj
 0002:00233220       ?SelectRefText@CPartList@@QAEHPAVcpart@@@Z 007af220 f   PartList.obj
 0002:00233290       ?SelectValueText@CPartList@@QAEHPAVcpart@@@Z 007af290 f   PartList.obj
 0002:00233310       ?HighlightAllPadsOnNet@CPartList@@QAEXPAVcnet@@HHHHPAVcpart@@@Z 007af310 f   PartList.obj
 0002:00233650       ?SelectPads@CPartList@@QAEHPAVcpart@@HHH@Z 007af650 f   PartList.obj
 0002:00233710       ?SelectPad@CPartList@@QAEPAVdl_element@@PAVcpart@@HHHH@Z 007af710 f   PartList.obj
 0002:002342c0       ?TestHitOnPad@CPartList@@QAEHPAVcpart@@PAV?$CStringT@DV?$StrTraitMFC_DLL@DV?$ChTraitsCRT@D@ATL@@@@@ATL@@HHH@Z 007b02c0 f   PartList.obj
 0002:002346a0       ?Move@CPartList@@QAEHPAVcpart@@HHHHH@Z 007b06a0 f   PartList.obj
 0002:00234830       ?MoveRefText@CPartList@@QAEHPAVcpart@@HHHHH@Z 007b0830 f   PartList.obj
 0002:002349d0       ?ResizeRefText@CPartList@@QAEXPAVcpart@@HHHH@Z 007b09d0 f   PartList.obj
 0002:00234a80       ?MoveValueText@CPartList@@QAEHPAVcpart@@HHHHH@Z 007b0a80 f   PartList.obj
 0002:00234c20       ?ResizeValueText@CPartList@@QAEXPAVcpart@@HHHH@Z 007b0c20 f   PartList.obj
 0002:00234cd0       ?SetValue@CPartList@@QAEXPAVcpart@@PAV?$CStringT@DV?$StrTraitMFC_DLL@DV?$ChTraitsCRT@D@ATL@@@@@ATL@@HHHHHH@Z 007b0cd0 f   PartList.obj
 0002:00234dc0       ?SetValue@CPartList@@QAEXPAVcpart@@PAV?$CStringT@DV?$StrTraitMFC_DLL@DV?$ChTraitsCRT@D@ATL@@@@@ATL@@@Z 007b0dc0 f   PartList.obj
 0002:00234e70       ?GetSide@CPartList@@QAEHPAVcpart@@@Z 007b0e70 f   PartList.obj
 0002:00234eb0       ?GetAngle@CPartList@@QAEHPAVcpart@@@Z 007b0eb0 f   PartList.obj
 0002:00234ef0       ?GetRefAngle@CPartList@@QAEHPAVcpart@@@Z 007b0ef0 f   PartList.obj
 0002:00234f30       ?GetValueAngle@CPartList@@QAEHPAVcpart@@@Z 007b0f30 f   PartList.obj
 0002:00234f70       ?GetRefPoint@CPartList@@QAE?AVCPoint@@PAVcpart@@@Z 007b0f70 f   PartList.obj
 0002:002350a0       ?GetValuePoint@CPartList@@QAE?AVCPoint@@PAVcpart@@@Z 007b10a0 f   PartList.obj
 0002:002351e0       ?GetPinPoint@CPartList@@QAE?AVCPoint@@PAVcpart@@HHH@Z 007b11e0 f   PartList.obj
 0002:002353c0       ?GetCentroidPoint@CPartList@@QAE?AVCPoint@@PAVcpart@@@Z 007b13c0 f   PartList.obj
 0002:00235550       ?GetGluePoint@CPartList@@QAE?AVCPoint@@PAVcpart@@H@Z 007b1550 f   PartList.obj
 0002:00235750       ?GetPinLayer@CPartList@@QAEHPAVcpart@@H@Z 007b1750 f   PartList.obj
 0002:002358c0       ?GetPinNet@CPartList@@QAEPAVcnet@@PAVcpart@@PAV?$CStringT@DV?$StrTraitMFC_DLL@DV?$ChTraitsCRT@D@ATL@@@@@ATL@@@Z 007b18c0 f   PartList.obj
 0002:00235960       ?GetPinNet@CPartList@@QAEPAVcnet@@PAVcpart@@H@Z 007b1960 f   PartList.obj
 0002:002359d0       ?GetPartBoundingRect@CPartList@@QAEHPAVcpart@@PAUtagRECT@@@Z 007b19d0 f   PartList.obj
 0002:00235a70       ?GetPinsBoundingRect@CPartList@@QAEHPAVcpart@@PAUtagRECT@@@Z 007b1a70 f   PartList.obj
 0002:00235c10       ?GetPartThruPadsRect@CPartList@@QAEHPAVcpart@@PAUtagRECT@@@Z 007b1c10 f   PartList.obj
 0002:00235dc0       ?GetRefBoundingRect@CPartList@@QAEHPAVcpart@@PAUtagRECT@@@Z 007b1dc0 f   PartList.obj
 0002:00235e60       ?GetValueBoundingRect@CPartList@@QAEHPAVcpart@@PAUtagRECT@@@Z 007b1e60 f   PartList.obj
 0002:00235f10       ?GetPadBounds@CPartList@@QAEHPAVcpart@@HPAUtagRECT@@@Z 007b1f10 f   PartList.obj
 0002:00236000       ?GetPartBoundaries@CPartList@@QAEHPAUtagRECT@@@Z 007b2000 f   PartList.obj
 0002:00236150       ?GetPart@CPartList@@QAEPAVcpart@@PBD@Z 007b2150 f   PartList.obj
 0002:002361f0       ?GetFirstPart@CPartList@@QAEPAVcpart@@XZ 007b21f0 f   PartList.obj
 0002:00236250       ?GetEndPart@CPartList@@QAEPAVcpart@@XZ 007b2250 f   PartList.obj
 0002:002362b0       ?GetNextPart@CPartList@@QAEPAVcpart@@PAV2@@Z 007b22b0 f   PartList.obj
 0002:00236320       ?GetPrevPart@CPartList@@QAEPAVcpart@@PAV2@@Z 007b2320 f   PartList.obj
 0002:00236390       ?GetSelCount@CPartList@@QAEHXZ 007b2390 f   PartList.obj
 0002:00236420       ?GetSelParts@CPartList@@QAEHPAV?$CStringT@DV?$StrTraitMFC_DLL@DV?$ChTraitsCRT@D@ATL@@@@@ATL@@@Z 007b2420 f   PartList.obj
 0002:00236590       ?GetNumFootprintInstances@CPartList@@QAEHPAVCShape@@@Z 007b2590 f   PartList.obj
 0002:00236620       ?PurgeFootprintCache@CPartList@@QAEXXZ 007b2620 f   PartList.obj
 0002:00236850       ?Remove@CPartList@@QAEHPAVcpart@@@Z 007b2850 f   PartList.obj
 0002:00236940       ??_Gcpart@@QAEPAXI@Z       007b2940 f i PartList.obj
 0002:002369b0       ?RemoveAllParts@CPartList@@QAEXXZ 007b29b0 f   PartList.obj
 0002:00236a20       ?MarkAllParts@CPartList@@QAEXH@Z 007b2a20 f   PartList.obj
 0002:00236aa0       ?GenerateStrokesForPartString@@YAHPAV?$CStringT@DV?$StrTraitMFC_DLL@DV?$ChTraitsCRT@D@ATL@@@@@ATL@@HHHHHHHHHHPAV?$CArray@VCPoint@@ABV1@@@PAUtagRECT@@PAVCPoint@@PAVCDisplayList@@PAVSMFontUtil@@@Z 007b2aa0 f   PartList.obj
 0002:00237680       ?DrawPart@CPartList@@QAEHPAVcpart@@@Z 007b3680 f   PartList.obj
 0002:0023ae60       ?UndrawPart@CPartList@@QAEHPAVcpart@@@Z 007b6e60 f   PartList.obj
 0002:0023b1b0       ?PartFootprintChanged@CPartList@@QAEXPAVcpart@@PAVCShape@@PAV?$CStringT@DV?$StrTraitMFC_DLL@DV?$ChTraitsCRT@D@ATL@@@@@ATL@@@Z 007b71b0 f   PartList.obj
 0002:0023b4f0       ?FootprintChanged@CPartList@@QAEXPAVCShape@@@Z 007b74f0 f   PartList.obj
 0002:0023b660       ?RefTextSizeChanged@CPartList@@QAEXPAVCShape@@@Z 007b7660 f   PartList.obj
 0002:0023b720       ?MakePartVisible@CPartList@@QAEXPAVcpart@@H@Z 007b7720 f   PartList.obj
 0002:0023ba30       ?StartDraggingPart@CPartList@@QAEHPAVCDC@@PAVcpart@@HHHHH@Z 007b7a30 f   PartList.obj
 0002:0023ca20       ?StartDraggingRefText@CPartList@@QAEHPAVCDC@@PAVcpart@@@Z 007b8a20 f   PartList.obj
 0002:0023cdc0       ?StartDraggingValue@CPartList@@QAEHPAVCDC@@PAVcpart@@@Z 007b8dc0 f   PartList.obj
 0002:0023d1a0       ?CancelDraggingPart@CPartList@@QAEHPAVcpart@@@Z 007b91a0 f   PartList.obj
 0002:0023d3d0       ?CancelDraggingRefText@CPartList@@QAEHPAVcpart@@@Z 007b93d0 f   PartList.obj
 0002:0023d450       ?CancelDraggingValue@CPartList@@QAEHPAVcpart@@@Z 007b9450 f   PartList.obj
 0002:0023d4d0       ?StopDragging@CPartList@@QAEHXZ 007b94d0 f   PartList.obj
 0002:0023d530       ?AddFromString@CPartList@@QAEPAVcpart@@PAV?$CStringT@DV?$StrTraitMFC_DLL@DV?$ChTraitsCRT@D@ATL@@@@@ATL@@@Z 007b9530 f   PartList.obj
 0002:0023e7b0       ?ReadParts@CPartList@@QAEHPAVCStdioFile@@@Z 007ba7b0 f   PartList.obj
 0002:0023f270       ?SetPartString@CPartList@@QAEHPAVcpart@@PAV?$CStringT@DV?$StrTraitMFC_DLL@DV?$ChTraitsCRT@D@ATL@@@@@ATL@@@Z 007bb270 f   PartList.obj
 0002:0023f780       ?CreatePartUndoRecord@CPartList@@QAEPAUundo_part@@PAVcpart@@PAV?$CStringT@DV?$StrTraitMFC_DLL@DV?$ChTraitsCRT@D@ATL@@@@@ATL@@@Z 007bb780 f   PartList.obj
 0002:0023fbc0       ??$strcpy@PAD@@YAPADAAPADPBD@Z 007bbbc0 f i PartList.obj
 0002:0023fc20       ___insecure_strcpy         007bbc20 f i PartList.obj
 0002:0023fc80       ?WriteParts@CPartList@@QAEHPAVCStdioFile@@@Z 007bbc80 f   PartList.obj
 0002:002400e0       ?ExportPartListInfo@CPartList@@QAEHPAV?$CArray@Upart_info@@ABU1@@@PAVcpart@@@Z 007bc0e0 f   PartList.obj
 0002:002403e0       ?ImportPartListInfo@CPartList@@QAEXPAV?$CArray@Upart_info@@ABU1@@@HPAVCDlgLog@@@Z 007bc3e0 f   PartList.obj
 0002:00241ea0       ?PartUndoCallback@CPartList@@SAXHPAXH@Z 007bdea0 f   PartList.obj
 0002:00242a70       ?GetPinConnectionStatus@CPartList@@QAEHPAVcpart@@HH@Z 007bea70 f   PartList.obj
 0002:00243200       ?GetPadDrawInfo@CPartList@@QAEHPAVcpart@@HHHHHHPAH1111111PAPAVcnet@@111@Z 007bf200 f   PartList.obj
 0002:00243b30       ?CheckPartlist@CPartList@@QAEHPAV?$CStringT@DV?$StrTraitMFC_DLL@DV?$ChTraitsCRT@D@ATL@@@@@ATL@@@Z 007bfb30 f   PartList.obj
 0002:002441c0       ?MoveOrigin@CPartList@@QAEXHH@Z 007c01c0 f   PartList.obj
 0002:00244340       ?CheckForProblemFootprints@CPartList@@QAEHXZ 007c0340 f   PartList.obj
 0002:002445f0       ?RefAutoLocation@CPartList@@QAEPAVcpart@@PAV2@HHUtagRECT@@PAV?$CArray@VCPolyLine@@ABV1@@@PAVCTextList@@HH@Z 007c05f0 f   PartList.obj
 0002:00249a70       ?FindNetPointForPart@CPartList@@QAEXPAVcpart@@PAVCPoint@@PAH012H@Z 007c5a70 f   PartList.obj
 0002:0024a150       ?PartAutoLocation@CPartList@@QAE?AVCPoint@@PAVcpart@@HHH@Z 007c6150 f   PartList.obj
 0002:0024b160       ?OptimizeRatlinesOnPin@CPartList@@QAEXPAVcnet@@H@Z 007c7160 f   PartList.obj
 0002:0024bb40       ?ChannelDuplication@CPartList@@QAEXPAV?$CStringT@DV?$StrTraitMFC_DLL@DV?$ChTraitsCRT@D@ATL@@@@@ATL@@PAV?$CArray@VCPolyLine@@ABV1@@@PAVCTextList@@@Z 007c7b40 f   PartList.obj
 0002:0024df30       ?AlignByRatline@CPartList@@QAE?AVCPoint@@PAVcpart@@HH@Z 007c9f30 f   PartList.obj
 0002:0024ed50       ?RemoveAll@?$CArray@PAVdl_element@@ABQAV1@@@QAEXXZ 007cad50 f i PartList.obj
 0002:0024edb0       ??0?$CArray@Vpart_pin@@ABV1@@@QAE@XZ 007cadb0 f i PartList.obj
 0002:0024ee40       ??$strcpy@$0GE@@@YAPADAAY0GE@DPBD@Z 007cae40 f i PartList.obj
 0002:0024eeb0       ??1?$CArray@Vpart_pin@@ABV1@@@UAE@XZ 007caeb0 f i PartList.obj
 0002:0024efe0       ?Serialize@?$CArray@Vpart_pin@@ABV1@@@UAEXAAVCArchive@@@Z 007cafe0 f i PartList.obj
 0002:0024f0b0       ?Dump@?$CArray@Vpart_pin@@ABV1@@@UBEXAAVCDumpContext@@@Z 007cb0b0 f i PartList.obj
 0002:0024f190       ?AssertValid@?$CArray@Vpart_pin@@ABV1@@@UBEXXZ 007cb190 f i PartList.obj
 0002:0024f2f0       ??_E?$CArray@Vpart_pin@@ABV1@@@UAEPAXI@Z 007cb2f0 f i PartList.obj
 0002:0024f2f0       ??_G?$CArray@Vpart_pin@@ABV1@@@UAEPAXI@Z 007cb2f0 f i PartList.obj
 0002:0024f360       ??_Gpart_pin@@QAEPAXI@Z    007cb360 f i PartList.obj
 0002:0024f3d0       ?SetSize@?$CArray@Vpart_pin@@ABV1@@@QAEXHH@Z 007cb3d0 f i PartList.obj
 0002:0024fad0       ??$SerializeElements@Vpart_pin@@@@YGXAAVCArchive@@PAVpart_pin@@H@Z 007cbad0 f i PartList.obj
 0002:0024fcc0       ??$DumpElements@Vpart_pin@@@@YGXAAVCDumpContext@@PBVpart_pin@@H@Z 007cbcc0 f i PartList.obj
 0002:0024fdb0       ?GetMessageMap@CPathDialogSub@@MBEPBUAFX_MSGMAP@@XZ 007cbdb0 f   PathDialog.obj
 0002:0024fe00       ?GetThisMessageMap@CPathDialogSub@@KGPBUAFX_MSGMAP@@XZ 007cbe00 f   PathDialog.obj
 0002:0024fe40       ?OnOK@CPathDialogSub@@IAEXXZ 007cbe40 f   PathDialog.obj
 0002:0024ff60       ?OnChangeEditPath@CPathDialogSub@@IAEXXZ 007cbf60 f   PathDialog.obj
 0002:00250030       ??0CPathDialog@@QAE@PBD00PAVCWnd@@@Z 007cc030 f   PathDialog.obj
 0002:002501f0       ??0CPathDialogSub@@QAE@XZ  007cc1f0 f i PathDialog.obj
 0002:00250250       ??_ECPathDialogSub@@UAEPAXI@Z 007cc250 f i PathDialog.obj
 0002:00250250       ??_GCPathDialogSub@@UAEPAXI@Z 007cc250 f i PathDialog.obj
 0002:002502c0       ?GetPathName@CPathDialog@@QAE?AV?$CStringT@DV?$StrTraitMFC_DLL@DV?$ChTraitsCRT@D@ATL@@@@@ATL@@XZ 007cc2c0 f   PathDialog.obj
 0002:00250350       ?BrowseCallbackProc@CPathDialog@@CGHPAUHWND__@@IJJ@Z 007cc350 f   PathDialog.obj
 0002:002507c0       ?DoModal@CPathDialog@@UAEHXZ 007cc7c0 f   PathDialog.obj
 0002:002509d0       ?IsFileNameValid@CPathDialog@@SAHPBD@Z 007cc9d0 f   PathDialog.obj
 0002:00250bc0       ?MakeSurePathExists@CPathDialog@@SAHPBD@Z 007ccbc0 f   PathDialog.obj
 0002:00251000       ?Touch@CPathDialog@@SAHPBDH@Z 007cd000 f   PathDialog.obj
 0002:00251320       ?ConcatPath@CPathDialog@@SAHPADPBD@Z 007cd320 f   PathDialog.obj
 0002:002513f0       ??$strcat@PAD@@YAPADAAPADPBD@Z 007cd3f0 f i PathDialog.obj
 0002:00251450       ___insecure_strcat         007cd450 f i PathDialog.obj
 0002:002514b0       ??$strcpy@$0BAE@@@YAPADAAY0BAE@DPBD@Z 007cd4b0 f i PathDialog.obj
 0002:00251520       ??0polygon@@QAE@PAVvertex@@@Z 007cd520 f   php_polygon.obj
 0002:00251580       ??1polygon@@QAE@XZ         007cd580 f   php_polygon.obj
 0002:00251650       ??_Gvertex@@QAEPAXI@Z      007cd650 f i php_polygon.obj
 0002:002516c0       ?getFirst@polygon@@QAEPAVvertex@@XZ 007cd6c0 f   php_polygon.obj
 0002:00251700       ?NextPoly@polygon@@QAEPAV1@XZ 007cd700 f   php_polygon.obj
 0002:00251760       ?NextPoly@vertex@@QAEPAVpolygon@@XZ 007cd760 f i php_polygon.obj
 0002:002517a0       ?add@polygon@@QAEXPAVvertex@@@Z 007cd7a0 f   php_polygon.obj
 0002:002518f0       ?setNext@vertex@@QAEXPAV1@@Z 007cd8f0 f i php_polygon.obj
 0002:00251940       ?setPrev@vertex@@QAEXPAV1@@Z 007cd940 f i php_polygon.obj
 0002:00251990       ?Prev@vertex@@QAEPAV1@XZ   007cd990 f i php_polygon.obj
 0002:002519d0       ?Nseg@vertex@@QAEPAVsegment@@XZ 007cd9d0 f i php_polygon.obj
 0002:00251a10       ?setPseg@vertex@@QAEXPAVsegment@@@Z 007cda10 f i php_polygon.obj
 0002:00251a60       ?addv@polygon@@QAEXNNNNH@Z 007cda60 f   php_polygon.obj
 0002:00251bc0       ?del@polygon@@QAEPAVvertex@@PAV2@@Z 007cdbc0 f   php_polygon.obj
 0002:00251d00       ?Next@vertex@@QAEPAV1@XZ   007cdd00 f i php_polygon.obj
 0002:00251d40       ?res@polygon@@QAEXXZ       007cdd40 f   php_polygon.obj
 0002:00251df0       ?id@vertex@@QAEHXZ         007cddf0 f i php_polygon.obj
 0002:00251e30       ?isIntersect@vertex@@QAEHXZ 007cde30 f i php_polygon.obj
 0002:00251e70       ?copy_poly@polygon@@QAEPAV1@XZ 007cde70 f   php_polygon.obj
 0002:00252020       ?X@vertex@@QAENXZ          007ce020 f i php_polygon.obj
 0002:00252060       ?Y@vertex@@QAENXZ          007ce060 f i php_polygon.obj
 0002:002520a0       ?insertSort@polygon@@QAEXPAVvertex@@00@Z 007ce0a0 f   php_polygon.obj
 0002:002521e0       ?Alpha@vertex@@QAENXZ      007ce1e0 f i php_polygon.obj
 0002:00252220       ?nxt@polygon@@QAEPAVvertex@@PAV2@@Z 007ce220 f   php_polygon.obj
 0002:002522a0       ?unckd_remain@polygon@@QAEHXZ 007ce2a0 f   php_polygon.obj
 0002:00252350       ?isChecked@vertex@@QAEHXZ  007ce350 f i php_polygon.obj
 0002:00252390       ?first_unckd_intersect@polygon@@QAEPAVvertex@@XZ 007ce390 f   php_polygon.obj
 0002:00252440       ?dist@polygon@@QAENNNNN@Z  007ce440 f   php_polygon.obj
 0002:002524c0       ?angle@polygon@@QAENNNNN@Z 007ce4c0 f   php_polygon.obj
 0002:002525c0       ?aAlpha@polygon@@QAENNNNNNNNNN@Z 007ce5c0 f   php_polygon.obj
 0002:00252750       ?perturb@polygon@@QAEXPAVvertex@@000NN@Z 007ce750 f   php_polygon.obj
 0002:00252b50       ?setX@vertex@@QAEXN@Z      007ceb50 f i php_polygon.obj
 0002:00252ba0       ?setY@vertex@@QAEXN@Z      007ceba0 f i php_polygon.obj
 0002:00252bf0       ?ints@polygon@@QAEHPAVvertex@@000PAHQAN222@Z 007cebf0 f   php_polygon.obj
 0002:002547d0       ?pow@@YANNH@Z              007d07d0 f i php_polygon.obj
 0002:00254830       ?isInside@polygon@@QAEHPAVvertex@@@Z 007d0830 f   php_polygon.obj
 0002:00255070       ?boolean@polygon@@QAEPAV1@PAV1@H@Z 007d1070 f   php_polygon.obj
 0002:00255ff0       ?setNextPoly@vertex@@QAEXPAVpolygon@@@Z 007d1ff0 f i php_polygon.obj
 0002:00256040       ?setNeighbor@vertex@@QAEXPAV1@@Z 007d2040 f i php_polygon.obj
 0002:00256090       ?Neighbor@vertex@@QAEPAV1@XZ 007d2090 f i php_polygon.obj
 0002:002560d0       ?setEntry@vertex@@QAEXH@Z  007d20d0 f i php_polygon.obj
 0002:00256120       ?isEntry@vertex@@QAEHXZ    007d2120 f i php_polygon.obj
 0002:00256160       ??$_Pow_int@N@@YANNH@Z     007d2160 f i php_polygon.obj
 0002:00256210       ??0segment@@QAE@NNH@Z      007d2210 f   php_polygon_vertex.obj
 0002:00256270       ??0vertex@@QAE@NNNNNPAV0@0PAVpolygon@@H0NHH@Z 007d2270 f   php_polygon_vertex.obj
 0002:00256430       ??1vertex@@QAE@XZ          007d2430 f   php_polygon_vertex.obj
 0002:002564b0       ?Xc@vertex@@QAENH@Z        007d24b0 f   php_polygon_vertex.obj
 0002:00256570       ?Xc@segment@@QAENXZ        007d2570 f i php_polygon_vertex.obj
 0002:002565b0       ?Yc@vertex@@QAENH@Z        007d25b0 f   php_polygon_vertex.obj
 0002:00256670       ?Yc@segment@@QAENXZ        007d2670 f i php_polygon_vertex.obj
 0002:002566b0       ?d@vertex@@QAENH@Z         007d26b0 f   php_polygon_vertex.obj
 0002:002567c0       ?d@segment@@QAEHXZ         007d27c0 f i php_polygon_vertex.obj
 0002:00256800       ?setChecked@vertex@@QAEXH@Z 007d2800 f   php_polygon_vertex.obj
 0002:00256880       ??0CPolyLine@@QAE@PAVCDisplayList@@@Z 007d2880 f   PolyLine.obj
 0002:00256be0       ??0CPolyLine@@QAE@XZ       007d2be0 f   PolyLine.obj
 0002:00256f40       ??1CPolyLine@@QAE@XZ       007d2f40 f   PolyLine.obj
 0002:00257120       ??_Gpolygon@@QAEPAXI@Z     007d3120 f i PolyLine.obj
 0002:00257190       ?NormalizeWithGpc@CPolyLine@@QAEHPAV?$CArray@PAVCPolyLine@@ABQAV1@@@H@Z 007d3190 f   PolyLine.obj
 0002:00257aa0       ?MakePhpPoly@CPolyLine@@QAEHXZ 007d3aa0 f   PolyLine.obj
 0002:00257c50       ?FreePhpPoly@CPolyLine@@QAEXXZ 007d3c50 f   PolyLine.obj
 0002:00257d60       ?ClipPhpPolygon@CPolyLine@@QAEXHPAV1@@Z 007d3d60 f   PolyLine.obj
 0002:00257fc0       ?MakeGpcPoly@CPolyLine@@QAEHHPAV?$CArray@VCArc@@ABV1@@@@Z 007d3fc0 f   PolyLine.obj
 0002:00258e80       ?FreeGpcPoly@CPolyLine@@QAEHXZ 007d4e80 f   PolyLine.obj
 0002:00258f40       ?RestoreArcs@CPolyLine@@QAEHPAV?$CArray@VCArc@@ABV1@@@PAV?$CArray@PAVCPolyLine@@ABQAV1@@@@Z 007d4f40 f   PolyLine.obj
 0002:00259740       ?Start@CPolyLine@@QAEXHHHHHHPAVid@@PAXH@Z 007d5740 f   PolyLine.obj
 0002:00259a40       ?AppendCorner@CPolyLine@@QAEXHHHH@Z 007d5a40 f   PolyLine.obj
 0002:0025a020       ?Close@CPolyLine@@QAEXHHH@Z 007d6020 f   PolyLine.obj
 0002:0025a1a0       ?UnClose@CPolyLine@@QAEXXZ 007d61a0 f   PolyLine.obj
 0002:0025a250       ?UnHatch@CPolyLine@@QAEXXZ 007d6250 f   PolyLine.obj
 0002:0025a2f0       ?RecalcRectC@CPolyLine@@QAEXH@Z 007d62f0 f   PolyLine.obj
 0002:0025a6b0       ?MoveCorner@CPolyLine@@QAEXHHHH@Z 007d66b0 f   PolyLine.obj
 0002:0025a780       ?DeleteCorner@CPolyLine@@QAEXHHHH@Z 007d6780 f   PolyLine.obj
 0002:0025ab50       ?RemoveContour@CPolyLine@@QAEXHH@Z 007d6b50 f   PolyLine.obj
 0002:0025aef0       ?InsertCorner@CPolyLine@@QAEXHHHH@Z 007d6ef0 f   PolyLine.obj
 0002:0025b390       ?Undraw@CPolyLine@@QAEXXZ  007d7390 f   PolyLine.obj
 0002:0025b560       ?Draw@CPolyLine@@QAEXPAVCDisplayList@@@Z 007d7560 f   PolyLine.obj
 0002:0025bf20       ?SetSideVisible@CPolyLine@@QAEXHH@Z 007d7f20 f   PolyLine.obj
 0002:0025bfb0       ?StartDraggingToInsertCorner@CPolyLine@@QAEXPAVCDC@@HHHH@Z 007d7fb0 f   PolyLine.obj
 0002:0025c1d0       ?CancelDraggingToInsertCorner@CPolyLine@@QAEXH@Z 007d81d0 f   PolyLine.obj
 0002:0025c300       ?StartDraggingToMoveCorner@CPolyLine@@QAEXPAVCDC@@HHHH@Z 007d8300 f   PolyLine.obj
 0002:0025ca00       ?CancelDraggingToMoveCorner@CPolyLine@@QAEXH@Z 007d8a00 f   PolyLine.obj
 0002:0025cb50       ?HighlightSide@CPolyLine@@QAEXHHH@Z 007d8b50 f   PolyLine.obj
 0002:0025cd20       ?HighlightCorner@CPolyLine@@QAEPAVdl_element@@HH@Z 007d8d20 f   PolyLine.obj
 0002:0025cde0       ?GetX@CPolyLine@@QAEHH@Z   007d8de0 f   PolyLine.obj
 0002:0025ce40       ?GetY@CPolyLine@@QAEHH@Z   007d8e40 f   PolyLine.obj
 0002:0025ceb0       ?GetHatchLoc@CPolyLine@@QAEPAVdl_element@@H@Z 007d8eb0 f   PolyLine.obj
 0002:0025cf10       ?GetHatchSize@CPolyLine@@QAEHXZ 007d8f10 f   PolyLine.obj
 0002:0025cf50       ?GetMerge@CPolyLine@@QAEHH@Z 007d8f50 f   PolyLine.obj
 0002:0025cfb0       ?GetLength@CPolyLine@@QAEHXZ 007d8fb0 f   PolyLine.obj
 0002:0025d170       ?GetSel@CPolyLine@@QAEHH@Z 007d9170 f   PolyLine.obj
 0002:0025d270       ?GetSideSel@CPolyLine@@QAEHXZ 007d9270 f   PolyLine.obj
 0002:0025d310       ?GetSideSel@CPolyLine@@QAEHH@Z 007d9310 f   PolyLine.obj
 0002:0025d390       ?ContourSelected@CPolyLine@@QAEHH@Z 007d9390 f   PolyLine.obj
 0002:0025d4a0       ?SetMerge@CPolyLine@@QAEXHH@Z 007d94a0 f   PolyLine.obj
 0002:0025d500       ?SetSel@CPolyLine@@QAEXHH@Z 007d9500 f   PolyLine.obj
 0002:0025d560       ?SetSideSel@CPolyLine@@QAEXHH@Z 007d9560 f   PolyLine.obj
 0002:0025d5c0       ?GetNumContour@CPolyLine@@QAEHH@Z 007d95c0 f   PolyLine.obj
 0002:0025d630       ?GetVisible@CPolyLine@@QAEHXZ 007d9630 f   PolyLine.obj
 0002:0025d670       ?MakeVisible@CPolyLine@@QAEXH@Z 007d9670 f   PolyLine.obj
 0002:0025d7c0       ?GetBounds@CPolyLine@@QAE?AUtagRECT@@XZ 007d97c0 f   PolyLine.obj
 0002:0025d8c0       ?GetCornerBounds@CPolyLine@@QAE?AUtagRECT@@H@Z 007d98c0 f   PolyLine.obj
 0002:0025d950       ?GetNumCorners@CPolyLine@@QAEHXZ 007d9950 f   PolyLine.obj
 0002:0025d990       ?GetNumArcs@CPolyLine@@QAEHH@Z 007d9990 f   PolyLine.obj
 0002:0025da50       ?GetNumSides@CPolyLine@@QAEHXZ 007d9a50 f   PolyLine.obj
 0002:0025daf0       ?GetLayer@CPolyLine@@QAEHXZ 007d9af0 f   PolyLine.obj
 0002:0025db30       ?GetW@CPolyLine@@QAEHXZ    007d9b30 f   PolyLine.obj
 0002:0025db70       ?GetSelBoxSize@CPolyLine@@QAEHXZ 007d9b70 f   PolyLine.obj
 0002:0025dbb0       ?GetNumContours@CPolyLine@@QAEHXZ 007d9bb0 f   PolyLine.obj
 0002:0025dc30       ?GetContour@CPolyLine@@QAEHH@Z 007d9c30 f   PolyLine.obj
 0002:0025dca0       ?GetContourStart@CPolyLine@@QAEHH@Z 007d9ca0 f   PolyLine.obj
 0002:0025dd00       ?GetContourEnd@CPolyLine@@QAEHH@Z 007d9d00 f   PolyLine.obj
 0002:0025dd90       ?GetIndexCornerBack@CPolyLine@@QAEHH@Z 007d9d90 f   PolyLine.obj
 0002:0025dea0       ?GetIndexCornerNext@CPolyLine@@QAEHH@Z 007d9ea0 f   PolyLine.obj
 0002:0025df70       ?GetContourSize@CPolyLine@@QAEHH@Z 007d9f70 f   PolyLine.obj
 0002:0025dfe0       ?SetSideStyle@CPolyLine@@QAEXHHH@Z 007d9fe0 f   PolyLine.obj
 0002:0025e200       ?GetSideStyle@CPolyLine@@QAEHH@Z 007da200 f   PolyLine.obj
 0002:0025e280       ?SetId@CPolyLine@@QAEXPAVid@@@Z 007da280 f   PolyLine.obj
 0002:0025e520       ?GetId@CPolyLine@@QAE?AVid@@XZ 007da520 f   PolyLine.obj
 0002:0025e590       ?GetClosed@CPolyLine@@QAEHXZ 007da590 f   PolyLine.obj
 0002:0025e640       ?TransparentHatch@CPolyLine@@QAEXH@Z 007da640 f   PolyLine.obj
 0002:0025e720       ?Hatch@CPolyLine@@QAEXXZ   007da720 f   PolyLine.obj
 0002:00260900       ?SetHatchVisible@CPolyLine@@QAEXHH@Z 007dc900 f   PolyLine.obj
 0002:00260c10       ?TestPointInside@CPolyLine@@QAEHHHH@Z 007dcc10 f   PolyLine.obj
 0002:00261480       ?TestPointInsideContour@CPolyLine@@QAEHHH@Z 007dd480 f   PolyLine.obj
 0002:002614e0       ?TestPolygonIntersection@CPolyLine@@QAEHHH@Z 007dd4e0 f   PolyLine.obj
 0002:00261d60       ?TestPolygonIntersection@CPolyLine@@QAEHPAV1@@Z 007ddd60 f   PolyLine.obj
 0002:00262510       ?SetSelBoxSize@CPolyLine@@QAEXH@Z 007de510 f   PolyLine.obj
 0002:00262570       ?SetDisplayList@CPolyLine@@QAEXPAVCDisplayList@@@Z 007de570 f   PolyLine.obj
 0002:002625f0       ?Copy@CPolyLine@@QAEXPAV1@@Z 007de5f0 f   PolyLine.obj
 0002:002629f0       ?MoveOrigin@CPolyLine@@QAEXHH@Z 007de9f0 f   PolyLine.obj
 0002:00262b00       ?SetX@CPolyLine@@QAEXHH@Z  007deb00 f   PolyLine.obj
 0002:00262cd0       ?SetY@CPolyLine@@QAEXHH@Z  007decd0 f   PolyLine.obj
 0002:00262ea0       ?SetEndContour@CPolyLine@@QAEXHH@Z 007deea0 f   PolyLine.obj
 0002:00262f30       ?SetLayer@CPolyLine@@QAEXH@Z 007def30 f   PolyLine.obj
 0002:00262f80       ?SetW@CPolyLine@@QAEXH@Z   007def80 f   PolyLine.obj
 0002:00262ff0       ?SetVisible@CPolyLine@@QAEXH@Z 007deff0 f   PolyLine.obj
 0002:00263040       ?MakePolylineForPad@CPolyLine@@QAEPAV1@HHHHHHH@Z 007df040 f   PolyLine.obj
 0002:00263230       ?AppendArc@CPolyLine@@QAEXHHHHHHH@Z 007df230 f   PolyLine.obj
 0002:00263440       ?ClipGpcPolygon@CPolyLine@@QAEXW4gpc_op@@PAV1@@Z 007df440 f   PolyLine.obj
 0002:00263530       ?ApproximateAllArcSides@CPolyLine@@QAEXXZ 007df530 f   PolyLine.obj
 0002:00263810       ?GetOpenscadData@CPolyLine@@QAEPAV?$CStringT@DV?$StrTraitMFC_DLL@DV?$ChTraitsCRT@D@ATL@@@@@ATL@@XZ 007df810 f   PolyLine.obj
 0002:00263850       ?SetOpenscadData@CPolyLine@@QAEXPAV?$CStringT@DV?$StrTraitMFC_DLL@DV?$ChTraitsCRT@D@ATL@@@@@ATL@@@Z 007df850 f   PolyLine.obj
 0002:002638c0       ?GetOpenscadPolyPts@CPolyLine@@QAE?AV?$CStringT@DV?$StrTraitMFC_DLL@DV?$ChTraitsCRT@D@ATL@@@@@ATL@@HHHHHH@Z 007df8c0 f   PolyLine.obj
 0002:00263ee0       ?GetOpenscadCube@CPolyLine@@QAEXPAH00000HMMMHHHHHHHHHHH@Z 007dfee0 f   PolyLine.obj
 0002:00265270       ?MakeFirst@CPolyLine@@QAEXH@Z 007e1270 f   PolyLine.obj
 0002:00265420       ?InsertAt@?$CArray@HABH@@QAEXHABHH@Z 007e1420 f i PolyLine.obj
 0002:00265680       ??0?$CArray@VCPolyPt@@ABV1@@@QAE@XZ 007e1680 f i PolyLine.obj
 0002:00265710       ?GetSize@?$CArray@VCPolyPt@@ABV1@@@QBEHXZ 007e1710 f i PolyLine.obj
 0002:00265750       ?RemoveAll@?$CArray@VCPolyPt@@ABV1@@@QAEXXZ 007e1750 f i PolyLine.obj
 0002:002657b0       ?InsertAt@?$CArray@VCPolyPt@@ABV1@@@QAEXHABVCPolyPt@@H@Z 007e17b0 f i PolyLine.obj
 0002:00265ac0       ?RemoveAt@?$CArray@VCPolyPt@@ABV1@@@QAEXHH@Z 007e1ac0 f i PolyLine.obj
 0002:00265c70       ??0?$CArray@VCContourData@@ABV1@@@QAE@XZ 007e1c70 f i PolyLine.obj
 0002:00265d00       ?GetSize@?$CArray@VCContourData@@ABV1@@@QBEHXZ 007e1d00 f i PolyLine.obj
 0002:00265d40       ?RemoveAll@?$CArray@VCContourData@@ABV1@@@QAEXXZ 007e1d40 f i PolyLine.obj
 0002:00265da0       ??A?$CArray@VCContourData@@ABV1@@@QAEAAVCContourData@@H@Z 007e1da0 f i PolyLine.obj
 0002:00265e00       ?GetSize@?$CArray@VCArc@@ABV1@@@QBEHXZ 007e1e00 f i PolyLine.obj
 0002:00265e40       ??A?$CArray@VCArc@@ABV1@@@QAEAAVCArc@@H@Z 007e1e40 f i PolyLine.obj
 0002:00265ea0       ?ElementAt@?$CArray@VCContourData@@ABV1@@@QAEAAVCContourData@@H@Z 007e1ea0 f i PolyLine.obj
 0002:00265f50       ?ElementAt@?$CArray@VCArc@@ABV1@@@QAEAAVCArc@@H@Z 007e1f50 f i PolyLine.obj
 0002:00266000       ??0CPolyPt@@QAE@HHH@Z      007e2000 f i PolyLine.obj
 0002:00266070       ??1?$CArray@VCPolyPt@@ABV1@@@UAE@XZ 007e2070 f i PolyLine.obj
 0002:00266180       ?Serialize@?$CArray@VCPolyPt@@ABV1@@@UAEXAAVCArchive@@@Z 007e2180 f i PolyLine.obj
 0002:00266250       ?Dump@?$CArray@VCPolyPt@@ABV1@@@UBEXAAVCDumpContext@@@Z 007e2250 f i PolyLine.obj
 0002:00266330       ?AssertValid@?$CArray@VCPolyPt@@ABV1@@@UBEXXZ 007e2330 f i PolyLine.obj
 0002:00266490       ??1?$CArray@VCContourData@@ABV1@@@UAE@XZ 007e2490 f i PolyLine.obj
 0002:002665a0       ?Serialize@?$CArray@VCContourData@@ABV1@@@UAEXAAVCArchive@@@Z 007e25a0 f i PolyLine.obj
 0002:00266670       ?Dump@?$CArray@VCContourData@@ABV1@@@UBEXAAVCDumpContext@@@Z 007e2670 f i PolyLine.obj
 0002:00266750       ?AssertValid@?$CArray@VCContourData@@ABV1@@@UBEXXZ 007e2750 f i PolyLine.obj
 0002:002668b0       ??_E?$CArray@VCPolyPt@@ABV1@@@UAEPAXI@Z 007e28b0 f i PolyLine.obj
 0002:002668b0       ??_G?$CArray@VCPolyPt@@ABV1@@@UAEPAXI@Z 007e28b0 f i PolyLine.obj
 0002:00266920       ??_E?$CArray@VCContourData@@ABV1@@@UAEPAXI@Z 007e2920 f i PolyLine.obj
 0002:00266920       ??_G?$CArray@VCContourData@@ABV1@@@UAEPAXI@Z 007e2920 f i PolyLine.obj
 0002:00266990       ?SetSize@?$CArray@VCPolyPt@@ABV1@@@QAEXHH@Z 007e2990 f i PolyLine.obj
 0002:00267070       ??$SerializeElements@VCPolyPt@@@@YGXAAVCArchive@@PAVCPolyPt@@H@Z 007e3070 f i PolyLine.obj
 0002:00267260       ??$DumpElements@VCPolyPt@@@@YGXAAVCDumpContext@@PBVCPolyPt@@H@Z 007e3260 f i PolyLine.obj
 0002:00267350       ?SetSize@?$CArray@VCContourData@@ABV1@@@QAEXHH@Z 007e3350 f i PolyLine.obj
 0002:002678f0       ??$SerializeElements@VCContourData@@@@YGXAAVCArchive@@PAVCContourData@@H@Z 007e38f0 f i PolyLine.obj
 0002:00267ae0       ??$DumpElements@VCContourData@@@@YGXAAVCDumpContext@@PBVCContourData@@H@Z 007e3ae0 f i PolyLine.obj
 0002:00267bd0       ?DirExists0@@YA_NPBD@Z     007e3bd0 f   QAFDebug.obj
 0002:00267c50       ?CreateSubFolders0@@YA_NPBD@Z 007e3c50 f   QAFDebug.obj
 0002:00267e10       ?SHGetSpecialFolderPathCustom@@YAJPAUHWND__@@HPAXKPAD@Z 007e3e10 f   QAFDebug.obj
 0002:00267f30       ?qafGetLogFileName@CQAFDebug@@KAKPADK@Z 007e3f30 f   QAFDebug.obj
 0002:00267fc0       ?tryEnable@QAFDebug@@YA_NXZ 007e3fc0 f   QAFDebug.obj
 0002:00268010       ?tryEnable@CQAFDebug@@SA_NXZ 007e4010 f i QAFDebug.obj
 0002:00268110       ??0CSync@@QAE@PAU_RTL_CRITICAL_SECTION@@W4CSOP@0@@Z 007e4110 f i QAFDebug.obj
 0002:002681b0       ??1CSync@@QAE@XZ           007e41b0 f i QAFDebug.obj
 0002:00268240       ?SetSharedFlag@CQAFDebug@@IAE_NK@Z 007e4240 f i QAFDebug.obj
 0002:002682d0       ?tryLock@CQAFDebug@@IAE_NXZ 007e42d0 f i QAFDebug.obj
 0002:00268340       ?unLock@CQAFDebug@@IAEXXZ  007e4340 f i QAFDebug.obj
 0002:002683a0       ?instance@CQAFDebug@@KAAAV1@XZ 007e43a0 f i QAFDebug.obj
 0002:00268470       ??0CQAFDebug@@QAE@XZ       007e4470 f i QAFDebug.obj
 0002:002686b0       ?ODS@@YAXPBD@Z             007e46b0 f i QAFDebug.obj
 0002:00268710       ?tryDisable@QAFDebug@@YA_NXZ 007e4710 f   QAFDebug.obj
 0002:00268760       ?tryDisable@CQAFDebug@@SA_NXZ 007e4760 f i QAFDebug.obj
 0002:00268860       ?OutputDebugStringEx@QAFDebug@@YAXPBDH00@Z 007e4860 f   QAFDebug.obj
 0002:00268e00       ?tryOpenLogFile@CQAFDebug@@SAPAXXZ 007e4e00 f i QAFDebug.obj
 0002:00269100       ?qafReportComError@QAFDebug@@YAJJPBDH@Z 007e5100 f   QAFDebug.obj
 0002:002692b0       ?SetLogDir@QAFDebug@@YAXPAV?$CStringT@DV?$StrTraitMFC_DLL@DV?$ChTraitsCRT@D@ATL@@@@@ATL@@@Z 007e52b0 f   QAFDebug.obj
 0002:00269310       ?GetLogDir@QAFDebug@@YAKPADK@Z 007e5310 f   QAFDebug.obj
 0002:00269550       ?_tcsrchr@@YAPADPADI@Z     007e5550 f i QAFDebug.obj
 0002:002695b0       __tcsrchr                  007e55b0 f i QAFDebug.obj
 0002:00269610       ??1CQAFDebug@@QAE@XZ       007e5610 f i QAFDebug.obj
 0002:002697a0       ??0RectArray@@QAE@XZ       007e57a0 f   RectArray.obj
 0002:00269860       ??1RectArray@@QAE@XZ       007e5860 f   RectArray.obj
 0002:00269910       ?SetStep@RectArray@@QAEXH@Z 007e5910 f   RectArray.obj
 0002:00269960       ?Clear@RectArray@@QAEXXZ   007e5960 f   RectArray.obj
 0002:002699c0       ?CorrectAdd@RectArray@@QAE?AUtagPOINT@@PAUtagRECT@@@Z 007e59c0 f   RectArray.obj
 0002:00269c70       ?GetAt@?$CArray@UtagRECT@@ABU1@@@QAEAAUtagRECT@@H@Z 007e5c70 f i RectArray.obj
 0002:00269d20       ?SpawnAndRedirect@@YAPAXPBDPAPAX0@Z 007e5d20 f   RTcall.obj
 0002:0026a070       ?RunConsoleProcess@@YAHPBDPAVCDlgLog@@@Z 007e6070 f   RTcall.obj
 0002:0026a240       ??$strcpy@$0EAA@@@YAPADAAY0EAA@DPBD@Z 007e6240 f i RTcall.obj
 0002:0026a2b0       ?ws@@YA?AV?$CStringT@DV?$StrTraitMFC_DLL@DV?$ChTraitsCRT@D@ATL@@@@@ATL@@HH@Z 007e62b0 f   Shape.obj
 0002:0026a400       ??0pad@@QAE@XZ             007e6400 f   Shape.obj
 0002:0026a460       ??8pad@@QAEHV0@@Z          007e6460 f   Shape.obj
 0002:0026a510       ??0padstack@@QAE@XZ        007e6510 f   Shape.obj
 0002:0026a770       ??8padstack@@QAEHV0@@Z     007e6770 f   Shape.obj
 0002:0026aaf0       ??0CShape@@QAE@XZ          007e6af0 f   Shape.obj
 0002:0026ae80       ??1CShape@@QAE@XZ          007e6e80 f   Shape.obj
 0002:0026b180       ?Clear@CShape@@QAEXXZ      007e7180 f   Shape.obj
 0002:0026b3e0       ?MakeFromString@CShape@@QAEHV?$CStringT@DV?$StrTraitMFC_DLL@DV?$ChTraitsCRT@D@ATL@@@@@ATL@@0@Z 007e73e0 f   Shape.obj
 0002:00270510       ?MakeFromFile@CShape@@QAEHPAVCStdioFile@@V?$CStringT@DV?$StrTraitMFC_DLL@DV?$ChTraitsCRT@D@ATL@@@@@ATL@@1H@Z 007ec510 f   Shape.obj
 0002:00276640       ?Copy@CShape@@QAEHPAV1@@Z  007f2640 f   Shape.obj
 0002:00276c50       ?Import@CShape@@QAEHPAV1@@Z 007f2c50 f   Shape.obj
 0002:00277030       ?ComparePins@CShape@@QAEHPAV1@@Z 007f3030 f   Shape.obj
 0002:00277260       ?Compare@CShape@@QAEHPAV1@@Z 007f3260 f   Shape.obj
 0002:00277ab0       ??0padstack@@QAE@ABV0@@Z   007f3ab0 f i Shape.obj
 0002:00277d90       ?Move3dObject@CShape@@QAEHPAV?$CArray@V?$CStringT@DV?$StrTraitMFC_DLL@DV?$ChTraitsCRT@D@ATL@@@@@ATL@@ABV12@@@HHH@Z 007f3d90 f   Shape.obj
 0002:002787d0       ?Scale3dObject@CShape@@QAEHPAV?$CArray@V?$CStringT@DV?$StrTraitMFC_DLL@DV?$ChTraitsCRT@D@ATL@@@@@ATL@@ABV12@@@N@Z 007f47d0 f   Shape.obj
 0002:00279550       ?GetNumPins@CShape@@QAEHH@Z 007f5550 f   Shape.obj
 0002:00279800       ?GetPinIndexByName@CShape@@QAEHPBDH@Z 007f5800 f   Shape.obj
 0002:002798f0       ?GetPinNameByIndex@CShape@@QAE?AV?$CStringT@DV?$StrTraitMFC_DLL@DV?$ChTraitsCRT@D@ATL@@@@@ATL@@H@Z 007f58f0 f   Shape.obj
 0002:00279990       ?GetPinDescriptionByIndex@CShape@@QAE?AV?$CStringT@DV?$StrTraitMFC_DLL@DV?$ChTraitsCRT@D@ATL@@@@@ATL@@H@Z 007f5990 f   Shape.obj
 0002:00279a30       ?WriteFootprint@CShape@@QAEHPAVCStdioFile@@@Z 007f5a30 f   Shape.obj
 0002:0027cdf0       ?CreateMetafile@CShape@@QAEPAUHENHMETAFILE__@@PAVCMetaFileDC@@PAVCDC@@HH@Z 007f8df0 f   Shape.obj
 0002:00281090       ?CreateWarningMetafile@CShape@@QAEPAUHENHMETAFILE__@@PAVCMetaFileDC@@PAVCDC@@HH@Z 007fd090 f   Shape.obj
 0002:002812d0       ?GetDefaultCentroid@CShape@@QAE?AVCPoint@@XZ 007fd2d0 f   Shape.obj
 0002:002813c0       ?GetAllPadBounds@CShape@@QAE?AUtagRECT@@XZ 007fd3c0 f   Shape.obj
 0002:00281700       ?GetPadBounds@CShape@@QAEXHPAUtagRECT@@@Z 007fd700 f   Shape.obj
 0002:00281f30       ?GetPadRowBounds@CShape@@QAE?AUtagRECT@@HH@Z 007fdf30 f   Shape.obj
 0002:00282090       ?GetBounds@CShape@@QAE?AUtagRECT@@HH@Z 007fe090 f   Shape.obj
 0002:00282590       ?GetCornerBounds@CShape@@QAE?AUtagRECT@@XZ 007fe590 f   Shape.obj
 0002:002825f0       ?Draw@CShape@@QAEXPAVCDisplayList@@PAVSMFontUtil@@@Z 007fe5f0 f   Shape.obj
 0002:00285420       ?Undraw@CShape@@QAEXXZ     00801420 f   Shape.obj
 0002:00285ae0       ?SelectPad@CShape@@QAEXH@Z 00801ae0 f   Shape.obj
 0002:00285b90       ?StartDraggingPad@CShape@@QAEXPAVCDC@@H@Z 00801b90 f   Shape.obj
 0002:00285ec0       ?CancelDraggingPad@CShape@@QAEXH@Z 00801ec0 f   Shape.obj
 0002:00286020       ?StartDraggingPadRow@CShape@@QAEXPAVCDC@@HH@Z 00802020 f   Shape.obj
 0002:00286290       ?CancelDraggingPadRow@CShape@@QAEXHH@Z 00802290 f   Shape.obj
 0002:00286420       ?StartDraggingGroup@CShape@@QAEXPAVCDC@@PAUtagRECT@@@Z 00802420 f   Shape.obj
 0002:002864f0       ?CancelDraggingGroup@CShape@@QAEXXZ 008024f0 f   Shape.obj
 0002:00286550       ?SelectAdhesive@CShape@@QAEXH@Z 00802550 f   Shape.obj
 0002:002865e0       ?StartDraggingAdhesive@CShape@@QAEXPAVCDC@@H@Z 008025e0 f   Shape.obj
 0002:00286700       ?CancelDraggingAdhesive@CShape@@QAEXH@Z 00802700 f   Shape.obj
 0002:00286780       ?SelectCentroid@CShape@@QAEXXZ 00802780 f   Shape.obj
 0002:00286810       ?StartDraggingCentroid@CShape@@QAEXPAVCDC@@@Z 00802810 f   Shape.obj
 0002:00286b70       ?CancelDraggingCentroid@CShape@@QAEXXZ 00802b70 f   Shape.obj
 0002:00286be0       ?SelectRef@CShape@@QAEXXZ  00802be0 f   Shape.obj
 0002:00286c60       ?StartDraggingRef@CShape@@QAEXPAVCDC@@@Z 00802c60 f   Shape.obj
 0002:00286de0       ?CancelDraggingRef@CShape@@QAEXXZ 00802de0 f   Shape.obj
 0002:00286e90       ?SelectValue@CShape@@QAEXXZ 00802e90 f   Shape.obj
 0002:00286f10       ?StartDraggingValue@CShape@@QAEXPAVCDC@@@Z 00802f10 f   Shape.obj
 0002:002870c0       ?CancelDraggingValue@CShape@@QAEXXZ 008030c0 f   Shape.obj
 0002:00287170       ?ShiftToInsertPadName@CShape@@QAEXPAV?$CStringT@DV?$StrTraitMFC_DLL@DV?$ChTraitsCRT@D@ATL@@@@@ATL@@H@Z 00803170 f   Shape.obj
 0002:002874d0       ?GenerateSelectionRectangle@CShape@@QAEHPAUtagRECT@@@Z 008034d0 f   Shape.obj
 0002:00287580       ?GetHoleFlag@CShape@@QAEHXZ 00803580 f   Shape.obj
 0002:00287620       ?SyncOpenscadGlobalParameters@CShape@@QAEHPAV?$CStringT@DV?$StrTraitMFC_DLL@DV?$ChTraitsCRT@D@ATL@@@@@ATL@@0PAH@Z 00803620 f   Shape.obj
 0002:00288580       ?GenerateOpenscadFileA@CShape@@QAE?AV?$CStringT@DV?$StrTraitMFC_DLL@DV?$ChTraitsCRT@D@ATL@@@@@ATL@@PAV23@H@Z 00804580 f   Shape.obj
 0002:0028d970       ??0?$CArray@Vpadstack@@ABV1@@@QAE@XZ 00809970 f i Shape.obj
 0002:0028da00       ??0?$CArray@Uglue@@ABU1@@@QAE@XZ 00809a00 f i Shape.obj
 0002:0028da90       ??$strcpy@$0BE@@@YAPADAAY0BE@DPBD@Z 00809a90 f i Shape.obj
 0002:0028db00       ??1?$CArray@Vpadstack@@ABV1@@@UAE@XZ 00809b00 f i Shape.obj
 0002:0028dc30       ?Serialize@?$CArray@Vpadstack@@ABV1@@@UAEXAAVCArchive@@@Z 00809c30 f i Shape.obj
 0002:0028dd00       ?Dump@?$CArray@Vpadstack@@ABV1@@@UBEXAAVCDumpContext@@@Z 00809d00 f i Shape.obj
 0002:0028dde0       ?AssertValid@?$CArray@Vpadstack@@ABV1@@@UBEXXZ 00809de0 f i Shape.obj
 0002:0028df40       ??1?$CArray@Uglue@@ABU1@@@UAE@XZ 00809f40 f i Shape.obj
 0002:0028e050       ?Serialize@?$CArray@Uglue@@ABU1@@@UAEXAAVCArchive@@@Z 0080a050 f i Shape.obj
 0002:0028e120       ?Dump@?$CArray@Uglue@@ABU1@@@UBEXAAVCDumpContext@@@Z 0080a120 f i Shape.obj
 0002:0028e200       ?AssertValid@?$CArray@Uglue@@ABU1@@@UBEXXZ 0080a200 f i Shape.obj
 0002:0028e360       ??_G?$CArray@Vpadstack@@ABV1@@@UAEPAXI@Z 0080a360 f i Shape.obj
 0002:0028e360       ??_E?$CArray@Vpadstack@@ABV1@@@UAEPAXI@Z 0080a360 f i Shape.obj
 0002:0028e3d0       ??_E?$CArray@Uglue@@ABU1@@@UAEPAXI@Z 0080a3d0 f i Shape.obj
 0002:0028e3d0       ??_G?$CArray@Uglue@@ABU1@@@UAEPAXI@Z 0080a3d0 f i Shape.obj
 0002:0028e440       ??$SerializeElements@Vpadstack@@@@YGXAAVCArchive@@PAVpadstack@@H@Z 0080a440 f i Shape.obj
 0002:0028e640       ??$DumpElements@Vpadstack@@@@YGXAAVCDumpContext@@PBVpadstack@@H@Z 0080a640 f i Shape.obj
 0002:0028e730       ??$SerializeElements@Uglue@@@@YGXAAVCArchive@@PAUglue@@H@Z 0080a730 f i Shape.obj
 0002:0028e920       ??$DumpElements@Uglue@@@@YGXAAVCDumpContext@@PBUglue@@H@Z 0080a920 f i Shape.obj
 0002:0028ea10       ??0SMCharacter@@QAE@XZ     0080aa10 f   smcharacter.obj
 0002:0028ea60       ??0SMCharacter@@QAE@PAV0@@Z 0080aa60 f   smcharacter.obj
 0002:0028eb70       ??1SMCharacter@@QAE@XZ     0080ab70 f   smcharacter.obj
 0002:0028ebf0       ?Read@SMCharacter@@QAEXPAU_iobuf@@@Z 0080abf0 f   smcharacter.obj
 0002:0028ece0       ?Write@SMCharacter@@QAEXPAU_iobuf@@@Z 0080ace0 f   smcharacter.obj
 0002:0028ed80       ?ReadOldStyle@SMCharacter@@QAEHPAU_iobuf@@@Z 0080ad80 f   smcharacter.obj
 0002:0028f030       ?GetFirstVertex@SMCharacter@@QAE?AW4CHARVERTEX_TYPE@1@AAUCharVertex@@AAH@Z 0080b030 f   smcharacter.obj
 0002:0028f0c0       ?GetNextVertex@SMCharacter@@QAE?AW4CHARVERTEX_TYPE@1@AAUCharVertex@@AAH@Z 0080b0c0 f   smcharacter.obj
 0002:0028f1c0       ??0SMFontUtil@@QAE@PAV?$CStringT@DV?$StrTraitMFC_DLL@DV?$ChTraitsCRT@D@ATL@@@@@ATL@@@Z 0080b1c0 f   smfontutil.obj
 0002:0028f360       ??0?$CTypedPtrArray@VCPtrArray@@PAVSMCharacter@@@@QAE@XZ 0080b360 f i smfontutil.obj
 0002:0028f3c0       ??1?$CTypedPtrArray@VCPtrArray@@PAVSMCharacter@@@@UAE@XZ 0080b3c0 f i smfontutil.obj
 0002:0028f410       ??_E?$CTypedPtrArray@VCPtrArray@@PAVSMCharacter@@@@UAEPAXI@Z 0080b410 f i smfontutil.obj
 0002:0028f410       ??_G?$CTypedPtrArray@VCPtrArray@@PAVSMCharacter@@@@UAEPAXI@Z 0080b410 f i smfontutil.obj
 0002:0028f480       ??1SMFontUtil@@QAE@XZ      0080b480 f   smfontutil.obj
 0002:0028f5c0       ??_GSMCharacter@@QAEPAXI@Z 0080b5c0 f i smfontutil.obj
 0002:0028f630       ?LoadFontData@SMFontUtil@@IAEHXZ 0080b630 f   smfontutil.obj
 0002:0028f9a0       ?LoadXlationData@SMFontUtil@@IAEHXZ 0080b9a0 f   smfontutil.obj
 0002:0028fd60       ?SaveXlationData@SMFontUtil@@IAEXXZ 0080bd60 f   smfontutil.obj
 0002:0028ff40       ?SaveFontData@SMFontUtil@@IAEXXZ 0080bf40 f   smfontutil.obj
 0002:00290090       ?LoadOldStyleXlation@SMFontUtil@@IAEXXZ 0080c090 f   smfontutil.obj
 0002:002904a0       ?LoadOldStyleFile@SMFontUtil@@IAEXXZ 0080c4a0 f   smfontutil.obj
 0002:002907f0       ?GetCharID@SMFontUtil@@QAEHEW4FONT_TYPE@@@Z 0080c7f0 f   smfontutil.obj
 0002:00290870       ?DrawString@SMFontUtil@@QAEXPAVCDC@@VCPoint@@NNNW4FONT_TYPE@@V?$CStringT@DV?$StrTraitMFC_DLL@DV?$ChTraitsCRT@D@ATL@@@@@ATL@@@Z 0080c870 f   smfontutil.obj
 0002:00290c90       ?GetCharStrokes@SMFontUtil@@QAEHDW4FONT_TYPE@@PAN111QAY03NH@Z 0080cc90 f   smfontutil.obj
 0002:00291030       ?GetCharacter@SMFontUtil@@QAEPAVSMCharacter@@H@Z 0080d030 f i smfontutil.obj
 0002:00291090       ?Add@?$CTypedPtrArray@VCPtrArray@@PAVSMCharacter@@@@QAEHPAVSMCharacter@@@Z 0080d090 f i smfontutil.obj
 0002:002910f0       ??A?$CTypedPtrArray@VCPtrArray@@PAVSMCharacter@@@@QAEAAPAVSMCharacter@@H@Z 0080d0f0 f i smfontutil.obj
 0002:00291150       ?ClearSpeedFiles@@YAXPAVCFreePcbDoc@@@Z 0080d150 f   SpeedFiles.obj
 0002:00291320       ?LoadSpeedFiles@@YAXPAVCFreePcbDoc@@@Z 0080d320 f   SpeedFiles.obj
 0002:00292230       ?SelectFolder@@YAXPAVCFreePcbDoc@@@Z 0080e230 f   SpeedFiles.obj
 0002:00292460       ?RunSpeedFile@@YAXPAVCFreePcbDoc@@H@Z 0080e460 f   SpeedFiles.obj
 0002:00292500       ?_AfxInitManaged@@YAHXZ    0080e500 f i StdAfx.obj
 0002:00292530       ??_Estringdispid@CComTypeInfoHolder@ATL@@QAEPAXI@Z 0080e530 f i StdAfx.obj
 0002:002925f0       ??1stringdispid@CComTypeInfoHolder@ATL@@QAE@XZ 0080e5f0 f i StdAfx.obj
 0002:00292640       ??1CComBSTR@ATL@@QAE@XZ    0080e640 f i StdAfx.obj
 0002:002926a0       ??0Thank_you@Define_the_symbol__ATL_MIXED@@QAE@XZ 0080e6a0 f i StdAfx.obj
 0002:002926f0       ?one@Thank_you@Define_the_symbol__ATL_MIXED@@UAEXXZ 0080e6f0 f i StdAfx.obj
 0002:00292730       ??0CText@@QAE@PAVCDisplayList@@HHHHHHHHPAVSMFontUtil@@PAV?$CStringT@DV?$StrTraitMFC_DLL@DV?$ChTraitsCRT@D@ATL@@@@@ATL@@@Z 0080e730 f   TextList.obj
 0002:00292910       ??1CText@@QAE@XZ           0080e910 f   TextList.obj
 0002:002929c0       ?Draw@CText@@QAEXPAVCDisplayList@@PAVSMFontUtil@@PAV?$CArray@VCPoint@@ABV1@@@@Z 0080e9c0 f   TextList.obj
 0002:002935b0       ?Undraw@CText@@QAEXXZ      0080f5b0 f   TextList.obj
 0002:00293670       ??0CTextList@@QAE@XZ       0080f670 f   TextList.obj
 0002:002936e0       ??0CTextList@@QAE@PAVCDisplayList@@PAVSMFontUtil@@@Z 0080f6e0 f   TextList.obj
 0002:00293750       ??1CTextList@@QAE@XZ       0080f750 f   TextList.obj
 0002:00293880       ??_GCText@@QAEPAXI@Z       0080f880 f i TextList.obj
 0002:002938f0       ?AddText@CTextList@@QAEPAVCText@@HHHHHHHHPAV?$CStringT@DV?$StrTraitMFC_DLL@DV?$ChTraitsCRT@D@ATL@@@@@ATL@@H@Z 0080f8f0 f   TextList.obj
 0002:00293b70       ?GetSelCount@CTextList@@QAEHXZ 0080fb70 f   TextList.obj
 0002:00293c20       ?RemoveText@CTextList@@QAEHPAVCText@@@Z 0080fc20 f   TextList.obj
 0002:00293d60       ?RemoveAllTexts@CTextList@@QAEXXZ 0080fd60 f   TextList.obj
 0002:00293e00       ?HighlightText@CTextList@@QAEXPAVCText@@H@Z 0080fe00 f   TextList.obj
 0002:00293ef0       ?StartDraggingText@CTextList@@QAEXPAVCDC@@PAVCText@@@Z 0080fef0 f   TextList.obj
 0002:00294070       ?CancelDraggingText@CTextList@@QAEXPAVCText@@@Z 00810070 f   TextList.obj
 0002:002940e0       ?MoveText@CTextList@@QAEXPAVCText@@HHHHHH@Z 008100e0 f   TextList.obj
 0002:002941b0       ?WriteTexts@CTextList@@QAEHPAVCStdioFile@@@Z 008101b0 f   TextList.obj
 0002:00294820       ?ReadTexts@CTextList@@QAEXPAVCStdioFile@@N@Z 00810820 f   TextList.obj
 0002:00295570       ?CreateUndoRecord@CTextList@@QAEPAUundo_text@@PAVCText@@@Z 00811570 f   TextList.obj
 0002:00295710       ?TextUndoCallback@CTextList@@SAXHPAXH@Z 00811710 f   TextList.obj
 0002:00295a60       ??_Gundo_text@@QAEPAXI@Z   00811a60 f i TextList.obj
 0002:00295ad0       ??1undo_text@@QAE@XZ       00811ad0 f i TextList.obj
 0002:00295b30       ?MoveOrigin@CTextList@@QAEXHH@Z 00811b30 f   TextList.obj
 0002:00295c10       ?GetText@CTextList@@QAEPAVCText@@PAU_GUID@@@Z 00811c10 f   TextList.obj
 0002:00295ce0       ?GetText@CTextList@@QAEPAVCText@@HH@Z 00811ce0 f   TextList.obj
 0002:00295db0       ?GetFirstText@CTextList@@QAEPAVCText@@XZ 00811db0 f   TextList.obj
 0002:00295e30       ?GetNextText@CTextList@@QAEPAVCText@@PAH@Z 00811e30 f   TextList.obj
 0002:00295ed0       ?GetTextBoundaries@CTextList@@QAEHPAUtagRECT@@@Z 00811ed0 f   TextList.obj
 0002:00296400       ?GetTextRectOnPCB@CTextList@@QAEHPAVCText@@PAUtagRECT@@@Z 00812400 f   TextList.obj
 0002:00296570       ?ReassignCopperLayers@CTextList@@QAEXHPAH@Z 00812570 f   TextList.obj
 0002:002966c0       ?SetAt@?$CArray@VCPoint@@ABV1@@@QAEXHABVCPoint@@@Z 008126c0 f i TextList.obj
 0002:00296780       ??0?$CArray@PAVCText@@ABQAV1@@@QAE@XZ 00812780 f i TextList.obj
 0002:00296810       ?Add@?$CArray@PAVCText@@ABQAV1@@@QAEHABQAVCText@@@Z 00812810 f i TextList.obj
 0002:00296880       ?RemoveAt@?$CArray@PAVCText@@ABQAV1@@@QAEXHH@Z 00812880 f i TextList.obj
 0002:00296a30       ?SetAtGrow@?$CArray@PAVCText@@ABQAV1@@@QAEXHABQAVCText@@@Z 00812a30 f i TextList.obj
 0002:00296b00       ??1?$CArray@PAVCText@@ABQAV1@@@UAE@XZ 00812b00 f i TextList.obj
 0002:00296c10       ?Serialize@?$CArray@PAVCText@@ABQAV1@@@UAEXAAVCArchive@@@Z 00812c10 f i TextList.obj
 0002:00296ce0       ?Dump@?$CArray@PAVCText@@ABQAV1@@@UBEXAAVCDumpContext@@@Z 00812ce0 f i TextList.obj
 0002:00296dc0       ?AssertValid@?$CArray@PAVCText@@ABQAV1@@@UBEXXZ 00812dc0 f i TextList.obj
 0002:00296f20       ??_G?$CArray@PAVCText@@ABQAV1@@@UAEPAXI@Z 00812f20 f i TextList.obj
 0002:00296f20       ??_E?$CArray@PAVCText@@ABQAV1@@@UAEPAXI@Z 00812f20 f i TextList.obj
 0002:00296f90       ?SetSize@?$CArray@PAVCText@@ABQAV1@@@QAEXHH@Z 00812f90 f i TextList.obj
 0002:00297520       ??$SerializeElements@PAVCText@@@@YGXAAVCArchive@@PAPAVCText@@H@Z 00813520 f i TextList.obj
 0002:00297710       ??$DumpElements@PAVCText@@@@YGXAAVCDumpContext@@PBQAVCText@@H@Z 00813710 f i TextList.obj
 0002:00297800       ??0CUndoList@@QAE@HH@Z     00813800 f   UndoList.obj
 0002:002978b0       ??1CUndoList@@QAE@XZ       008138b0 f   UndoList.obj
 0002:00297900       ?Clear@CUndoList@@QAEXXZ   00813900 f   UndoList.obj
 0002:00297960       ?DropFirstEvent@CUndoList@@QAEXXZ 00813960 f   UndoList.obj
 0002:00297ad0       ?Push@CUndoList@@QAEXHPAXP6AXH0H@ZH@Z 00813ad0 f   UndoList.obj
 0002:00297be0       ?Pop@CUndoList@@QAEHXZ     00813be0 f   UndoList.obj
 0002:00297d90       ?NewEvent@CUndoList@@QAEXXZ 00813d90 f   UndoList.obj
 0002:00297e30       ?PCB_lay@@YAHH@Z           00813e30 f   utility.obj
 0002:00297f00       ?FP_lay@@YAHH@Z            00813f00 f   utility.obj
 0002:00297fc0       ?Get_Side@@YAHH@Z          00813fc0 f   utility.obj
 0002:00298040       ?Get_fp_Side@@YAHH@Z       00814040 f   utility.obj
 0002:002980e0       ?GetInflectionPoint@@YA?AVCPoint@@V1@0H@Z 008140e0 f   utility.obj
 0002:002983c0       ?getbit@@YAEHH@Z           008143c0 f   utility.obj
 0002:00298430       ?RotatePoint@@YAXPAVCPoint@@MV1@@Z 00814430 f   utility.obj
 0002:00298560       ?RotatePOINTS@@YAXPAVCPoint@@HMV1@@Z 00814560 f   utility.obj
 0002:002986d0       ?Angle@@YAMVCPoint@@00@Z   008146d0 f   utility.obj
 0002:002987d0       ?FindArcElements@@YAHPAVcconnect@@PAH@Z 008147d0 f   utility.obj
 0002:00298d20       ?FindArcElements@@YAHPAVCPolyLine@@PAH1@Z 00814d20 f   utility.obj
 0002:002992e0       ?Check_45@@YAHVCPoint@@0@Z 008152e0 f   utility.obj
 0002:002993e0       ?Check_90@@YAHVCPoint@@0@Z 008153e0 f   utility.obj
 0002:002994e0       ?Check_45@@YAHVCPoint@@00@Z 008154e0 f   utility.obj
 0002:00299510       ?Check_90@@YAHVCPoint@@00@Z 00815510 f   utility.obj
 0002:00299540       ?Angle@@YAMMMMMH@Z         00815540 f   utility.obj
 0002:002996d0       ?Rotate_i_Vertex@@YAXPAH0HHH@Z 008156d0 f   utility.obj
 0002:002997e0       ?Rotate_Vertex@@YAXPAM0M@Z 008157e0 f   utility.obj
 0002:00299a20       ?atan@@YAMM@Z              00815a20 f i utility.obj
 0002:00299a80       _atanf                     00815a80 f i utility.obj
 0002:00299af0       ?RemoveColinearSegments@@YAHPAV?$CArray@VCPolyLine@@ABV1@@@@Z 00815af0 f   utility.obj
 0002:00299ed0       ?Colinear@@YAHHHHHHH@Z     00815ed0 f   utility.obj
 0002:0029a1e0       ?AlignPoints@@YA?AVCPoint@@V1@00HM@Z 008161e0 f   utility.obj
 0002:0029aec0       ?sqrt@@YAMM@Z              00816ec0 f i utility.obj
 0002:0029af20       _sqrtf                     00816f20 f i utility.obj
 0002:0029af90       ?TripplePointArc@@YAHHHHHHHPAVCPoint@@H@Z 00816f90 f   utility.obj
 0002:0029b1c0       ?Gen_HollowLinePoly@@YAHHHHHHPAVCPoint@@H@Z 008171c0 f   utility.obj
 0002:0029b540       ?cos@@YAMM@Z               00817540 f i utility.obj
 0002:0029b5a0       _cosf                      008175a0 f i utility.obj
 0002:0029b610       ?sin@@YAMM@Z               00817610 f i utility.obj
 0002:0029b670       _sinf                      00817670 f i utility.obj
 0002:0029b6e0       ?Gen_RndRectPoly@@YAHHHHHMMPAVCPoint@@HM@Z 008176e0 f   utility.obj
 0002:0029c460       ?Generate_Arc@@YAHHHHHHPAVCPoint@@H@Z 00818460 f   utility.obj
 0002:0029c970       ?Rnd_Func@@YAHMMMMMMMMPAMH@Z 00818970 f   utility.obj
 0002:0029d350       ?MirrorRect@@YAXPAUtagRECT@@VCPoint@@@Z 00819350 f   utility.obj
 0002:0029d3e0       ?RotateRect@@YAXPAH000HHH@Z 008193e0 f   utility.obj
 0002:0029d500       ?RotateRect@@YAXPAUtagRECT@@HVCPoint@@@Z 00819500 f   utility.obj
 0002:0029d850       ?RectsIntersection@@YAHUtagRECT@@0@Z 00819850 f   utility.obj
 0002:0029d960       ?SwellRect@@YAXPAUtagRECT@@H@Z 00819960 f   utility.obj
 0002:0029d9e0       ?SwellRect@@YAXPAUtagRECT@@U1@@Z 008199e0 f   utility.obj
 0002:0029db30       ?SwellRect@@YAXPAUtagRECT@@VCPoint@@@Z 00819b30 f   utility.obj
 0002:0029dc40       ?SwellRect@@YAXPAUtagRECT@@HH@Z 00819c40 f   utility.obj
 0002:0029dd50       ?MoveRect@@YAXPAUtagRECT@@HH@Z 00819d50 f   utility.obj
 0002:0029ddd0       ?rect@@YA?AUtagRECT@@HHHH@Z 00819dd0 f   utility.obj
 0002:0029df30       ?rect@@YA?AUtagRECT@@VCPoint@@0@Z 00819f30 f   utility.obj
 0002:0029dff0       ?SwellPolygon@@YAHPAVCPoint@@H0H@Z 00819ff0 f   utility.obj
 0002:0029eb30       ?TestPolygon@@YAHHHPAVCPoint@@H@Z 0081ab30 f   utility.obj
 0002:0029ed80       ?TestLineHit@@YAHHHHHHHN@Z 0081ad80 f   utility.obj
 0002:0029f0c0       ?ReadFontFile@@YAHPAD@Z    0081b0c0 f   utility.obj
 0002:0029f0f0       ?mystrtok@@YAPADPBD0@Z     0081b0f0 f   utility.obj
 0002:0029f280       ?GetDimensionFromString@@YANPAV?$CStringT@DV?$StrTraitMFC_DLL@DV?$ChTraitsCRT@D@ATL@@@@@ATL@@HH@Z 0081b280 f   utility.obj
 0002:0029f5a0       ?MakeCStringFromDimension@@YAXPAV?$CStringT@DV?$StrTraitMFC_DLL@DV?$ChTraitsCRT@D@ATL@@@@@ATL@@HHHHHHH@Z 0081b5a0 f   utility.obj
 0002:0029fe40       ?MakeCStringFromDouble@@YAXPAV?$CStringT@DV?$StrTraitMFC_DLL@DV?$ChTraitsCRT@D@ATL@@@@@ATL@@N@Z 0081be40 f   utility.obj
 0002:002a0140       ?ParseRef@@YAHPAV?$CStringT@DV?$StrTraitMFC_DLL@DV?$ChTraitsCRT@D@ATL@@@@@ATL@@0@Z 0081c140 f   utility.obj
 0002:002a03a0       ?ParseRef@@YAHPAV?$CStringT@DV?$StrTraitMFC_DLL@DV?$ChTraitsCRT@D@ATL@@@@@ATL@@00@Z 0081c3a0 f   utility.obj
 0002:002a0870       ?CheckLegalPinName@@YAHPAV?$CStringT@DV?$StrTraitMFC_DLL@DV?$ChTraitsCRT@D@ATL@@@@@ATL@@00PAH@Z 0081c870 f   utility.obj
 0002:002a0f30       ?FindLineIntersection@@YAHNNNNPAN0@Z 0081cf30 f   utility.obj
 0002:002a0f90       ?FindLineIntersection@@YAHNNNNNNNNPAN0@Z 0081cf90 f   utility.obj
 0002:002a1100       ?MakeEllipseFromArc@@YAHHHHHHPAUEllipseTag@@@Z 0081d100 f   utility.obj
 0002:002a1310       ?FindSegmentIntersections@@YAHHHHHHHHHHHQAN0@Z 0081d310 f   utility.obj
 0002:002a1ee0       ?FindLineSegmentIntersection@@YAHNNHHHHHPAN0000@Z 0081dee0 f   utility.obj
 0002:002a2cf0       ?TestForIntersectionOfStraightLineSegments@@YAHHHHHHHHHPAH0PAN@Z 0081ecf0 f   utility.obj
 0002:002a3aa0       ?DunselFunction@@YAXXZ     0081faa0 f   utility.obj
 0002:002a3ad0       ?CalibrateTimer@@YAXXZ     0081fad0 f   utility.obj
 0002:002a3bc0       ?StartTimer@@YAXXZ         0081fbc0 f   utility.obj
 0002:002a3c40       ?GetElapsedTime@@YANXZ     0081fc40 f   utility.obj
 0002:002a3e50       _Int64ShrlMod32@12         0081fe50 f i utility.obj
 0002:002a3eb0       ?quickSort@@YAXQAH0H@Z     0081feb0 f   utility.obj
 0002:002a3f10       ?q_sort@@YAXQAH0HH@Z       0081ff10 f   utility.obj
 0002:002a4100       ?q_sort_3way@@YAXQAH0HH@Z  00820100 f   utility.obj
 0002:002a4580       ?ccw@@YAHH@Z               00820580 f   utility.obj
 0002:002a45d0       ?t_octant@@YA?AVCPoint@@HAAV1@@Z 008205d0 f   utility.obj
 0002:002a48a0       ?Quadratic@@YAHNNNPAN0@Z   008208a0 f   utility.obj
 0002:002a4970       ?FindVerticalLineEllipseIntersections@@YAHNNNPAN0@Z 00820970 f   utility.obj
 0002:002a4a20       ?FindLineEllipseIntersections@@YAHNNNNPAN0@Z 00820a20 f   utility.obj
 0002:002a4ae0       ?DrawArc@@YAXPAVCDC@@HHHHHH@Z 00820ae0 f   utility.obj
 0002:002a4f40       ?DrawCurve@@YAXPAVCDC@@HHHHHH@Z 00820f40 f   utility.obj
 0002:002a5c40       ?GetPadElements@@YAXHHHHHHHPAHQAVmy_rect@@0QAVmy_circle@@0QAVmy_seg@@@Z 00821c40 f   utility.obj
 0002:002a71d0       ?GetClearanceBetweenSegmentAndPad@@YAHHHHHHHHHHHHH@Z 008231d0 f   utility.obj
 0002:002a76f0       ?GetClearanceBetweenSegments@@YAHHHHHHHHHHHHHHPAH0@Z 008236f0 f   utility.obj
 0002:002a8680       ?GetClearanceBetweenPads@@YAHHHHHHHHHHHHHHH@Z 00824680 f   utility.obj
 0002:002a9440       ?GetPointToLineDistance@@YANNNHHPAN0@Z 00825440 f   utility.obj
 0002:002a9570       ?GetPointToLineSegmentDistance@@YANHHHHHH@Z 00825570 f   utility.obj
 0002:002a99e0       ?InRange@@YAHNNN@Z         008259e0 f   utility.obj
 0002:002a9a80       ?Distance@@YANHHHHH@Z      00825a80 f   utility.obj
 0002:002a9d50       ?GetArcIntersections@@YAHPAUEllipseTag@@0PAN111@Z 00825d50 f   utility.obj
 0002:002aa3c0       ?GetArcClearance@@YANPAUEllipseTag@@0PAN1@Z 008263c0 f   utility.obj
 0002:002aac00       ?SetGuidFromString@@YAXPAV?$CStringT@DV?$StrTraitMFC_DLL@DV?$ChTraitsCRT@D@ATL@@@@@ATL@@PAU_GUID@@@Z 00826c00 f   utility.obj
 0002:002aace0       ?GetStringFromGuid@@YAXPAU_GUID@@PAV?$CStringT@DV?$StrTraitMFC_DLL@DV?$ChTraitsCRT@D@ATL@@@@@ATL@@@Z 00826ce0 f   utility.obj
 0002:002aadc0       ?SplitString@@YAHPAV?$CStringT@DV?$StrTraitMFC_DLL@DV?$ChTraitsCRT@D@ATL@@@@@ATL@@00DH@Z 00826dc0 f   utility.obj
 0002:002ab0f0       ?GetReportedAngleForPart@@YAHHHH@Z 008270f0 f   utility.obj
 0002:002ab180       ?GetPartAngleForReportedAngle@@YAHHHH@Z 00827180 f   utility.obj
 0002:002ab210       ?sign@@YAHH@Z              00827210 f   utility.obj
 0002:002ab260       ?ExtractComponentName@@YAXPAV?$CStringT@DV?$StrTraitMFC_DLL@DV?$ChTraitsCRT@D@ATL@@@@@ATL@@0@Z 00827260 f   utility.obj
 0002:002ab3f0       ?GetTextHeight@@YA?AVCSize@@PAVSMFontUtil@@@Z 008273f0 f   utility.obj
 0002:002ab5b0       ??$strcpy@$0BAA@@@YAPADAAY0BAA@DPBD@Z 008275b0 f i utility.obj
 0002:002ab620       ??$strcpy@PAD@@YAPADABQADPBD@Z 00827620 f i utility.obj
 0002:002ab680       ??0my_circle@@QAE@XZ       00827680 f i utility.obj
 0002:002ab6c0       ??0my_circle@@QAE@HHH@Z    008276c0 f i utility.obj
 0002:002ab720       ??0my_rect@@QAE@XZ         00827720 f i utility.obj
 0002:002ab760       ??0my_rect@@QAE@HHHH@Z     00827760 f i utility.obj
 0002:002ab870       ??0my_seg@@QAE@XZ          00827870 f i utility.obj
 0002:002ab8b0       ??0my_seg@@QAE@HHHH@Z      008278b0 f i utility.obj
 0002:002ab916       _UuidCreate@4              00827916 f   rpcrt4:RPCRT4.dll
 0002:002ab91c       _UuidFromStringA@8         0082791c f   rpcrt4:RPCRT4.dll
 0002:002ab922       _UuidToStringA@8           00827922 f   rpcrt4:RPCRT4.dll
 0002:002ab930       _my_init_debug             00827930 f   clibpdf:cpdfInit.obj
 0002:002ab980       _cpdf_setGlobalDocumentLimits 00827980 f   clibpdf:cpdfInit.obj
 0002:002aba10       _cpdf_open                 00827a10 f   clibpdf:cpdfInit.obj
 0002:002abfc0       _cpdf_enableCompression    00827fc0 f   clibpdf:cpdfInit.obj
 0002:002ac0a0       _cpdf_setCompressionFilter 008280a0 f   clibpdf:cpdfInit.obj
 0002:002ac220       _cpdf_init                 00828220 f   clibpdf:cpdfInit.obj
 0002:002ac420       _cpdf_pageInit             00828420 f   clibpdf:cpdfInit.obj
 0002:002aca90       _cpdf_setPageDuration      00828a90 f   clibpdf:cpdfInit.obj
 0002:002acaf0       _cpdf_setPageTransition    00828af0 f   clibpdf:cpdfInit.obj
 0002:002aceb0       _cpdf_setCurrentPage       00828eb0 f   clibpdf:cpdfInit.obj
 0002:002ad090       _cpdf_finalizePage         00829090 f   clibpdf:cpdfInit.obj
 0002:002ad1a0       _cpdf_savePDFmemoryStreamToFile 008291a0 f   clibpdf:cpdfInit.obj
 0002:002ad270       _cpdf_getBufferForPDF      00829270 f   clibpdf:cpdfInit.obj
 0002:002ad360       __cpdf_pdfWrite            00829360 f   clibpdf:cpdfInit.obj
 0002:002ad430       __cpdf_pdfBinaryWrite      00829430 f   clibpdf:cpdfInit.obj
 0002:002ad4f0       _cpdf_close                008294f0 f   clibpdf:cpdfInit.obj
 0002:002ad830       _cpdf_finalizeAll          00829830 f   clibpdf:cpdfInit.obj
 0002:002ae280       _cpdf_setPageSize          0082a280 f   clibpdf:cpdfInit.obj
 0002:002ae460       _cpdf_setBoundingBox       0082a460 f   clibpdf:cpdfInit.obj
 0002:002ae4f0       _cpdf_setMediaBox          0082a4f0 f   clibpdf:cpdfInit.obj
 0002:002ae5d0       _cpdf_setCropBox           0082a5d0 f   clibpdf:cpdfInit.obj
 0002:002ae6b0       _cpdf_setCurrentMemoryStream 0082a6b0 f   clibpdf:cpdfInit.obj
 0002:002ae700       _getFileSize               0082a700 f   clibpdf:cpdfInit.obj
 0002:002ae7e0       _cpdf_setViewerPreferences 0082a7e0 f   clibpdf:cpdfInit.obj
 0002:002ae8b0       __cpdf_closeContentMemStreamForPage 0082a8b0 f   clibpdf:cpdfInit.obj
 0002:002aeb40       __cpdf_freeAllPageInfos    0082ab40 f   clibpdf:cpdfInit.obj
 0002:002aee10       __cpdf_file_open           0082ae10 f   clibpdf:cpdfInit.obj
 0002:002af070       __cpdf_file_close          0082b070 f   clibpdf:cpdfInit.obj
 0002:002af0f0       __cpdf_WriteCatalogObject  0082b0f0 f   clibpdf:cpdfInit.obj
 0002:002af740       __cpdf_WriteOutlinesObject 0082b740 f   clibpdf:cpdfInit.obj
 0002:002afa10       __cpdf_WritePagesObject    0082ba10 f   clibpdf:cpdfInit.obj
 0002:002afce0       __cpdf_WritePageObject     0082bce0 f   clibpdf:cpdfInit.obj
 0002:002b0500       __cpdf_WriteContentsFromFile 0082c500 f   clibpdf:cpdfInit.obj
 0002:002b0a10       __cpdf_WriteContentsFromMemory 0082ca10 f   clibpdf:cpdfInit.obj
 0002:002b0df0       __cpdf_WriteProcSetArray   0082cdf0 f   clibpdf:cpdfInit.obj
 0002:002b10d0       __cpdf_WriteFont           0082d0d0 f   clibpdf:cpdfInit.obj
 0002:002b1740       __cpdf_WriteFontDescriptor 0082d740 f   clibpdf:cpdfInit.obj
 0002:002b1e10       __cpdf_WriteDescendantFont 0082de10 f   clibpdf:cpdfInit.obj
 0002:002b21a0       __cpdf_WriteFontData       0082e1a0 f   clibpdf:cpdfInit.obj
 0002:002b2570       __cpdf_WriteImage          0082e570 f   clibpdf:cpdfInit.obj
 0002:002b2ce0       __cpdf_WriteAnnotation     0082ece0 f   clibpdf:cpdfInit.obj
 0002:002b33e0       __cpdf_WriteProducerDate   0082f3e0 f   clibpdf:cpdfInit.obj
 0002:002b37d0       __cpdf_WriteXrefTrailer    0082f7d0 f   clibpdf:cpdfInit.obj
 0002:002b3c00       __cpdf_initDocumentStruct  0082fc00 f   clibpdf:cpdfInit.obj
 0002:002b4070       _cpdf_moveto               00830070 f   clibpdf:cpdfDomPlot.obj
 0002:002b40f0       _cpdf_lineto               008300f0 f   clibpdf:cpdfDomPlot.obj
 0002:002b4170       _cpdf_rmoveto              00830170 f   clibpdf:cpdfDomPlot.obj
 0002:002b41f0       _cpdf_rlineto              008301f0 f   clibpdf:cpdfDomPlot.obj
 0002:002b4270       _cpdf_curveto              00830270 f   clibpdf:cpdfDomPlot.obj
 0002:002b4350       _cpdf_quickCircle          00830350 f   clibpdf:cpdfDomPlot.obj
 0002:002b4420       _cpdf_rect                 00830420 f   clibpdf:cpdfDomPlot.obj
 0002:002b4530       _cpdf_rectRotated          00830530 f   clibpdf:cpdfDomPlot.obj
 0002:002b4640       _cpdf_circle               00830640 f   clibpdf:cpdfArc.obj
 0002:002b4710       _cpdf_arc                  00830710 f   clibpdf:cpdfArc.obj
 0002:002b47f0       _cpdf_rawCircle            008307f0 f   clibpdf:cpdfArc.obj
 0002:002b49d0       _cpdf_rawArc               008309d0 f   clibpdf:cpdfArc.obj
 0002:002b4ba0       __cpdf_arc_small           00830ba0 f   clibpdf:cpdfArc.obj
 0002:002b4f10       _rotate_xyCoordinate       00830f10 f   clibpdf:cpdfArc.obj
 0002:002b4fd0       _cpdf_rawMoveto            00830fd0 f   clibpdf:cpdfRawPlot.obj
 0002:002b5100       _cpdf_rawRmoveto           00831100 f   clibpdf:cpdfRawPlot.obj
 0002:002b5260       _cpdf_rawLineto            00831260 f   clibpdf:cpdfRawPlot.obj
 0002:002b5390       _cpdf_rawRlineto           00831390 f   clibpdf:cpdfRawPlot.obj
 0002:002b54f0       _cpdf_rawCurveto           008314f0 f   clibpdf:cpdfRawPlot.obj
 0002:002b5680       _cpdf_rawQuickCircle       00831680 f   clibpdf:cpdfRawPlot.obj
 0002:002b57d0       _cpdf_rawRect              008317d0 f   clibpdf:cpdfRawPlot.obj
 0002:002b5930       _cpdf_rawRectRotated       00831930 f   clibpdf:cpdfRawPlot.obj
 0002:002b5ac0       _cpdf_closepath            00831ac0 f   clibpdf:cpdfRawPlot.obj
 0002:002b5b60       _cpdf_stroke               00831b60 f   clibpdf:cpdfRawPlot.obj
 0002:002b5c00       _cpdf_fill                 00831c00 f   clibpdf:cpdfRawPlot.obj
 0002:002b5ca0       _cpdf_eofill               00831ca0 f   clibpdf:cpdfRawPlot.obj
 0002:002b5d40       _cpdf_fillAndStroke        00831d40 f   clibpdf:cpdfRawPlot.obj
 0002:002b5de0       _cpdf_eofillAndStroke      00831de0 f   clibpdf:cpdfRawPlot.obj
 0002:002b5e80       _cpdf_clip                 00831e80 f   clibpdf:cpdfRawPlot.obj
 0002:002b5f20       _cpdf_eoclip               00831f20 f   clibpdf:cpdfRawPlot.obj
 0002:002b5fc0       _cpdf_newpath              00831fc0 f   clibpdf:cpdfRawPlot.obj
 0002:002b6060       _cpdf_setgray              00832060 f   clibpdf:cpdfColor.obj
 0002:002b60d0       _cpdf_setrgbcolor          008320d0 f   clibpdf:cpdfColor.obj
 0002:002b6150       _cpdf_setcmykcolor         00832150 f   clibpdf:cpdfColor.obj
 0002:002b61e0       _cpdf_setgrayFill          008321e0 f   clibpdf:cpdfColor.obj
 0002:002b62e0       _cpdf_setgrayStroke        008322e0 f   clibpdf:cpdfColor.obj
 0002:002b63e0       _cpdf_setrgbcolorFill      008323e0 f   clibpdf:cpdfColor.obj
 0002:002b6500       _cpdf_setrgbcolorStroke    00832500 f   clibpdf:cpdfColor.obj
 0002:002b6620       _cpdf_setcmykcolorFill     00832620 f   clibpdf:cpdfColor.obj
 0002:002b6760       _cpdf_setcmykcolorStroke   00832760 f   clibpdf:cpdfColor.obj
 0002:002b68a0       _cpdf_gsave                008328a0 f   clibpdf:cpdfGstate.obj
 0002:002b6940       _cpdf_grestore             00832940 f   clibpdf:cpdfGstate.obj
 0002:002b69e0       _cpdf_setdash              008329e0 f   clibpdf:cpdfGstate.obj
 0002:002b6ad0       _cpdf_nodash               00832ad0 f   clibpdf:cpdfGstate.obj
 0002:002b6b30       _cpdf_setstrokeadjust      00832b30 f   clibpdf:cpdfGstate.obj
 0002:002b6b60       _cpdf_concat               00832b60 f   clibpdf:cpdfGstate.obj
 0002:002b6c00       _cpdf_rawConcat            00832c00 f   clibpdf:cpdfGstate.obj
 0002:002b6d70       _cpdf_rotate               00832d70 f   clibpdf:cpdfGstate.obj
 0002:002b6e20       _cpdf_translate            00832e20 f   clibpdf:cpdfGstate.obj
 0002:002b6ea0       _cpdf_rawTranslate         00832ea0 f   clibpdf:cpdfGstate.obj
 0002:002b6f10       _cpdf_scale                00832f10 f   clibpdf:cpdfGstate.obj
 0002:002b6f80       _cpdf_setflat              00832f80 f   clibpdf:cpdfGstate.obj
 0002:002b7070       _cpdf_setlinejoin          00833070 f   clibpdf:cpdfGstate.obj
 0002:002b7160       _cpdf_setlinecap           00833160 f   clibpdf:cpdfGstate.obj
 0002:002b7250       _cpdf_setmiterlimit        00833250 f   clibpdf:cpdfGstate.obj
 0002:002b7350       _cpdf_setlinewidth         00833350 f   clibpdf:cpdfGstate.obj
 0002:002b7450       __cpdf_resetTextCTM        00833450 f   clibpdf:cpdfText.obj
 0002:002b74e0       _cpdf_beginText            008334e0 f   clibpdf:cpdfText.obj
 0002:002b76a0       _cpdf_endText              008336a0 f   clibpdf:cpdfText.obj
 0002:002b7850       _cpdf_text                 00833850 f   clibpdf:cpdfText.obj
 0002:002b78f0       _cpdf_rawText              008338f0 f   clibpdf:cpdfText.obj
 0002:002b79e0       _cpdf_textAligned          008339e0 f   clibpdf:cpdfText.obj
 0002:002b7a70       _cpdf_rawTextAligned       00833a70 f   clibpdf:cpdfText.obj
 0002:002b7c80       _cpdf_setWordSpacing       00833c80 f   clibpdf:cpdfText.obj
 0002:002b7d80       _cpdf_setCharacterSpacing  00833d80 f   clibpdf:cpdfText.obj
 0002:002b7e80       _cpdf_setHorizontalScaling 00833e80 f   clibpdf:cpdfText.obj
 0002:002b7f80       _cpdf_setTextLeading       00833f80 f   clibpdf:cpdfText.obj
 0002:002b8080       _cpdf_setTextMatrix        00834080 f   clibpdf:cpdfText.obj
 0002:002b8240       _cpdf_concatTextMatrix     00834240 f   clibpdf:cpdfText.obj
 0002:002b8360       _cpdf_rotateText           00834360 f   clibpdf:cpdfText.obj
 0002:002b8450       _cpdf_skewText             00834450 f   clibpdf:cpdfText.obj
 0002:002b8530       _cpdf_setTextPosition      00834530 f   clibpdf:cpdfText.obj
 0002:002b85b0       _cpdf_rawSetTextPosition   008345b0 f   clibpdf:cpdfText.obj
 0002:002b8780       _cpdf_setTextRenderingMode 00834780 f   clibpdf:cpdfText.obj
 0002:002b8870       _cpdf_setTextRise          00834870 f   clibpdf:cpdfText.obj
 0002:002b8970       _cpdf_rawSetNextTextLineOffset 00834970 f   clibpdf:cpdfText.obj
 0002:002b8a80       _cpdf_setNextTextLineOffset 00834a80 f   clibpdf:cpdfText.obj
 0002:002b8b00       _cpdf_textCRLF             00834b00 f   clibpdf:cpdfText.obj
 0002:002b8ba0       _cpdf_textShow             00834ba0 f   clibpdf:cpdfText.obj
 0002:002b8ec0       _cpdf_textCRLFshow         00834ec0 f   clibpdf:cpdfText.obj
 0002:002b91d0       _cpdf_escapeSpecialChars   008351d0 f   clibpdf:cpdfText.obj
 0002:002b93e0       _cpdf_escapeSpecialCharsBinary 008353e0 f   clibpdf:cpdfText.obj
 0002:002b95e0       _cpdf_capHeight            008355e0 f   clibpdf:cpdfFont.obj
 0002:002b96a0       _cpdf_ascent               008356a0 f   clibpdf:cpdfFont.obj
 0002:002b9760       _cpdf_descent              00835760 f   clibpdf:cpdfFont.obj
 0002:002b9820       _cpdf_stringWidth          00835820 f   clibpdf:cpdfFont.obj
 0002:002b9b40       _cpdf_setFont              00835b40 f   clibpdf:cpdfFont.obj
 0002:002ba970       __cpdf_loadExternalFont    00836970 f   clibpdf:cpdfFont.obj
 0002:002bad40       __isNewFont                00836d40 f   clibpdf:cpdfFont.obj
 0002:002baf10       __cpdf_readFontPathFromMapFile 00836f10 f   clibpdf:cpdfFont.obj
 0002:002bb850       _cpdf_setFontMapFile       00837850 f   clibpdf:cpdfFont.obj
 0002:002bb8c0       _cpdf_setFontDirectories   008378c0 f   clibpdf:cpdfFont.obj
 0002:002bb960       __cpdf_freeAllFontInfos    00837960 f   clibpdf:cpdfFont.obj
 0002:002bbc60       __cpdf_inc_docID           00837c60 f   clibpdf:cpdfUtil.obj
 0002:002bbd00       _cpdf_localtime            00837d00 f   clibpdf:cpdfUtil.obj
 0002:002bbd70       _cpdf_mktime               00837d70 f   clibpdf:cpdfUtil.obj
 0002:002bbde0       _cpdf_setDocumentID        00837de0 f   clibpdf:cpdfUtil.obj
 0002:002bbe30       _multiplyCTM               00837e30 f   clibpdf:cpdfUtil.obj
 0002:002bbfc0       _getMantissaExp            00837fc0 f   clibpdf:cpdfUtil.obj
 0002:002bc0e0       __cpdf_nibbleValue         008380e0 f   clibpdf:cpdfUtil.obj
 0002:002bc190       _cpdf_convertBinaryToHex   00838190 f   clibpdf:cpdfUtil.obj
 0002:002bc2f0       _cpdf_convertHexToBinary   008382f0 f   clibpdf:cpdfUtil.obj
 0002:002bc420       _cpdf_hexStringMode        00838420 f   clibpdf:cpdfUtil.obj
 0002:002bc460       _cpdf_useContentMemStream  00838460 f   clibpdf:cpdfUtil.obj
 0002:002bc4a0       _cpdf_useStdout            008384a0 f   clibpdf:cpdfUtil.obj
 0002:002bc4e0       _cpdf_setCreator           008384e0 f   clibpdf:cpdfUtil.obj
 0002:002bc550       _cpdf_setTitle             00838550 f   clibpdf:cpdfUtil.obj
 0002:002bc5c0       _cpdf_setSubject           008385c0 f   clibpdf:cpdfUtil.obj
 0002:002bc630       _cpdf_setKeywords          00838630 f   clibpdf:cpdfUtil.obj
 0002:002bc6a0       _cpdf_setPDFLevel          008386a0 f   clibpdf:cpdfUtil.obj
 0002:002bc710       _cpdf_comments             00838710 f   clibpdf:cpdfUtil.obj
 0002:002bc7d0       _cpdf_getOutputFilename    008387d0 f   clibpdf:cpdfUtil.obj
 0002:002bc810       _cpdf_setOutputFilename    00838810 f   clibpdf:cpdfUtil.obj
 0002:002bc8a0       _cpdf_setDefaultDomainUnit 008388a0 f   clibpdf:cpdfUtil.obj
 0002:002bc8e0       _cpdf_version              008388e0 f   clibpdf:cpdfUtil.obj
 0002:002bc920       _cpdf_platform             00838920 f   clibpdf:cpdfUtil.obj
 0002:002bc960       _cpdf_convertUpathToOS     00838960 f   clibpdf:cpdfUtil.obj
 0002:002bca00       _cpdf_setErrorHandler      00838a00 f   clibpdf:cpdfUtil.obj
 0002:002bca50       _cpdf_Error                00838a50 f   clibpdf:cpdfUtil.obj
 0002:002bcaf0       __cpdf_defaultErrorHandler 00838af0 f   clibpdf:cpdfUtil.obj
 0002:002bcbe0       _cpdf_setGlobalErrorHandler 00838be0 f   clibpdf:cpdfUtil.obj
 0002:002bcc30       _cpdf_GlobalError          00838c30 f   clibpdf:cpdfUtil.obj
 0002:002bccc0       __cpdf_defaultGlobalErrorHandler 00838cc0 f   clibpdf:cpdfUtil.obj
 0002:002bcdb0       __Big_Endian               00838db0 f   clibpdf:cpdfUtil.obj
 0002:002bce30       _str_append_int            00838e30 f   clibpdf:cpdfUtil.obj
 0002:002bcf00       __cpdf_malloc_check        00838f00 f   clibpdf:cpdfUtil.obj
 0002:002bcf60       _cpdf_openMemoryStream     00838f60 f   clibpdf:cpdfMemBuf.obj
 0002:002bd030       _cpdf_clearMemoryStream    00839030 f   clibpdf:cpdfMemBuf.obj
 0002:002bd0d0       _cpdf_closeMemoryStream    008390d0 f   clibpdf:cpdfMemBuf.obj
 0002:002bd1a0       _cpdf_writeMemoryStream    008391a0 f   clibpdf:cpdfMemBuf.obj
 0002:002bd380       _cpdf_memPutc              00839380 f   clibpdf:cpdfMemBuf.obj
 0002:002bd420       _cpdf_memPuts              00839420 f   clibpdf:cpdfMemBuf.obj
 0002:002bd490       _cpdf_getMemoryBuffer      00839490 f   clibpdf:cpdfMemBuf.obj
 0002:002bd530       _cpdf_saveMemoryStreamToFile 00839530 f   clibpdf:cpdfMemBuf.obj
 0002:002bd6f0       __checkMemMagic            008396f0 f   clibpdf:cpdfMemBuf.obj
 0002:002bd780       _cpdf_createAxis           00839780 f   clibpdf:cpdfAxis.obj
 0002:002bdaf0       _cpdf_createTimeAxis       00839af0 f   clibpdf:cpdfAxis.obj
 0002:002bde90       _cpdf_freeAxis             00839e90 f   clibpdf:cpdfAxis.obj
 0002:002be020       _cpdf_drawAxis             0083a020 f   clibpdf:cpdfAxis.obj
 0002:002be360       _cpdf_attachAxisToDomain   0083a360 f   clibpdf:cpdfAxis.obj
 0002:002be3b0       _cpdf_setTicNumEnable      0083a3b0 f   clibpdf:cpdfAxis.obj
 0002:002be410       _cpdf_setAxisTicNumLabelPosition 0083a410 f   clibpdf:cpdfAxis.obj
 0002:002be480       _fix_trailingZeros         0083a480 f   clibpdf:cpdfAxis.obj
 0002:002be550       __do_oneNumber             0083a550 f   clibpdf:cpdfAxis.obj
 0002:002be8d0       __yearFormat               0083a8d0 f   clibpdf:cpdfAxis.obj
 0002:002be980       _cpdf_setMonthNames        0083a980 f   clibpdf:cpdfAxis.obj
 0002:002bea80       __cpdf_freeMonthNames      0083aa80 f   clibpdf:cpdfAxis.obj
 0002:002beb20       __do_oneTimeNumber         0083ab20 f   clibpdf:cpdfAxis.obj
 0002:002bf340       __do_linearNumbers         0083b340 f   clibpdf:cpdfAxis.obj
 0002:002bf450       __do_logNumbers            0083b450 f   clibpdf:cpdfAxis.obj
 0002:002bf680       __do_timeNumbers           0083b680 f   clibpdf:cpdfAxis.obj
 0002:002bf920       __bump_tm_Time             0083b920 f   clibpdf:cpdfAxis.obj
 0002:002bfb20       __setDefaultTimeBumpVar    0083bb20 f   clibpdf:cpdfAxis.obj
 0002:002bfc60       _cpdf_suggestTimeDomainParams 0083bc60 f   clibpdf:cpdfAxis.obj
 0002:002c02b0       __bittest                  0083c2b0 f   clibpdf:cpdfAxis.obj
 0002:002c0310       _cpdf_setAxisNumberFormat  0083c310 f   clibpdf:cpdfAxis.obj
 0002:002c0370       _cpdf_setAxisNumberFormat2 0083c370 f   clibpdf:cpdfAxis.obj
 0002:002c05b0       _cpdf_setTimeAxisNumberFormat 0083c5b0 f   clibpdf:cpdfAxis.obj
 0002:002c0620       _cpdf_setTimeAxisNumberFormat2 0083c620 f   clibpdf:cpdfAxis.obj
 0002:002c07e0       _cpdf_setAxisLineParams    0083c7e0 f   clibpdf:cpdfAxis.obj
 0002:002c0850       __do_oneTick               0083c850 f   clibpdf:cpdfAxis.obj
 0002:002c0930       __do_linearTics            0083c930 f   clibpdf:cpdfAxis.obj
 0002:002c0af0       __do_logTics               0083caf0 f   clibpdf:cpdfAxis.obj
 0002:002c0d70       __do_timeTics              0083cd70 f   clibpdf:cpdfAxis.obj
 0002:002c10a0       _cpdf_setLinearAxisParams  0083d0a0 f   clibpdf:cpdfAxis.obj
 0002:002c1110       _cpdf_setLogAxisTickSelector 0083d110 f   clibpdf:cpdfAxis.obj
 0002:002c1150       _cpdf_setLogAxisNumberSelector 0083d150 f   clibpdf:cpdfAxis.obj
 0002:002c1190       _cpdf_setAxisLabel         0083d190 f   clibpdf:cpdfAxis.obj
 0002:002c13b0       __do_axisLabel             0083d3b0 f   clibpdf:cpdfAxis.obj
 0002:002c16e0       _vAxis2Points              0083d6e0 f   clibpdf:cpdfAxis.obj
 0002:002c1840       _cpdf_createPlotDomain     0083d840 f   clibpdf:cpdfDomain.obj
 0002:002c1ae0       _cpdf_createTimePlotDomain 0083dae0 f   clibpdf:cpdfDomain.obj
 0002:002c1d90       _cpdf_freePlotDomain       0083dd90 f   clibpdf:cpdfDomain.obj
 0002:002c1e00       _cpdf_fillDomainWithGray   0083de00 f   clibpdf:cpdfDomain.obj
 0002:002c1ec0       _cpdf_fillDomainWithRGBcolor 0083dec0 f   clibpdf:cpdfDomain.obj
 0002:002c1f90       _cpdf_clipDomain           0083df90 f   clibpdf:cpdfDomain.obj
 0002:002c2040       _cpdf_setPlotDomain        0083e040 f   clibpdf:cpdfDomain.obj
 0002:002c21c0       _cpdf_setMeshColor         0083e1c0 f   clibpdf:cpdfDomain.obj
 0002:002c2250       _cpdf_drawMeshForDomain    0083e250 f   clibpdf:cpdfDomain.obj
 0002:002c22f0       __do_meshLines_X           0083e2f0 f   clibpdf:cpdfDomain.obj
 0002:002c2cc0       __do_meshLines_Y           0083ecc0 f   clibpdf:cpdfDomain.obj
 0002:002c31f0       _cpdf_setLinearMeshParams  0083f1f0 f   clibpdf:cpdfDomain.obj
 0002:002c32a0       _x_Domain2Points           0083f2a0 f   clibpdf:cpdfDomain.obj
 0002:002c3400       _y_Domain2Points           0083f400 f   clibpdf:cpdfDomain.obj
 0002:002c3560       _y_Points2Domain           0083f560 f   clibpdf:cpdfDomain.obj
 0002:002c36b0       _x_Points2Domain           0083f6b0 f   clibpdf:cpdfDomain.obj
 0002:002c3800       _cpdf_addOutlineEntry      0083f800 f   clibpdf:cpdfOutline.obj
 0002:002c3cd0       _cpdf_addOutlineAction     0083fcd0 f   clibpdf:cpdfOutline.obj
 0002:002c4160       __cpdf_copy_string_with_malloc 00840160 f   clibpdf:cpdfOutline.obj
 0002:002c4200       __cpdf_dest_attribute      00840200 f   clibpdf:cpdfOutline.obj
 0002:002c4570       __cpdf_serializeOutlineEntries 00840570 f   clibpdf:cpdfOutline.obj
 0002:002c4620       __cpdf_WriteOutlineEntries 00840620 f   clibpdf:cpdfOutline.obj
 0002:002c46c0       __cpdf_WriteOneOutlineEntry 008406c0 f   clibpdf:cpdfOutline.obj
 0002:002c4b80       __cpdf_freeAllOutlineEntries 00840b80 f   clibpdf:cpdfOutline.obj
 0002:002c4c80       _cpdf_setAnnotation        00840c80 f   clibpdf:cpdfAnnot.obj
 0002:002c4d40       _cpdf_setActionURL         00840d40 f   clibpdf:cpdfAnnot.obj
 0002:002c4e00       _cpdf_setLinkGoToPage      00840e00 f   clibpdf:cpdfAnnot.obj
 0002:002c4ec0       _cpdf_setLinkAction        00840ec0 f   clibpdf:cpdfAnnot.obj
 0002:002c4f80       _cpdf_includeTextFileAsAnnotation 00840f80 f   clibpdf:cpdfAnnot.obj
 0002:002c5040       _cpdf_rawSetAnnotation     00841040 f   clibpdf:cpdfAnnot.obj
 0002:002c5880       _cpdf_rawSetActionURL      00841880 f   clibpdf:cpdfAnnot.obj
 0002:002c5d40       _cpdf_rawSetLinkGoToPage   00841d40 f   clibpdf:cpdfAnnot.obj
 0002:002c61b0       _cpdf_rawSetLinkAction     008421b0 f   clibpdf:cpdfAnnot.obj
 0002:002c6670       _cpdf_rawIncludeTextFileAsAnnotation 00842670 f   clibpdf:cpdfAnnot.obj
 0002:002c6860       __cpdf_freeAllAnnotInfos   00842860 f   clibpdf:cpdfAnnot.obj
 0002:002c69a0       _cpdf_importImage          008429a0 f   clibpdf:cpdfImage.obj
 0002:002c6a50       _cpdf_rawImportImage       00842a50 f   clibpdf:cpdfImage.obj
 0002:002c75b0       __isNewImage               008435b0 f   clibpdf:cpdfImage.obj
 0002:002c76a0       _cpdf_selectImage          008436a0 f   clibpdf:cpdfImage.obj
 0002:002c7700       __cpdf_freeAllImageInfos   00843700 f   clibpdf:cpdfImage.obj
 0002:002c7830       _cpdf_readTIFFheader       00843830 f   clibpdf:cpdfImage.obj
 0002:002c7890       _cpdf_readTIFFimageData    00843890 f   clibpdf:cpdfImage.obj
 0002:002c78d0       _cpdf_readPDFimageHeader   008438d0 f   clibpdf:cpdfImage.obj
 0002:002c7930       __cpdf_copyPDFimageHeader  00843930 f   clibpdf:cpdfImage.obj
 0002:002c7970       _cpdf_readPDFimageData     00843970 f   clibpdf:cpdfImage.obj
 0002:002c79b0       _compress2                 008439b0 f   clibpdf:compress.obj
 0002:002c7b20       _compress                  00843b20 f   clibpdf:compress.obj
 0002:002c7b80       _timestring                00843b80 f   clibpdf:cpdfTime.obj
 0002:002c7d20       _tm_to_NumDays             00843d20 f   clibpdf:cpdfTime.obj
 0002:002c7ed0       _isLeapYear                00843ed0 f   clibpdf:cpdfTime.obj
 0002:002c7f50       __printfTime               00843f50 f   clibpdf:cpdfTime.obj
 0002:002c7ff0       __cpdf_readPFB             00843ff0 f   clibpdf:cpdfReadPFB.obj
 0002:002c8770       __cpdf_readPFM             00844770 f   clibpdf:cpdfReadPFM.obj
 0002:002c8dd0       __cpdf_readPFM_Header      00844dd0 f   clibpdf:cpdfReadPFM.obj
 0002:002c9540       __cpdf_readPFM_Extension   00845540 f   clibpdf:cpdfReadPFM.obj
 0002:002c9840       __cpdf_byteRevPFM_Header   00845840 f   clibpdf:cpdfReadPFM.obj
 0002:002c9b70       __cpdf_byteRevPFM_Extension 00845b70 f   clibpdf:cpdfReadPFM.obj
 0002:002c9d10       _LbyteRev                  00845d10 f   clibpdf:cpdfReadPFM.obj
 0002:002c9d90       _SbyteRev                  00845d90 f   clibpdf:cpdfReadPFM.obj
 0002:002c9df0       _cpdf_suggestLinearDomainParams 00845df0 f   clibpdf:cpdfTicInt.obj
 0002:002ca320       _cpdf_suggestMinMaxForLinearDomain 00846320 f   clibpdf:cpdfTicInt.obj
 0002:002ca400       _read_JPEG_header          00846400 f   clibpdf:jpegsize.obj
 0002:002cab40       _deflateInit_              00846b40 f   clibpdf:deflate.obj
 0002:002cabb0       _deflateInit2_             00846bb0 f   clibpdf:deflate.obj
 0002:002cafc0       _deflateSetDictionary      00846fc0 f   clibpdf:deflate.obj
 0002:002cb1f0       _deflateReset              008471f0 f   clibpdf:deflate.obj
 0002:002cb330       _deflateParams             00847330 f   clibpdf:deflate.obj
 0002:002cb4c0       _deflate                   008474c0 f   clibpdf:deflate.obj
 0002:002cbb20       _deflateEnd                00847b20 f   clibpdf:deflate.obj
 0002:002cbcf0       _deflateCopy               00847cf0 f   clibpdf:deflate.obj
 0002:002cdc70       _zlibVersion               00849c70 f   clibpdf:zutil.obj
 0002:002cdcb0       _zError                    00849cb0 f   clibpdf:zutil.obj
 0002:002cdd00       _zcalloc                   00849d00 f   clibpdf:zutil.obj
 0002:002cdd80       _zcfree                    00849d80 f   clibpdf:zutil.obj
 0002:002cdde0       _adler32                   00849de0 f   clibpdf:adler32.obj
 0002:002ce0e0       __tr_init                  0084a0e0 f   clibpdf:trees.obj
 0002:002ce330       __tr_stored_block          0084a330 f   clibpdf:trees.obj
 0002:002ce4f0       __tr_align                 0084a4f0 f   clibpdf:trees.obj
 0002:002ceb10       __tr_flush_block           0084ab10 f   clibpdf:trees.obj
 0002:002d13c0       __tr_tally                 0084d3c0 f   clibpdf:trees.obj
 0002:002d254e       ??3@YAXPAX@Z               0084e54e f   mfc100d:mfc100d.dll
 0002:002d2554       ??1?$CStringT@DV?$StrTraitMFC_DLL@DV?$ChTraitsCRT@D@ATL@@@@@ATL@@QAE@XZ 0084e554 f   mfc100d:mfc100d.dll
 0002:002d255a       ??0?$CStringT@DV?$StrTraitMFC_DLL@DV?$ChTraitsCRT@D@ATL@@@@@ATL@@QAE@XZ 0084e55a f   mfc100d:mfc100d.dll
 0002:002d2560       ??0CPtrList@@QAE@H@Z       0084e560 f   mfc100d:mfc100d.dll
 0002:002d2566       ??1CPtrList@@UAE@XZ        0084e566 f   mfc100d:mfc100d.dll
 0002:002d256c       ?RemoveHead@CPtrList@@QAEPAXXZ 0084e56c f   mfc100d:mfc100d.dll
 0002:002d2572       ?GetHead@CPtrList@@QAEAAPAXXZ 0084e572 f   mfc100d:mfc100d.dll
 0002:002d2578       ?IsEmpty@CPtrList@@QBEHXZ  0084e578 f   mfc100d:mfc100d.dll
 0002:002d257e       ?RemoveAt@CPtrList@@QAEXPAU__POSITION@@@Z 0084e57e f   mfc100d:mfc100d.dll
 0002:002d2584       ?Find@CPtrList@@QBEPAU__POSITION@@PAXPAU2@@Z 0084e584 f   mfc100d:mfc100d.dll
 0002:002d258a       ??3@YAXPAXPBDH@Z           0084e58a f   mfc100d:mfc100d.dll
 0002:002d2590       ?AddTail@CPtrList@@QAEPAU__POSITION@@PAX@Z 0084e590 f   mfc100d:mfc100d.dll
 0002:002d2596       ??4?$CStringT@DV?$StrTraitMFC_DLL@DV?$ChTraitsCRT@D@ATL@@@@@ATL@@QAEAAV01@ABV01@@Z 0084e596 f   mfc100d:mfc100d.dll
 0002:002d259c       ??2@YAPAXIPBDH@Z           0084e59c f   mfc100d:mfc100d.dll
 0002:002d25a2       ??B?$CSimpleStringT@D$00@ATL@@QBEPBDXZ 0084e5a2 f   mfc100d:mfc100d.dll
 0002:002d25a8       ?GetNext@CPtrList@@QAEAAPAXAAPAU__POSITION@@@Z 0084e5a8 f   mfc100d:mfc100d.dll
 0002:002d25ae       ?GetHeadPosition@CPtrList@@QBEPAU__POSITION@@XZ 0084e5ae f   mfc100d:mfc100d.dll
 0002:002d25b4       ?AfxThrowInvalidArgException@@YGXXZ 0084e5b4 f   mfc100d:mfc100d.dll
 0002:002d25ba       ??1CBitmap@@UAE@XZ         0084e5ba f   mfc100d:mfc100d.dll
 0002:002d25c0       ??4?$CStringT@DV?$StrTraitMFC_DLL@DV?$ChTraitsCRT@D@ATL@@@@@ATL@@QAEAAV01@PBD@Z 0084e5c0 f   mfc100d:mfc100d.dll
 0002:002d25c6       ??0CBitmap@@QAE@XZ         0084e5c6 f   mfc100d:mfc100d.dll
 0002:002d25cc       ?DeleteObject@CGdiObject@@QAEHXZ 0084e5cc f   mfc100d:mfc100d.dll
 0002:002d25d2       ?GetLength@?$CSimpleStringT@D$00@ATL@@QBEHXZ 0084e5d2 f   mfc100d:mfc100d.dll
 0002:002d25d8       ??1CFile@@UAE@XZ           0084e5d8 f   mfc100d:mfc100d.dll
 0002:002d25de       ??1CArchive@@QAE@XZ        0084e5de f   mfc100d:mfc100d.dll
 0002:002d25e4       ?Close@CFile@@UAEXXZ       0084e5e4 f   mfc100d:mfc100d.dll
 0002:002d25ea       ?Close@CArchive@@QAEXXZ    0084e5ea f   mfc100d:mfc100d.dll
 0002:002d25f0       ??0CArchiveStream@@QAE@PAVCArchive@@@Z 0084e5f0 f   mfc100d:mfc100d.dll
 0002:002d25f6       ??0CArchive@@QAE@PAVCFile@@IHPAX@Z 0084e5f6 f   mfc100d:mfc100d.dll
 0002:002d25fc       ?Open@CFile@@UAEHPBDIPAVCFileException@@@Z 0084e5fc f   mfc100d:mfc100d.dll
 0002:002d2602       ??0CFile@@QAE@XZ           0084e602 f   mfc100d:mfc100d.dll
 0002:002d2608       ?Attach@CGdiObject@@QAEHPAX@Z 0084e608 f   mfc100d:mfc100d.dll
 0002:002d260e       ?AfxMessageBox@@YGHPBDII@Z 0084e60e f   mfc100d:mfc100d.dll
 0002:002d2614       ?Left@?$CStringT@DV?$StrTraitMFC_DLL@DV?$ChTraitsCRT@D@ATL@@@@@ATL@@QBE?AV12@H@Z 0084e614 f   mfc100d:mfc100d.dll
 0002:002d261a       ?BitBlt@CDC@@QAEHHHHHPAV1@HHK@Z 0084e61a f   mfc100d:mfc100d.dll
 0002:002d2620       ?SetTimer@CWnd@@QAEIIIP6GXPAUHWND__@@IIK@Z@Z 0084e620 f   mfc100d:mfc100d.dll
 0002:002d2626       ?AfxGetMainWnd@@YGPAVCWnd@@XZ 0084e626 f   mfc100d:mfc100d.dll
 0002:002d262c       ?Ellipse@CDC@@QAEHPBUtagRECT@@@Z 0084e62c f   mfc100d:mfc100d.dll
 0002:002d2632       ?CreatePen@CPen@@QAEHHHK@Z 0084e632 f   mfc100d:mfc100d.dll
 0002:002d2638       ??0CPen@@QAE@XZ            0084e638 f   mfc100d:mfc100d.dll
 0002:002d263e       ?LineTo@CDC@@QAEHUtagPOINT@@@Z 0084e63e f   mfc100d:mfc100d.dll
 0002:002d2644       ?MoveTo@CDC@@QAE?AVCPoint@@UtagPOINT@@@Z 0084e644 f   mfc100d:mfc100d.dll
 0002:002d264a       ?SetPixel@CDC@@QAEKHHK@Z   0084e64a f   mfc100d:mfc100d.dll
 0002:002d2650       ??1CBrush@@UAE@XZ          0084e650 f   mfc100d:mfc100d.dll
 0002:002d2656       ?Polygon@CDC@@QAEHPBUtagPOINT@@H@Z 0084e656 f   mfc100d:mfc100d.dll
 0002:002d265c       ?RoundRect@CDC@@QAEHHHHHHH@Z 0084e65c f   mfc100d:mfc100d.dll
 0002:002d2662       ?Rectangle@CDC@@QAEHHHHH@Z 0084e662 f   mfc100d:mfc100d.dll
 0002:002d2668       ??1CPen@@UAE@XZ            0084e668 f   mfc100d:mfc100d.dll
 0002:002d266e       ?Polyline@CDC@@QAEHPBUtagPOINT@@H@Z 0084e66e f   mfc100d:mfc100d.dll
 0002:002d2674       ?LineTo@CDC@@QAEHHH@Z      0084e674 f   mfc100d:mfc100d.dll
 0002:002d267a       ?MoveTo@CDC@@QAE?AVCPoint@@HH@Z 0084e67a f   mfc100d:mfc100d.dll
 0002:002d2680       ?Ellipse@CDC@@QAEHHHHH@Z   0084e680 f   mfc100d:mfc100d.dll
 0002:002d2686       ?SelectObject@CDC@@QAEPAXPAX@Z 0084e686 f   mfc100d:mfc100d.dll
 0002:002d268c       ??BCGdiObject@@QBEPAXXZ    0084e68c f   mfc100d:mfc100d.dll
 0002:002d2692       ?SetROP2@CDC@@QAEHH@Z      0084e692 f   mfc100d:mfc100d.dll
 0002:002d2698       ?GetSafeHdc@CDC@@QBEPAUHDC__@@XZ 0084e698 f   mfc100d:mfc100d.dll
 0002:002d269e       ??1CDC@@UAE@XZ             0084e69e f   mfc100d:mfc100d.dll
 0002:002d26a4       ?StretchBlt@CDC@@QAEHHHHHPAV1@HHHHK@Z 0084e6a4 f   mfc100d:mfc100d.dll
 0002:002d26aa       ?SelectObject@CDC@@QAEPAVCBitmap@@PAV2@@Z 0084e6aa f   mfc100d:mfc100d.dll
 0002:002d26b0       ?SetStretchBltMode@CDC@@QAEHH@Z 0084e6b0 f   mfc100d:mfc100d.dll
 0002:002d26b6       ?CreateCompatibleDC@CDC@@QAEHPAV1@@Z 0084e6b6 f   mfc100d:mfc100d.dll
 0002:002d26bc       ??0CDC@@QAE@XZ             0084e6bc f   mfc100d:mfc100d.dll
 0002:002d26c2       ?GetBitmap@CBitmap@@QAEHPAUtagBITMAP@@@Z 0084e6c2 f   mfc100d:mfc100d.dll
 0002:002d26c8       ?Rectangle@CDC@@QAEHPBUtagRECT@@@Z 0084e6c8 f   mfc100d:mfc100d.dll
 0002:002d26ce       ?GetBkMode@CDC@@QBEHXZ     0084e6ce f   mfc100d:mfc100d.dll
 0002:002d26d4       ?SelectObject@CDC@@QAEPAVCBrush@@PAV2@@Z 0084e6d4 f   mfc100d:mfc100d.dll
 0002:002d26da       ?SelectObject@CDC@@QAEPAVCPen@@PAV2@@Z 0084e6da f   mfc100d:mfc100d.dll
 0002:002d26e0       ??0CPen@@QAE@HHK@Z         0084e6e0 f   mfc100d:mfc100d.dll
 0002:002d26e6       ??0CBrush@@QAE@K@Z         0084e6e6 f   mfc100d:mfc100d.dll
 0002:002d26ec       ?GetROP2@CDC@@QBEHXZ       0084e6ec f   mfc100d:mfc100d.dll
 0002:002d26f2       ?SetWindowOrg@CDC@@QAE?AVCPoint@@HH@Z 0084e6f2 f   mfc100d:mfc100d.dll
 0002:002d26f8       ??0?$CStringT@DV?$StrTraitMFC_DLL@DV?$ChTraitsCRT@D@ATL@@@@@ATL@@QAE@ABV01@@Z 0084e6f8 f   mfc100d:mfc100d.dll
 0002:002d26fe       ?Concatenate@?$CSimpleStringT@D$00@ATL@@KAXAAV12@PBDH1H@Z 0084e6fe f   mfc100d:mfc100d.dll
 0002:002d2704       ?StringLength@?$CSimpleStringT@D$00@ATL@@SAHPBD@Z 0084e704 f   mfc100d:mfc100d.dll
 0002:002d270a       ??0?$CStringT@DV?$StrTraitMFC_DLL@DV?$ChTraitsCRT@D@ATL@@@@@ATL@@QAE@PAUIAtlStringMgr@1@@Z 0084e70a f   mfc100d:mfc100d.dll
 0002:002d2710       ?GetManager@?$CStringT@DV?$StrTraitMFC_DLL@DV?$ChTraitsCRT@D@ATL@@@@@ATL@@QBEPAUIAtlStringMgr@2@XZ 0084e710 f   mfc100d:mfc100d.dll
 0002:002d2716       ?Compare@?$CStringT@DV?$StrTraitMFC_DLL@DV?$ChTraitsCRT@D@ATL@@@@@ATL@@QBEHPBD@Z 0084e716 f   mfc100d:mfc100d.dll
 0002:002d271c       ??0CObject@@IAE@XZ         0084e71c f   mfc100d:mfc100d.dll
 0002:002d2722       ?GetRuntimeClass@CObject@@UBEPAUCRuntimeClass@@XZ 0084e722 f   mfc100d:mfc100d.dll
 0002:002d2728       ??1CObject@@UAE@XZ         0084e728 f   mfc100d:mfc100d.dll
 0002:002d272e       ??_V@YAXPAX@Z              0084e72e f   mfc100d:mfc100d.dll
 0002:002d2734       ?AfxAssertValidObject@@YGXPBVCObject@@PBDH@Z 0084e734 f   mfc100d:mfc100d.dll
 0002:002d273a       ?ReadCount@CArchive@@QAEKXZ 0084e73a f   mfc100d:mfc100d.dll
 0002:002d2740       ?WriteCount@CArchive@@QAEXK@Z 0084e740 f   mfc100d:mfc100d.dll
 0002:002d2746       ?IsStoring@CArchive@@QBEHXZ 0084e746 f   mfc100d:mfc100d.dll
 0002:002d274c       ?Serialize@CObject@@UAEXAAVCArchive@@@Z 0084e74c f   mfc100d:mfc100d.dll
 0002:002d2752       ?GetDepth@CDumpContext@@QBEHXZ 0084e752 f   mfc100d:mfc100d.dll
 0002:002d2758       ??6CDumpContext@@QAEAAV0@H@Z 0084e758 f   mfc100d:mfc100d.dll
 0002:002d275e       ??6CDumpContext@@QAEAAV0@PBD@Z 0084e75e f   mfc100d:mfc100d.dll
 0002:002d2764       ?Dump@CObject@@UBEXAAVCDumpContext@@@Z 0084e764 f   mfc100d:mfc100d.dll
 0002:002d276a       ?AfxIsValidAddress@@YGHPBXIH@Z 0084e76a f   mfc100d:mfc100d.dll
 0002:002d2770       ?AssertValid@CObject@@UBEXXZ 0084e770 f   mfc100d:mfc100d.dll
 0002:002d2776       ??3CObject@@SGXPAX@Z       0084e776 f   mfc100d:mfc100d.dll
 0002:002d277c       ??_U@YAPAXI@Z              0084e77c f   mfc100d:mfc100d.dll
 0002:002d2782       ??_U@YAPAXIPBDH@Z          0084e782 f   mfc100d:mfc100d.dll
 0002:002d2788       ?AfxThrowMemoryException@@YGXXZ 0084e788 f   mfc100d:mfc100d.dll
 0002:002d278e       ?EnsureRead@CArchive@@QAEXPAXI@Z 0084e78e f   mfc100d:mfc100d.dll
 0002:002d2794       ?Write@CArchive@@QAEXPBXI@Z 0084e794 f   mfc100d:mfc100d.dll
 0002:002d279a       ?GetThisMessageMap@CDialog@@KGPBUAFX_MSGMAP@@XZ 0084e79a f   mfc100d:mfc100d.dll
 0002:002d27a0       ?GetThisClass@CDialog@@SGPAUCRuntimeClass@@XZ 0084e7a0 f   mfc100d:mfc100d.dll
 0002:002d27a6       ??1CButton@@UAE@XZ         0084e7a6 f   mfc100d:mfc100d.dll
 0002:002d27ac       ??1CListBox@@UAE@XZ        0084e7ac f   mfc100d:mfc100d.dll
 0002:002d27b2       ??1CEdit@@UAE@XZ           0084e7b2 f   mfc100d:mfc100d.dll
 0002:002d27b8       ??1CComboBox@@UAE@XZ       0084e7b8 f   mfc100d:mfc100d.dll
 0002:002d27be       ??1CDialog@@UAE@XZ         0084e7be f   mfc100d:mfc100d.dll
 0002:002d27c4       ??0CButton@@QAE@XZ         0084e7c4 f   mfc100d:mfc100d.dll
 0002:002d27ca       ??0CListBox@@QAE@XZ        0084e7ca f   mfc100d:mfc100d.dll
 0002:002d27d0       ??0CEdit@@QAE@XZ           0084e7d0 f   mfc100d:mfc100d.dll
 0002:002d27d6       ??0CComboBox@@QAE@XZ       0084e7d6 f   mfc100d:mfc100d.dll
 0002:002d27dc       ??0CDialog@@QAE@IPAVCWnd@@@Z 0084e7dc f   mfc100d:mfc100d.dll
 0002:002d27e2       ?AssertValid@CDialog@@UBEXXZ 0084e7e2 f   mfc100d:mfc100d.dll
 0002:002d27e8       ?Dump@CDialog@@UBEXAAVCDumpContext@@@Z 0084e7e8 f   mfc100d:mfc100d.dll
 0002:002d27ee       ?OnCmdMsg@CDialog@@UAEHIHPAXPAUAFX_CMDHANDLERINFO@@@Z 0084e7ee f   mfc100d:mfc100d.dll
 0002:002d27f4       ?OnFinalRelease@CWnd@@UAEXXZ 0084e7f4 f   mfc100d:mfc100d.dll
 0002:002d27fa       ?IsInvokeAllowed@CCmdTarget@@UAEHJ@Z 0084e7fa f   mfc100d:mfc100d.dll
 0002:002d2800       ?GetDispatchIID@CCmdTarget@@UAEHPAU_GUID@@@Z 0084e800 f   mfc100d:mfc100d.dll
 0002:002d2806       ?GetTypeInfoCount@CCmdTarget@@UAEIXZ 0084e806 f   mfc100d:mfc100d.dll
 0002:002d280c       ?GetTypeLibCache@CCmdTarget@@UAEPAVCTypeLibCache@@XZ 0084e80c f   mfc100d:mfc100d.dll
 0002:002d2812       ?GetTypeLib@CCmdTarget@@UAEJKPAPAUITypeLib@@@Z 0084e812 f   mfc100d:mfc100d.dll
 0002:002d2818       ?GetCommandMap@CCmdTarget@@MBEPBUAFX_OLECMDMAP@@XZ 0084e818 f   mfc100d:mfc100d.dll
 0002:002d281e       ?GetDispatchMap@CCmdTarget@@MBEPBUAFX_DISPMAP@@XZ 0084e81e f   mfc100d:mfc100d.dll
 0002:002d2824       ?GetConnectionMap@CCmdTarget@@MBEPBUAFX_CONNECTIONMAP@@XZ 0084e824 f   mfc100d:mfc100d.dll
 0002:002d282a       ?GetInterfaceMap@CWnd@@MBEPBUAFX_INTERFACEMAP@@XZ 0084e82a f   mfc100d:mfc100d.dll
 0002:002d2830       ?GetEventSinkMap@CCmdTarget@@MBEPBUAFX_EVENTSINKMAP@@XZ 0084e830 f   mfc100d:mfc100d.dll
 0002:002d2836       ?OnCreateAggregates@CCmdTarget@@UAEHXZ 0084e836 f   mfc100d:mfc100d.dll
 0002:002d283c       ?GetInterfaceHook@CCmdTarget@@UAEPAUIUnknown@@PBX@Z 0084e83c f   mfc100d:mfc100d.dll
 0002:002d2842       ?GetExtraConnectionPoints@CCmdTarget@@MAEHPAVCPtrArray@@@Z 0084e842 f   mfc100d:mfc100d.dll
 0002:002d2848       ?GetConnectionHook@CCmdTarget@@MAEPAUIConnectionPoint@@ABU_GUID@@@Z 0084e848 f   mfc100d:mfc100d.dll
 0002:002d284e       ?PreSubclassWindow@CWnd@@UAEXXZ 0084e84e f   mfc100d:mfc100d.dll
 0002:002d2854       ?Create@CWnd@@UAEHPBD0KABUtagRECT@@PAV1@IPAUCCreateContext@@@Z 0084e854 f   mfc100d:mfc100d.dll
 0002:002d285a       ?CreateEx@CWnd@@UAEHKPBD0KABUtagRECT@@PAV1@IPAX@Z 0084e85a f   mfc100d:mfc100d.dll
 0002:002d2860       ?CreateEx@CWnd@@UAEHKPBD0KHHHHPAUHWND__@@PAUHMENU__@@PAX@Z 0084e860 f   mfc100d:mfc100d.dll
 0002:002d2866       ?DestroyWindow@CWnd@@UAEHXZ 0084e866 f   mfc100d:mfc100d.dll
 0002:002d286c       ?PreCreateWindow@CWnd@@UAEHAAUtagCREATESTRUCTA@@@Z 0084e86c f   mfc100d:mfc100d.dll
 0002:002d2872       ?CalcWindowRect@CWnd@@UAEXPAUtagRECT@@I@Z 0084e872 f   mfc100d:mfc100d.dll
 0002:002d2878       ?GetMenu@CWnd@@UBEPAVCMenu@@XZ 0084e878 f   mfc100d:mfc100d.dll
 0002:002d287e       ?SetMenu@CWnd@@UAEHPAVCMenu@@@Z 0084e87e f   mfc100d:mfc100d.dll
 0002:002d2884       ?OnToolHitTest@CWnd@@UBEHVCPoint@@PAUtagTOOLINFOA@@@Z 0084e884 f   mfc100d:mfc100d.dll
 0002:002d288a       ?GetScrollBarCtrl@CWnd@@UBEPAVCScrollBar@@H@Z 0084e88a f   mfc100d:mfc100d.dll
 0002:002d2890       ?WinHelpA@CWnd@@UAEXKI@Z   0084e890 f   mfc100d:mfc100d.dll
 0002:002d2896       ?HtmlHelpA@CWnd@@UAEXKI@Z  0084e896 f   mfc100d:mfc100d.dll
 0002:002d289c       ?WinHelpInternal@CWnd@@UAEXKI@Z 0084e89c f   mfc100d:mfc100d.dll
 0002:002d28a2       ?ContinueModal@CWnd@@UAEHXZ 0084e8a2 f   mfc100d:mfc100d.dll
 0002:002d28a8       ?EndModalLoop@CWnd@@UAEXH@Z 0084e8a8 f   mfc100d:mfc100d.dll
 0002:002d28ae       ?OnDrawIconicThumbnailOrLivePreview@CWnd@@UAEXAAVCDC@@VCRect@@VCSize@@HAAH@Z 0084e8ae f   mfc100d:mfc100d.dll
 0002:002d28b4       ?EnsureStdObj@CWnd@@UAEJXZ 0084e8b4 f   mfc100d:mfc100d.dll
 0002:002d28ba       ?get_accParent@CWnd@@UAEJPAPAUIDispatch@@@Z 0084e8ba f   mfc100d:mfc100d.dll
 0002:002d28c0       ?get_accChildCount@CWnd@@UAEJPAJ@Z 0084e8c0 f   mfc100d:mfc100d.dll
 0002:002d28c6       ?get_accChild@CWnd@@UAEJUtagVARIANT@@PAPAUIDispatch@@@Z 0084e8c6 f   mfc100d:mfc100d.dll
 0002:002d28cc       ?get_accName@CWnd@@UAEJUtagVARIANT@@PAPA_W@Z 0084e8cc f   mfc100d:mfc100d.dll
 0002:002d28d2       ?get_accValue@CWnd@@UAEJUtagVARIANT@@PAPA_W@Z 0084e8d2 f   mfc100d:mfc100d.dll
 0002:002d28d8       ?get_accDescription@CWnd@@UAEJUtagVARIANT@@PAPA_W@Z 0084e8d8 f   mfc100d:mfc100d.dll
 0002:002d28de       ?get_accRole@CWnd@@UAEJUtagVARIANT@@PAU2@@Z 0084e8de f   mfc100d:mfc100d.dll
 0002:002d28e4       ?get_accState@CWnd@@UAEJUtagVARIANT@@PAU2@@Z 0084e8e4 f   mfc100d:mfc100d.dll
 0002:002d28ea       ?get_accHelp@CWnd@@UAEJUtagVARIANT@@PAPA_W@Z 0084e8ea f   mfc100d:mfc100d.dll
 0002:002d28f0       ?get_accHelpTopic@CWnd@@UAEJPAPA_WUtagVARIANT@@PAJ@Z 0084e8f0 f   mfc100d:mfc100d.dll
 0002:002d28f6       ?get_accKeyboardShortcut@CWnd@@UAEJUtagVARIANT@@PAPA_W@Z 0084e8f6 f   mfc100d:mfc100d.dll
 0002:002d28fc       ?get_accFocus@CWnd@@UAEJPAUtagVARIANT@@@Z 0084e8fc f   mfc100d:mfc100d.dll
 0002:002d2902       ?get_accSelection@CWnd@@UAEJPAUtagVARIANT@@@Z 0084e902 f   mfc100d:mfc100d.dll
 0002:002d2908       ?get_accDefaultAction@CWnd@@UAEJUtagVARIANT@@PAPA_W@Z 0084e908 f   mfc100d:mfc100d.dll
 0002:002d290e       ?accSelect@CWnd@@UAEJJUtagVARIANT@@@Z 0084e90e f   mfc100d:mfc100d.dll
 0002:002d2914       ?accLocation@CWnd@@UAEJPAJ000UtagVARIANT@@@Z 0084e914 f   mfc100d:mfc100d.dll
 0002:002d291a       ?accNavigate@CWnd@@UAEJJUtagVARIANT@@PAU2@@Z 0084e91a f   mfc100d:mfc100d.dll
 0002:002d2920       ?accHitTest@CWnd@@UAEJJJPAUtagVARIANT@@@Z 0084e920 f   mfc100d:mfc100d.dll
 0002:002d2926       ?accDoDefaultAction@CWnd@@UAEJUtagVARIANT@@@Z 0084e926 f   mfc100d:mfc100d.dll
 0002:002d292c       ?put_accName@CWnd@@UAEJUtagVARIANT@@PA_W@Z 0084e92c f   mfc100d:mfc100d.dll
 0002:002d2932       ?put_accValue@CWnd@@UAEJUtagVARIANT@@PA_W@Z 0084e932 f   mfc100d:mfc100d.dll
 0002:002d2938       ?SetProxy@CWnd@@UAEJPAUIAccessibleProxy@@@Z 0084e938 f   mfc100d:mfc100d.dll
 0002:002d293e       ?CreateAccessibleProxy@CWnd@@UAEJIJPAJ@Z 0084e93e f   mfc100d:mfc100d.dll
 0002:002d2944       ?OnCommand@CWnd@@MAEHIJ@Z  0084e944 f   mfc100d:mfc100d.dll
 0002:002d294a       ?OnNotify@CWnd@@MAEHIJPAJ@Z 0084e94a f   mfc100d:mfc100d.dll
 0002:002d2950       ?GetSuperWndProcAddr@CWnd@@MAEPAP6GJPAUHWND__@@IIJ@ZXZ 0084e950 f   mfc100d:mfc100d.dll
 0002:002d2956       ?BeginModalState@CWnd@@UAEXXZ 0084e956 f   mfc100d:mfc100d.dll
 0002:002d295c       ?EndModalState@CWnd@@UAEXXZ 0084e95c f   mfc100d:mfc100d.dll
 0002:002d2962       ?PreTranslateMessage@CDialog@@UAEHPAUtagMSG@@@Z 0084e962 f   mfc100d:mfc100d.dll
 0002:002d2968       ?OnAmbientProperty@CWnd@@UAEHPAVCOleControlSite@@JPAUtagVARIANT@@@Z 0084e968 f   mfc100d:mfc100d.dll
 0002:002d296e       ?WindowProc@CWnd@@MAEJIIJ@Z 0084e96e f   mfc100d:mfc100d.dll
 0002:002d2974       ?OnWndMsg@CWnd@@MAEHIIJPAJ@Z 0084e974 f   mfc100d:mfc100d.dll
 0002:002d297a       ?DefWindowProcA@CWnd@@MAEJIIJ@Z 0084e97a f   mfc100d:mfc100d.dll
 0002:002d2980       ?PostNcDestroy@CWnd@@MAEXXZ 0084e980 f   mfc100d:mfc100d.dll
 0002:002d2986       ?OnChildNotify@CWnd@@MAEHIIJPAJ@Z 0084e986 f   mfc100d:mfc100d.dll
 0002:002d298c       ?OnTouchInputs@CWnd@@MAEHIPAUtagTOUCHINPUT@@@Z 0084e98c f   mfc100d:mfc100d.dll
 0002:002d2992       ?OnTouchInput@CWnd@@MAEHVCPoint@@HHPAUtagTOUCHINPUT@@@Z 0084e992 f   mfc100d:mfc100d.dll
 0002:002d2998       ?GetGestureStatus@CWnd@@MAEKVCPoint@@@Z 0084e998 f   mfc100d:mfc100d.dll
 0002:002d299e       ?OnGestureZoom@CWnd@@MAEHVCPoint@@J@Z 0084e99e f   mfc100d:mfc100d.dll
 0002:002d29a4       ?OnGesturePan@CWnd@@MAEHVCPoint@@0@Z 0084e9a4 f   mfc100d:mfc100d.dll
 0002:002d29aa       ?OnGestureRotate@CWnd@@MAEHVCPoint@@N@Z 0084e9aa f   mfc100d:mfc100d.dll
 0002:002d29b0       ?OnGestureTwoFingerTap@CWnd@@MAEHVCPoint@@@Z 0084e9b0 f   mfc100d:mfc100d.dll
 0002:002d29b6       ?OnGesturePressAndTap@CWnd@@MAEHVCPoint@@J@Z 0084e9b6 f   mfc100d:mfc100d.dll
 0002:002d29bc       ?CheckAutoCenter@CDialog@@UAEHXZ 0084e9bc f   mfc100d:mfc100d.dll
 0002:002d29c2       ?IsFrameWnd@CWnd@@UBEHXZ   0084e9c2 f   mfc100d:mfc100d.dll
 0002:002d29c8       ?CreateControlContainer@CWnd@@MAEHPAPAVCOleControlContainer@@@Z 0084e9c8 f   mfc100d:mfc100d.dll
 0002:002d29ce       ?CreateControlSite@CWnd@@MAEHPAVCOleControlContainer@@PAPAVCOleControlSite@@IABU_GUID@@@Z 0084e9ce f   mfc100d:mfc100d.dll
 0002:002d29d4       ?SetOccDialogInfo@CDialog@@MAEHPAU_AFX_OCC_DIALOG_INFO@@@Z 0084e9d4 f   mfc100d:mfc100d.dll
 0002:002d29da       ?GetOccDialogInfo@CDialog@@MAEPAU_AFX_OCC_DIALOG_INFO@@XZ 0084e9da f   mfc100d:mfc100d.dll
 0002:002d29e0       ?Create@CDialog@@UAEHIPAVCWnd@@@Z 0084e9e0 f   mfc100d:mfc100d.dll
 0002:002d29e6       ?Create@CDialog@@UAEHPBDPAVCWnd@@@Z 0084e9e6 f   mfc100d:mfc100d.dll
 0002:002d29ec       ?CreateIndirect@CDialog@@UAEHPAXPAVCWnd@@@Z 0084e9ec f   mfc100d:mfc100d.dll
 0002:002d29f2       ?CreateIndirect@CDialog@@UAEHPBUDLGTEMPLATE@@PAVCWnd@@PAX@Z 0084e9f2 f   mfc100d:mfc100d.dll
 0002:002d29f8       ?DoModal@CDialog@@UAEHXZ   0084e9f8 f   mfc100d:mfc100d.dll
 0002:002d29fe       ?OnInitDialog@CDialog@@UAEHXZ 0084e9fe f   mfc100d:mfc100d.dll
 0002:002d2a04       ?OnSetFont@CDialog@@UAEXPAVCFont@@@Z 0084ea04 f   mfc100d:mfc100d.dll
 0002:002d2a0a       ?OnOK@CDialog@@MAEXXZ      0084ea0a f   mfc100d:mfc100d.dll
 0002:002d2a10       ?OnCancel@CDialog@@MAEXXZ  0084ea10 f   mfc100d:mfc100d.dll
 0002:002d2a16       ?PreInitDialog@CDialog@@MAEXXZ 0084ea16 f   mfc100d:mfc100d.dll
 0002:002d2a1c       ?GetCheck@CButton@@QBEHXZ  0084ea1c f   mfc100d:mfc100d.dll
 0002:002d2a22       ?Fail@CDataExchange@@QAEXXZ 0084ea22 f   mfc100d:mfc100d.dll
 0002:002d2a28       ?GetWindowTextA@CWnd@@QBEXAAV?$CStringT@DV?$StrTraitMFC_DLL@DV?$ChTraitsCRT@D@ATL@@@@@ATL@@@Z 0084ea28 f   mfc100d:mfc100d.dll
 0002:002d2a2e       ?GetCurSel@CListBox@@QBEHXZ 0084ea2e f   mfc100d:mfc100d.dll
 0002:002d2a34       ?SetWindowTextA@CWnd@@QAEXPBD@Z 0084ea34 f   mfc100d:mfc100d.dll
 0002:002d2a3a       ?SetCheck@CButton@@QAEXH@Z 0084ea3a f   mfc100d:mfc100d.dll
 0002:002d2a40       ?EnableWindow@CWnd@@QAEHH@Z 0084ea40 f   mfc100d:mfc100d.dll
 0002:002d2a46       ?SetCurSel@CListBox@@QAEHH@Z 0084ea46 f   mfc100d:mfc100d.dll
 0002:002d2a4c       ?InsertString@CListBox@@QAEHHPBD@Z 0084ea4c f   mfc100d:mfc100d.dll
 0002:002d2a52       ?SelectString@CComboBox@@QAEHHPBD@Z 0084ea52 f   mfc100d:mfc100d.dll
 0002:002d2a58       ?AddString@CComboBox@@QAEHPBD@Z 0084ea58 f   mfc100d:mfc100d.dll
 0002:002d2a5e       ?DDX_Control@@YGXPAVCDataExchange@@HAAVCWnd@@@Z 0084ea5e f   mfc100d:mfc100d.dll
 0002:002d2a64       ?DoDataExchange@CWnd@@MAEXPAVCDataExchange@@@Z 0084ea64 f   mfc100d:mfc100d.dll
 0002:002d2a6a       ??1CFont@@UAE@XZ           0084ea6a f   mfc100d:mfc100d.dll
 0002:002d2a70       ?CreateFontA@CFont@@QAEHHHHHHEEEEEEEEPBD@Z 0084ea70 f   mfc100d:mfc100d.dll
 0002:002d2a76       ??0CFont@@QAE@XZ           0084ea76 f   mfc100d:mfc100d.dll
 0002:002d2a7c       ?ReplaceSel@CEdit@@QAEXPBDH@Z 0084ea7c f   mfc100d:mfc100d.dll
 0002:002d2a82       ?Replace@?$CStringT@DV?$StrTraitMFC_DLL@DV?$ChTraitsCRT@D@ATL@@@@@ATL@@QAEHPBD0@Z 0084ea82 f   mfc100d:mfc100d.dll
 0002:002d2a88       ??0?$CStringT@DV?$StrTraitMFC_DLL@DV?$ChTraitsCRT@D@ATL@@@@@ATL@@QAE@PBD@Z 0084ea88 f   mfc100d:mfc100d.dll
 0002:002d2a8e       ?SetFont@CWnd@@QAEXPAVCFont@@H@Z 0084ea8e f   mfc100d:mfc100d.dll
 0002:002d2a94       ?Tokenize@?$CStringT@DV?$StrTraitMFC_DLL@DV?$ChTraitsCRT@D@ATL@@@@@ATL@@QBE?AV12@PBDAAH@Z 0084ea94 f   mfc100d:mfc100d.dll
 0002:002d2a9a       ?Find@?$CStringT@DV?$StrTraitMFC_DLL@DV?$ChTraitsCRT@D@ATL@@@@@ATL@@QBEHPBDH@Z 0084ea9a f   mfc100d:mfc100d.dll
 0002:002d2aa0       ??Y?$CStringT@DV?$StrTraitMFC_DLL@DV?$ChTraitsCRT@D@ATL@@@@@ATL@@QAEAAV01@PBD@Z 0084eaa0 f   mfc100d:mfc100d.dll
 0002:002d2aa6       ?SetSel@CEdit@@QAEXHHH@Z   0084eaa6 f   mfc100d:mfc100d.dll
 0002:002d2aac       ?InsertString@CComboBox@@QAEHHPBD@Z 0084eaac f   mfc100d:mfc100d.dll
 0002:002d2ab2       ?GetCurSel@CComboBox@@QBEHXZ 0084eab2 f   mfc100d:mfc100d.dll
 0002:002d2ab8       ?SetCurSel@CComboBox@@QAEHH@Z 0084eab8 f   mfc100d:mfc100d.dll
 0002:002d2abe       ?Format@?$CStringT@DV?$StrTraitMFC_DLL@DV?$ChTraitsCRT@D@ATL@@@@@ATL@@QAAXPBDZZ 0084eabe f   mfc100d:mfc100d.dll
 0002:002d2ac4       ??1CStatic@@UAE@XZ         0084eac4 f   mfc100d:mfc100d.dll
 0002:002d2aca       ??1CTreeCtrl@@UAE@XZ       0084eaca f   mfc100d:mfc100d.dll
 0002:002d2ad0       ??0CStatic@@QAE@XZ         0084ead0 f   mfc100d:mfc100d.dll
 0002:002d2ad6       ??0CTreeCtrl@@QAE@XZ       0084ead6 f   mfc100d:mfc100d.dll
 0002:002d2adc       ?SetAt@CMapStringToPtr@@QAEXPBDPAX@Z 0084eadc f   mfc100d:mfc100d.dll
 0002:002d2ae2       ?Lookup@CMapStringToPtr@@QBEHPBDAAPAX@Z 0084eae2 f   mfc100d:mfc100d.dll
 0002:002d2ae8       ?Right@?$CStringT@DV?$StrTraitMFC_DLL@DV?$ChTraitsCRT@D@ATL@@@@@ATL@@QBE?AV12@H@Z 0084eae8 f   mfc100d:mfc100d.dll
 0002:002d2aee       ?FindOneOf@?$CStringT@DV?$StrTraitMFC_DLL@DV?$ChTraitsCRT@D@ATL@@@@@ATL@@QBEHPBD@Z 0084eaee f   mfc100d:mfc100d.dll
 0002:002d2af4       ?PrepareEditCtrl@CDataExchange@@QAEPAUHWND__@@H@Z 0084eaf4 f   mfc100d:mfc100d.dll
 0002:002d2afa       ?Trim@?$CStringT@DV?$StrTraitMFC_DLL@DV?$ChTraitsCRT@D@ATL@@@@@ATL@@QAEAAV12@XZ 0084eafa f   mfc100d:mfc100d.dll
 0002:002d2b00       ?ShowWindow@CWnd@@QAEHH@Z  0084eb00 f   mfc100d:mfc100d.dll
 0002:002d2b06       ?GetCount@CComboBox@@QBEHXZ 0084eb06 f   mfc100d:mfc100d.dll
 0002:002d2b0c       ??A?$CSimpleStringT@D$00@ATL@@QBEDH@Z 0084eb0c f   mfc100d:mfc100d.dll
 0002:002d2b12       ?DeleteItem@CTreeCtrl@@QAEHPAU_TREEITEM@@@Z 0084eb12 f   mfc100d:mfc100d.dll
 0002:002d2b18       ?GetNextAssoc@CMapStringToPtr@@QBEXAAPAU__POSITION@@AAV?$CStringT@DV?$StrTraitMFC_DLL@DV?$ChTraitsCRT@D@ATL@@@@@ATL@@AAPAX@Z 0084eb18 f   mfc100d:mfc100d.dll
 0002:002d2b1e       ?GetStartPosition@CMapStringToPtr@@QBEPAU__POSITION@@XZ 0084eb1e f   mfc100d:mfc100d.dll
 0002:002d2b24       ?SetItemState@CTreeCtrl@@QAEHPAU_TREEITEM@@II@Z 0084eb24 f   mfc100d:mfc100d.dll
 0002:002d2b2a       ?InsertItem@CTreeCtrl@@QAEPAU_TREEITEM@@PAUtagTVINSERTSTRUCTA@@@Z 0084eb2a f   mfc100d:mfc100d.dll
 0002:002d2b30       ??BCWnd@@QBEPAUHWND__@@XZ  0084eb30 f   mfc100d:mfc100d.dll
 0002:002d2b36       ?DeleteAllItems@CTreeCtrl@@QAEHXZ 0084eb36 f   mfc100d:mfc100d.dll
 0002:002d2b3c       ?MakeLower@?$CStringT@DV?$StrTraitMFC_DLL@DV?$ChTraitsCRT@D@ATL@@@@@ATL@@QAEAAV12@XZ 0084eb3c f   mfc100d:mfc100d.dll
 0002:002d2b42       ??1CMetaFileDC@@UAE@XZ     0084eb42 f   mfc100d:mfc100d.dll
 0002:002d2b48       ?ReleaseDC@CWnd@@QAEHPAVCDC@@@Z 0084eb48 f   mfc100d:mfc100d.dll
 0002:002d2b4e       ?SetEnhMetaFile@CStatic@@QAEPAUHENHMETAFILE__@@PAU2@@Z 0084eb4e f   mfc100d:mfc100d.dll
 0002:002d2b54       ?GetClientRect@CWnd@@QBEXPAUtagRECT@@@Z 0084eb54 f   mfc100d:mfc100d.dll
 0002:002d2b5a       ?GetDC@CWnd@@QAEPAVCDC@@XZ 0084eb5a f   mfc100d:mfc100d.dll
 0002:002d2b60       ??0CMetaFileDC@@QAE@XZ     0084eb60 f   mfc100d:mfc100d.dll
 0002:002d2b66       ?GetItemText@CTreeCtrl@@QBE?AV?$CStringT@DV?$StrTraitMFC_DLL@DV?$ChTraitsCRT@D@ATL@@@@@ATL@@PAU_TREEITEM@@@Z 0084eb66 f   mfc100d:mfc100d.dll
 0002:002d2b6c       ?GetSelectedItem@CTreeCtrl@@QBEPAU_TREEITEM@@XZ 0084eb6c f   mfc100d:mfc100d.dll
 0002:002d2b72       ?RedrawWindow@CWnd@@QAEHPBUtagRECT@@PAVCRgn@@I@Z 0084eb72 f   mfc100d:mfc100d.dll
 0002:002d2b78       ?GetItemState@CTreeCtrl@@QBEIPAU_TREEITEM@@I@Z 0084eb78 f   mfc100d:mfc100d.dll
 0002:002d2b7e       ?GetNextItem@CTreeCtrl@@QBEPAU_TREEITEM@@PAU2@I@Z 0084eb7e f   mfc100d:mfc100d.dll
 0002:002d2b84       ?BringWindowToTop@CWnd@@QAEXXZ 0084eb84 f   mfc100d:mfc100d.dll
 0002:002d2b8a       ?UpdateWindow@CWnd@@QAEXXZ 0084eb8a f   mfc100d:mfc100d.dll
 0002:002d2b90       ??1CWnd@@UAE@XZ            0084eb90 f   mfc100d:mfc100d.dll
 0002:002d2b96       ??1CStdioFile@@UAE@XZ      0084eb96 f   mfc100d:mfc100d.dll
 0002:002d2b9c       ?Close@CStdioFile@@UAEXXZ  0084eb9c f   mfc100d:mfc100d.dll
 0002:002d2ba2       ?ReadString@CStdioFile@@UAEHAAV?$CStringT@DV?$StrTraitMFC_DLL@DV?$ChTraitsCRT@D@ATL@@@@@ATL@@@Z 0084eba2 f   mfc100d:mfc100d.dll
 0002:002d2ba8       ?Open@CStdioFile@@UAEHPBDIPAVCFileException@@@Z 0084eba8 f   mfc100d:mfc100d.dll
 0002:002d2bae       ??0CStdioFile@@QAE@XZ      0084ebae f   mfc100d:mfc100d.dll
 0002:002d2bb4       ?SelectItem@CTreeCtrl@@QAEHPAU_TREEITEM@@@Z 0084ebb4 f   mfc100d:mfc100d.dll
 0002:002d2bba       ?GetNextVisibleItem@CTreeCtrl@@QBEPAU_TREEITEM@@PAU2@@Z 0084ebba f   mfc100d:mfc100d.dll
 0002:002d2bc0       ?GetFirstVisibleItem@CTreeCtrl@@QBEPAU_TREEITEM@@XZ 0084ebc0 f   mfc100d:mfc100d.dll
 0002:002d2bc6       ?GetVisibleCount@CTreeCtrl@@QBEIXZ 0084ebc6 f   mfc100d:mfc100d.dll
 0002:002d2bcc       ?GetLBText@CComboBox@@QBEXHAAV?$CStringT@DV?$StrTraitMFC_DLL@DV?$ChTraitsCRT@D@ATL@@@@@ATL@@@Z 0084ebcc f   mfc100d:mfc100d.dll
 0002:002d2bd2       ?GetAt@?$CSimpleStringT@D$00@ATL@@QBEDH@Z 0084ebd2 f   mfc100d:mfc100d.dll
 0002:002d2bd8       ?GetSel@CListBox@@QBEHH@Z  0084ebd8 f   mfc100d:mfc100d.dll
 0002:002d2bde       ?GetCount@CListBox@@QBEHXZ 0084ebde f   mfc100d:mfc100d.dll
 0002:002d2be4       ?FindString@CComboBox@@QBEHHPBD@Z 0084ebe4 f   mfc100d:mfc100d.dll
 0002:002d2bea       ??$SerializeElements@V?$CStringT@DV?$StrTraitMFC_DLL@DV?$ChTraitsCRT@D@ATL@@@@@ATL@@@@YGXAAVCArchive@@PAV?$CStringT@DV?$StrTraitMFC_DLL@DV?$ChTraitsCRT@D@ATL@@@@@ATL@@H@Z 0084ebea f   mfc100d:mfc100d.dll
 0002:002d2bf0       ?Find@?$CStringT@DV?$StrTraitMFC_DLL@DV?$ChTraitsCRT@D@ATL@@@@@ATL@@QBEHDH@Z 0084ebf0 f   mfc100d:mfc100d.dll
 0002:002d2bf6       ?DDX_Text@@YGXPAVCDataExchange@@HAAV?$CStringT@DV?$StrTraitMFC_DLL@DV?$ChTraitsCRT@D@ATL@@@@@ATL@@@Z 0084ebf6 f   mfc100d:mfc100d.dll
 0002:002d2bfc       ?PrepareCtrl@CDataExchange@@QAEPAUHWND__@@H@Z 0084ebfc f   mfc100d:mfc100d.dll
 0002:002d2c02       ?SetFocus@CWnd@@QAEPAV1@XZ 0084ec02 f   mfc100d:mfc100d.dll
 0002:002d2c08       ?DDV_MaxChars@@YGXPAVCDataExchange@@ABV?$CStringT@DV?$StrTraitMFC_DLL@DV?$ChTraitsCRT@D@ATL@@@@@ATL@@H@Z 0084ec08 f   mfc100d:mfc100d.dll
 0002:002d2c0e       ?DDX_CBString@@YGXPAVCDataExchange@@HAAV?$CStringT@DV?$StrTraitMFC_DLL@DV?$ChTraitsCRT@D@ATL@@@@@ATL@@@Z 0084ec0e f   mfc100d:mfc100d.dll
 0002:002d2c14       ?DDV_MinMaxUInt@@YGXPAVCDataExchange@@III@Z 0084ec14 f   mfc100d:mfc100d.dll
 0002:002d2c1a       ?DDX_Text@@YGXPAVCDataExchange@@HAAH@Z 0084ec1a f   mfc100d:mfc100d.dll
 0002:002d2c20       ?WriteString@CStdioFile@@UAEXPBD@Z 0084ec20 f   mfc100d:mfc100d.dll
 0002:002d2c26       ?ReverseFind@?$CStringT@DV?$StrTraitMFC_DLL@DV?$ChTraitsCRT@D@ATL@@@@@ATL@@QBEHD@Z 0084ec26 f   mfc100d:mfc100d.dll
 0002:002d2c2c       ?DeleteString@CComboBox@@QAEHI@Z 0084ec2c f   mfc100d:mfc100d.dll
 0002:002d2c32       ?FindStringExact@CComboBox@@QBEHHPBD@Z 0084ec32 f   mfc100d:mfc100d.dll
 0002:002d2c38       ??Y?$CStringT@DV?$StrTraitMFC_DLL@DV?$ChTraitsCRT@D@ATL@@@@@ATL@@QAEAAV01@ABV?$CSimpleStringT@D$00@1@@Z 0084ec38 f   mfc100d:mfc100d.dll
 0002:002d2c3e       ?GetText@CListBox@@QBEXHAAV?$CStringT@DV?$StrTraitMFC_DLL@DV?$ChTraitsCRT@D@ATL@@@@@ATL@@@Z 0084ec3e f   mfc100d:mfc100d.dll
 0002:002d2c44       ?GetState@CButton@@QBEIXZ  0084ec44 f   mfc100d:mfc100d.dll
 0002:002d2c4a       ?DeleteString@CListBox@@QAEHI@Z 0084ec4a f   mfc100d:mfc100d.dll
 0002:002d2c50       ?GetSelItems@CListBox@@QBEHHPAH@Z 0084ec50 f   mfc100d:mfc100d.dll
 0002:002d2c56       ?GetSelCount@CListBox@@QBEHXZ 0084ec56 f   mfc100d:mfc100d.dll
 0002:002d2c5c       ?SetButtonStyle@CButton@@QAEXIH@Z 0084ec5c f   mfc100d:mfc100d.dll
 0002:002d2c62       ?AddString@CListBox@@QAEHPBD@Z 0084ec62 f   mfc100d:mfc100d.dll
 0002:002d2c68       ?FindStringExact@CListBox@@QBEHHPBD@Z 0084ec68 f   mfc100d:mfc100d.dll
 0002:002d2c6e       ?SetSel@CListBox@@QAEHHH@Z 0084ec6e f   mfc100d:mfc100d.dll
 0002:002d2c74       ?FindString@CListBox@@QBEHHPBD@Z 0084ec74 f   mfc100d:mfc100d.dll
 0002:002d2c7a       ?GetFocus@CWnd@@SGPAV1@XZ  0084ec7a f   mfc100d:mfc100d.dll
 0002:002d2c80       ?GetSafeHwnd@CWnd@@QBEPAUHWND__@@XZ 0084ec80 f   mfc100d:mfc100d.dll
 0002:002d2c86       ?DDX_CBIndex@@YGXPAVCDataExchange@@HAAH@Z 0084ec86 f   mfc100d:mfc100d.dll
 0002:002d2c8c       ??1CListCtrl@@UAE@XZ       0084ec8c f   mfc100d:mfc100d.dll
 0002:002d2c92       ??0CListCtrl@@QAE@XZ       0084ec92 f   mfc100d:mfc100d.dll
 0002:002d2c98       ?GetItemData@CListCtrl@@QBEKH@Z 0084ec98 f   mfc100d:mfc100d.dll
 0002:002d2c9e       ?GetItemCount@CListCtrl@@QBEHXZ 0084ec9e f   mfc100d:mfc100d.dll
 0002:002d2ca4       ?MoveWindow@CWnd@@QAEXHHHHH@Z 0084eca4 f   mfc100d:mfc100d.dll
 0002:002d2caa       ?GetWindowRect@CWnd@@QBEXPAUtagRECT@@@Z 0084ecaa f   mfc100d:mfc100d.dll
 0002:002d2cb0       ?SetItem@CListCtrl@@QAEHHHIPBDHIIJ@Z 0084ecb0 f   mfc100d:mfc100d.dll
 0002:002d2cb6       ?SetItemData@CListCtrl@@QAEHHK@Z 0084ecb6 f   mfc100d:mfc100d.dll
 0002:002d2cbc       ?InsertItem@CListCtrl@@QAEHHPBD@Z 0084ecbc f   mfc100d:mfc100d.dll
 0002:002d2cc2       ?InsertColumn@CListCtrl@@QAEHHPBDHHH@Z 0084ecc2 f   mfc100d:mfc100d.dll
 0002:002d2cc8       ?SetExtendedStyle@CListCtrl@@QAEKK@Z 0084ecc8 f   mfc100d:mfc100d.dll
 0002:002d2cce       ?GetExtendedStyle@CListCtrl@@QBEKXZ 0084ecce f   mfc100d:mfc100d.dll
 0002:002d2cd4       ?DDX_Text@@YGXPAVCDataExchange@@HAAN@Z 0084ecd4 f   mfc100d:mfc100d.dll
 0002:002d2cda       ?SortItems@CListCtrl@@QAEHP6GHJJJ@ZK@Z 0084ecda f   mfc100d:mfc100d.dll
 0002:002d2ce0       ?DDX_Check@@YGXPAVCDataExchange@@HAAH@Z 0084ece0 f   mfc100d:mfc100d.dll
 0002:002d2ce6       ?Append@?$CSimpleStringT@D$00@ATL@@QAEXPBD@Z 0084ece6 f   mfc100d:mfc100d.dll
 0002:002d2cec       ?LoadIconA@CWinApp@@QBEPAUHICON__@@I@Z 0084ecec f   mfc100d:mfc100d.dll
 0002:002d2cf2       ?AfxGetApp@@YGPAVCWinApp@@XZ 0084ecf2 f   mfc100d:mfc100d.dll
 0002:002d2cf8       ?GetRuntimeClass@CDialog@@UBEPAUCRuntimeClass@@XZ 0084ecf8 f   mfc100d:mfc100d.dll
 0002:002d2cfe       ?OnSysCommand@CWnd@@IAEXIJ@Z 0084ecfe f   mfc100d:mfc100d.dll
 0002:002d2d04       ?OnPaint@CDialog@@IAEXXZ   0084ed04 f   mfc100d:mfc100d.dll
 0002:002d2d0a       ??1CPaintDC@@UAE@XZ        0084ed0a f   mfc100d:mfc100d.dll
 0002:002d2d10       ?DrawIcon@CDC@@QAEHHHPAUHICON__@@@Z 0084ed10 f   mfc100d:mfc100d.dll
 0002:002d2d16       ?SendMessageA@CWnd@@QBEJIIJ@Z 0084ed16 f   mfc100d:mfc100d.dll
 0002:002d2d1c       ??0CPaintDC@@QAE@PAVCWnd@@@Z 0084ed1c f   mfc100d:mfc100d.dll
 0002:002d2d22       ?IsIconic@CWnd@@QBEHXZ     0084ed22 f   mfc100d:mfc100d.dll
 0002:002d2d28       ??0CBrush@@QAE@XZ          0084ed28 f   mfc100d:mfc100d.dll
 0002:002d2d2e       ?GetDlgItem@CWnd@@QBEPAV1@H@Z 0084ed2e f   mfc100d:mfc100d.dll
 0002:002d2d34       ??BCBrush@@QBEPAUHBRUSH__@@XZ 0084ed34 f   mfc100d:mfc100d.dll
 0002:002d2d3a       ?CreateSolidBrush@CBrush@@QAEHK@Z 0084ed3a f   mfc100d:mfc100d.dll
 0002:002d2d40       ?SetBkMode@CDC@@QAEHH@Z    0084ed40 f   mfc100d:mfc100d.dll
 0002:002d2d46       ?GetDlgCtrlID@CWnd@@QBEHXZ 0084ed46 f   mfc100d:mfc100d.dll
 0002:002d2d4c       ?OnCtlColor@CWnd@@IAEPAUHBRUSH__@@PAVCDC@@PAV1@I@Z 0084ed4c f   mfc100d:mfc100d.dll
 0002:002d2d52       ?Invalidate@CWnd@@QAEXH@Z  0084ed52 f   mfc100d:mfc100d.dll
 0002:002d2d58       ?GetColor@CColorDialog@@QBEKXZ 0084ed58 f   mfc100d:mfc100d.dll
 0002:002d2d5e       ?DoModal@CColorDialog@@UAEHXZ 0084ed5e f   mfc100d:mfc100d.dll
 0002:002d2d64       ??0CColorDialog@@QAE@KKPAVCWnd@@@Z 0084ed64 f   mfc100d:mfc100d.dll
 0002:002d2d6a       ?GetRuntimeClass@CCommonDialog@@UBEPAUCRuntimeClass@@XZ 0084ed6a f   mfc100d:mfc100d.dll
 0002:002d2d70       ?GetMessageMap@CCommonDialog@@MBEPBUAFX_MSGMAP@@XZ 0084ed70 f   mfc100d:mfc100d.dll
 0002:002d2d76       ?OnOK@CCommonDialog@@MAEXXZ 0084ed76 f   mfc100d:mfc100d.dll
 0002:002d2d7c       ?OnCancel@CCommonDialog@@MAEXXZ 0084ed7c f   mfc100d:mfc100d.dll
 0002:002d2d82       ?LimitText@CEdit@@QAEXH@Z  0084ed82 f   mfc100d:mfc100d.dll
 0002:002d2d88       ?MoveWindow@CWnd@@QAEXPBUtagRECT@@H@Z 0084ed88 f   mfc100d:mfc100d.dll
 0002:002d2d8e       ?OnSetCursor@CWnd@@IAEHPAV1@II@Z 0084ed8e f   mfc100d:mfc100d.dll
 0002:002d2d94       ?SetItemState@CListCtrl@@QAEHHII@Z 0084ed94 f   mfc100d:mfc100d.dll
 0002:002d2d9a       ?DeleteAllItems@CListCtrl@@QAEHXZ 0084ed9a f   mfc100d:mfc100d.dll
 0002:002d2da0       ?GetItemText@CListCtrl@@QBEHHHPADH@Z 0084eda0 f   mfc100d:mfc100d.dll
 0002:002d2da6       ?GetNextSelectedItem@CListCtrl@@QBEHAAPAU__POSITION@@@Z 0084eda6 f   mfc100d:mfc100d.dll
 0002:002d2dac       ?GetFirstSelectedItemPosition@CListCtrl@@QBEPAU__POSITION@@XZ 0084edac f   mfc100d:mfc100d.dll
 0002:002d2db2       ?GetSelectedCount@CListCtrl@@QBEIXZ 0084edb2 f   mfc100d:mfc100d.dll
 0002:002d2db8       ?DeleteItem@CListCtrl@@QAEHH@Z 0084edb8 f   mfc100d:mfc100d.dll
 0002:002d2dbe       ?GetItemState@CListCtrl@@QBEIHI@Z 0084edbe f   mfc100d:mfc100d.dll
 0002:002d2dc4       ?DDV_MinMaxInt@@YGXPAVCDataExchange@@HHH@Z 0084edc4 f   mfc100d:mfc100d.dll
 0002:002d2dca       ?Truncate@?$CSimpleStringT@D$00@ATL@@QAEXH@Z 0084edca f   mfc100d:mfc100d.dll
 0002:002d2dd0       ??1CFileFind@@UAE@XZ       0084edd0 f   mfc100d:mfc100d.dll
 0002:002d2dd6       ?GetFileName@CFileFind@@UBE?AV?$CStringT@DV?$StrTraitMFC_DLL@DV?$ChTraitsCRT@D@ATL@@@@@ATL@@XZ 0084edd6 f   mfc100d:mfc100d.dll
 0002:002d2ddc       ?IsDots@CFileFind@@UBEHXZ  0084eddc f   mfc100d:mfc100d.dll
 0002:002d2de2       ?IsDirectory@CFileFind@@QBEHXZ 0084ede2 f   mfc100d:mfc100d.dll
 0002:002d2de8       ?FindNextFileA@CFileFind@@UAEHXZ 0084ede8 f   mfc100d:mfc100d.dll
 0002:002d2dee       ?FindFile@CFileFind@@UAEHPBDK@Z 0084edee f   mfc100d:mfc100d.dll
 0002:002d2df4       ??0CFileFind@@QAE@XZ       0084edf4 f   mfc100d:mfc100d.dll
 0002:002d2dfa       ?DDX_Radio@@YGXPAVCDataExchange@@HAAH@Z 0084edfa f   mfc100d:mfc100d.dll
 0002:002d2e00       ?CompareNoCase@?$CStringT@DV?$StrTraitMFC_DLL@DV?$ChTraitsCRT@D@ATL@@@@@ATL@@QBEHPBD@Z 0084ee00 f   mfc100d:mfc100d.dll
 0002:002d2e06       ?TrimRight@?$CStringT@DV?$StrTraitMFC_DLL@DV?$ChTraitsCRT@D@ATL@@@@@ATL@@QAEAAV12@XZ 0084ee06 f   mfc100d:mfc100d.dll
 0002:002d2e0c       ?FreeDataChain@CPlex@@QAEXXZ 0084ee0c f   mfc100d:mfc100d.dll
 0002:002d2e12       ?Create@CPlex@@SGPAU1@AAPAU1@II@Z 0084ee12 f   mfc100d:mfc100d.dll
 0002:002d2e18       ??3CObject@@SGXPAXPBDH@Z   0084ee18 f   mfc100d:mfc100d.dll
 0002:002d2e1e       ??0CStdioFile@@QAE@PBDI@Z  0084ee1e f   mfc100d:mfc100d.dll
 0002:002d2e24       ??2CObject@@SGPAXIPBDH@Z   0084ee24 f   mfc100d:mfc100d.dll
 0002:002d2e2a       ?Replace@?$CStringT@DV?$StrTraitMFC_DLL@DV?$ChTraitsCRT@D@ATL@@@@@ATL@@QAEHDD@Z 0084ee2a f   mfc100d:mfc100d.dll
 0002:002d2e30       ??0CMapStringToPtr@@QAE@H@Z 0084ee30 f   mfc100d:mfc100d.dll
 0002:002d2e36       ??1CMapStringToPtr@@UAE@XZ 0084ee36 f   mfc100d:mfc100d.dll
 0002:002d2e3c       ?SetItemData@CListBox@@QAEHHK@Z 0084ee3c f   mfc100d:mfc100d.dll
 0002:002d2e42       ?GetItemData@CListBox@@QBEKH@Z 0084ee42 f   mfc100d:mfc100d.dll
 0002:002d2e48       ?SetBitmap@CStatic@@QAEPAUHBITMAP__@@PAU2@@Z 0084ee48 f   mfc100d:mfc100d.dll
 0002:002d2e4e       ??BCBitmap@@QBEPAUHBITMAP__@@XZ 0084ee4e f   mfc100d:mfc100d.dll
 0002:002d2e54       ?LoadBitmapA@CBitmap@@QAEHI@Z 0084ee54 f   mfc100d:mfc100d.dll
 0002:002d2e5a       ?Mid@?$CStringT@DV?$StrTraitMFC_DLL@DV?$ChTraitsCRT@D@ATL@@@@@ATL@@QBE?AV12@HH@Z 0084ee5a f   mfc100d:mfc100d.dll
 0002:002d2e60       ?AppendChar@?$CSimpleStringT@D$00@ATL@@QAEXD@Z 0084ee60 f   mfc100d:mfc100d.dll
 0002:002d2e66       ?GetPosition@CStdioFile@@UBE_KXZ 0084ee66 f   mfc100d:mfc100d.dll
 0002:002d2e6c       ?RemoveKey@CMapStringToPtr@@QAEHPBD@Z 0084ee6c f   mfc100d:mfc100d.dll
 0002:002d2e72       ?Close@CFileFind@@QAEXXZ   0084ee72 f   mfc100d:mfc100d.dll
 0002:002d2e78       ?RemoveAll@CMapStringToPtr@@QAEXXZ 0084ee78 f   mfc100d:mfc100d.dll
 0002:002d2e7e       ?GetThisMessageMap@CView@@KGPBUAFX_MSGMAP@@XZ 0084ee7e f   mfc100d:mfc100d.dll
 0002:002d2e84       ?GetThisClass@CView@@SGPAUCRuntimeClass@@XZ 0084ee84 f   mfc100d:mfc100d.dll
 0002:002d2e8a       ??1CRgn@@UAE@XZ            0084ee8a f   mfc100d:mfc100d.dll
 0002:002d2e90       ??1CView@@UAE@XZ           0084ee90 f   mfc100d:mfc100d.dll
 0002:002d2e96       ??0CRgn@@QAE@XZ            0084ee96 f   mfc100d:mfc100d.dll
 0002:002d2e9c       ??0CView@@IAE@XZ           0084ee9c f   mfc100d:mfc100d.dll
 0002:002d2ea2       ?OnCmdMsg@CView@@UAEHIHPAXPAUAFX_CMDHANDLERINFO@@@Z 0084eea2 f   mfc100d:mfc100d.dll
 0002:002d2ea8       ?CalcWindowRect@CView@@UAEXPAUtagRECT@@I@Z 0084eea8 f   mfc100d:mfc100d.dll
 0002:002d2eae       ?GetScrollBarCtrl@CView@@UBEPAVCScrollBar@@H@Z 0084eeae f   mfc100d:mfc100d.dll
 0002:002d2eb4       ?PreTranslateMessage@CWnd@@UAEHPAUtagMSG@@@Z 0084eeb4 f   mfc100d:mfc100d.dll
 0002:002d2eba       ?PostNcDestroy@CView@@MAEXXZ 0084eeba f   mfc100d:mfc100d.dll
 0002:002d2ec0       ?CheckAutoCenter@CWnd@@UAEHXZ 0084eec0 f   mfc100d:mfc100d.dll
 0002:002d2ec6       ?SetOccDialogInfo@CWnd@@MAEHPAU_AFX_OCC_DIALOG_INFO@@@Z 0084eec6 f   mfc100d:mfc100d.dll
 0002:002d2ecc       ?GetOccDialogInfo@CWnd@@MAEPAU_AFX_OCC_DIALOG_INFO@@XZ 0084eecc f   mfc100d:mfc100d.dll
 0002:002d2ed2       ?IsSelected@CView@@UBEHPBVCObject@@@Z 0084eed2 f   mfc100d:mfc100d.dll
 0002:002d2ed8       ?OnScroll@CView@@UAEHIIH@Z 0084eed8 f   mfc100d:mfc100d.dll
 0002:002d2ede       ?OnScrollBy@CView@@UAEHVCSize@@H@Z 0084eede f   mfc100d:mfc100d.dll
 0002:002d2ee4       ?OnDragEnter@CView@@UAEKPAVCOleDataObject@@KVCPoint@@@Z 0084eee4 f   mfc100d:mfc100d.dll
 0002:002d2eea       ?OnDragOver@CView@@UAEKPAVCOleDataObject@@KVCPoint@@@Z 0084eeea f   mfc100d:mfc100d.dll
 0002:002d2ef0       ?OnDragLeave@CView@@UAEXXZ 0084eef0 f   mfc100d:mfc100d.dll
 0002:002d2ef6       ?OnDrop@CView@@UAEHPAVCOleDataObject@@KVCPoint@@@Z 0084eef6 f   mfc100d:mfc100d.dll
 0002:002d2efc       ?OnDropEx@CView@@UAEKPAVCOleDataObject@@KKVCPoint@@@Z 0084eefc f   mfc100d:mfc100d.dll
 0002:002d2f02       ?OnDragScroll@CView@@UAEKKVCPoint@@@Z 0084ef02 f   mfc100d:mfc100d.dll
 0002:002d2f08       ?OnPrepareDC@CView@@UAEXPAVCDC@@PAUCPrintInfo@@@Z 0084ef08 f   mfc100d:mfc100d.dll
 0002:002d2f0e       ?OnInitialUpdate@CView@@UAEXXZ 0084ef0e f   mfc100d:mfc100d.dll
 0002:002d2f14       ?OnActivateView@CView@@MAEXHPAV1@0@Z 0084ef14 f   mfc100d:mfc100d.dll
 0002:002d2f1a       ?OnActivateFrame@CView@@MAEXIPAVCFrameWnd@@@Z 0084ef1a f   mfc100d:mfc100d.dll
 0002:002d2f20       ?OnUpdate@CView@@MAEXPAV1@JPAVCObject@@@Z 0084ef20 f   mfc100d:mfc100d.dll
 0002:002d2f26       ?OnPrint@CView@@MAEXPAVCDC@@PAUCPrintInfo@@@Z 0084ef26 f   mfc100d:mfc100d.dll
 0002:002d2f2c       ?OnEndPrintPreview@CView@@MAEXPAVCDC@@PAUCPrintInfo@@UtagPOINT@@PAVCPreviewView@@@Z 0084ef2c f   mfc100d:mfc100d.dll
 0002:002d2f32       ?PreCreateWindow@CView@@MAEHAAUtagCREATESTRUCTA@@@Z 0084ef32 f   mfc100d:mfc100d.dll
 0002:002d2f38       ?SelectClipRgn@CDC@@QAEHPAVCRgn@@@Z 0084ef38 f   mfc100d:mfc100d.dll
 0002:002d2f3e       ?FillSolidRect@CDC@@QAEXPBUtagRECT@@K@Z 0084ef3e f   mfc100d:mfc100d.dll
 0002:002d2f44       ?DoPreparePrinting@CView@@QAEHPAUCPrintInfo@@@Z 0084ef44 f   mfc100d:mfc100d.dll
 0002:002d2f4a       ?AssertValid@CView@@UBEXXZ 0084ef4a f   mfc100d:mfc100d.dll
 0002:002d2f50       ?Dump@CView@@UBEXAAVCDumpContext@@@Z 0084ef50 f   mfc100d:mfc100d.dll
 0002:002d2f56       ?IsKindOf@CObject@@QBEHPBUCRuntimeClass@@@Z 0084ef56 f   mfc100d:mfc100d.dll
 0002:002d2f5c       ?CreateCompatibleBitmap@CBitmap@@QAEHPAVCDC@@HH@Z 0084ef5c f   mfc100d:mfc100d.dll
 0002:002d2f62       ?CreateRectRgn@CRgn@@QAEHHHHH@Z 0084ef62 f   mfc100d:mfc100d.dll
 0002:002d2f68       ?OnSize@CWnd@@IAEXIHH@Z    0084ef68 f   mfc100d:mfc100d.dll
 0002:002d2f6e       ?OnLButtonUp@CWnd@@IAEXIVCPoint@@@Z 0084ef6e f   mfc100d:mfc100d.dll
 0002:002d2f74       ?OnLButtonDown@CWnd@@IAEXIVCPoint@@@Z 0084ef74 f   mfc100d:mfc100d.dll
 0002:002d2f7a       ?OnLButtonDblClk@CWnd@@IAEXIVCPoint@@@Z 0084ef7a f   mfc100d:mfc100d.dll
 0002:002d2f80       ?OnRButtonDown@CWnd@@IAEXIVCPoint@@@Z 0084ef80 f   mfc100d:mfc100d.dll
 0002:002d2f86       ?OnSysKeyDown@CWnd@@IAEXIII@Z 0084ef86 f   mfc100d:mfc100d.dll
 0002:002d2f8c       ?OnSysKeyUp@CWnd@@IAEXIII@Z 0084ef8c f   mfc100d:mfc100d.dll
 0002:002d2f92       ?OnKeyDown@CWnd@@IAEXIII@Z 0084ef92 f   mfc100d:mfc100d.dll
 0002:002d2f98       ?DrawDragRect@CDC@@QAEXPBUtagRECT@@UtagSIZE@@01PAVCBrush@@2@Z 0084ef98 f   mfc100d:mfc100d.dll
 0002:002d2f9e       ?OnMouseWheel@CWnd@@IAEHIFVCPoint@@@Z 0084ef9e f   mfc100d:mfc100d.dll
 0002:002d2fa4       ??1CMenu@@UAE@XZ           0084efa4 f   mfc100d:mfc100d.dll
 0002:002d2faa       ?EnableMenuItem@CMenu@@QAEIII@Z 0084efaa f   mfc100d:mfc100d.dll
 0002:002d2fb0       ?TrackPopupMenu@CMenu@@QAEHIHHPAVCWnd@@PBUtagRECT@@@Z 0084efb0 f   mfc100d:mfc100d.dll
 0002:002d2fb6       ?GetSubMenu@CMenu@@QBEPAV1@H@Z 0084efb6 f   mfc100d:mfc100d.dll
 0002:002d2fbc       ?LoadMenuA@CMenu@@QAEHI@Z  0084efbc f   mfc100d:mfc100d.dll
 0002:002d2fc2       ??0CMenu@@QAE@XZ           0084efc2 f   mfc100d:mfc100d.dll
 0002:002d2fc8       ?DrawMenuBar@CWnd@@QAEXXZ  0084efc8 f   mfc100d:mfc100d.dll
 0002:002d2fce       ?SetForegroundWindow@CWnd@@QAEHXZ 0084efce f   mfc100d:mfc100d.dll
 0002:002d2fd4       ?SetWindowPlacement@CWnd@@QAEHPBUtagWINDOWPLACEMENT@@@Z 0084efd4 f   mfc100d:mfc100d.dll
 0002:002d2fda       ?GetWindowPlacement@CWnd@@QBEHPAUtagWINDOWPLACEMENT@@@Z 0084efda f   mfc100d:mfc100d.dll
 0002:002d2fe0       ?FindWindowA@CWnd@@SGPAV1@PBD0@Z 0084efe0 f   mfc100d:mfc100d.dll
 0002:002d2fe6       ?GetThisMessageMap@CWinApp@@KGPBUAFX_MSGMAP@@XZ 0084efe6 f   mfc100d:mfc100d.dll
 0002:002d2fec       ?OnFilePrintSetup@CWinApp@@IAEXXZ 0084efec f   mfc100d:mfc100d.dll
 0002:002d2ff2       ?OnFileOpen@CWinApp@@IAEXXZ 0084eff2 f   mfc100d:mfc100d.dll
 0002:002d2ff8       ?OnFileNew@CWinApp@@IAEXXZ 0084eff8 f   mfc100d:mfc100d.dll
 0002:002d2ffe       ??1CWinApp@@UAE@XZ         0084effe f   mfc100d:mfc100d.dll
 0002:002d3004       ??0CWinApp@@QAE@PBD@Z      0084f004 f   mfc100d:mfc100d.dll
 0002:002d300a       ?GetRuntimeClass@CWinApp@@UBEPAUCRuntimeClass@@XZ 0084f00a f   mfc100d:mfc100d.dll
 0002:002d3010       ?AssertValid@CWinApp@@UBEXXZ 0084f010 f   mfc100d:mfc100d.dll
 0002:002d3016       ?Dump@CWinApp@@UBEXAAVCDumpContext@@@Z 0084f016 f   mfc100d:mfc100d.dll
 0002:002d301c       ?OnCmdMsg@CCmdTarget@@UAEHIHPAXPAUAFX_CMDHANDLERINFO@@@Z 0084f01c f   mfc100d:mfc100d.dll
 0002:002d3022       ?OnFinalRelease@CCmdTarget@@UAEXXZ 0084f022 f   mfc100d:mfc100d.dll
 0002:002d3028       ?GetInterfaceMap@CCmdTarget@@MBEPBUAFX_INTERFACEMAP@@XZ 0084f028 f   mfc100d:mfc100d.dll
 0002:002d302e       ?Run@CWinApp@@UAEHXZ       0084f02e f   mfc100d:mfc100d.dll
 0002:002d3034       ?PreTranslateMessage@CWinThread@@UAEHPAUtagMSG@@@Z 0084f034 f   mfc100d:mfc100d.dll
 0002:002d303a       ?PumpMessage@CWinThread@@UAEHXZ 0084f03a f   mfc100d:mfc100d.dll
 0002:002d3040       ?OnIdle@CWinApp@@UAEHJ@Z   0084f040 f   mfc100d:mfc100d.dll
 0002:002d3046       ?IsIdleMessage@CWinThread@@UAEHPAUtagMSG@@@Z 0084f046 f   mfc100d:mfc100d.dll
 0002:002d304c       ?ProcessWndProcException@CWinApp@@UAEJPAVCException@@PBUtagMSG@@@Z 0084f04c f   mfc100d:mfc100d.dll
 0002:002d3052       ?ProcessMessageFilter@CWinThread@@UAEHHPAUtagMSG@@@Z 0084f052 f   mfc100d:mfc100d.dll
 0002:002d3058       ?GetMainWnd@CWinThread@@UAEPAVCWnd@@XZ 0084f058 f   mfc100d:mfc100d.dll
 0002:002d305e       ?Delete@CWinThread@@UAEXXZ 0084f05e f   mfc100d:mfc100d.dll
 0002:002d3064       ?GetProfileIntA@CWinApp@@UAEIPBD0H@Z 0084f064 f   mfc100d:mfc100d.dll
 0002:002d306a       ?WriteProfileInt@CWinApp@@UAEHPBD0H@Z 0084f06a f   mfc100d:mfc100d.dll
 0002:002d3070       ?GetProfileStringA@CWinApp@@UAE?AV?$CStringT@DV?$StrTraitMFC_DLL@DV?$ChTraitsCRT@D@ATL@@@@@ATL@@PBD00@Z 0084f070 f   mfc100d:mfc100d.dll
 0002:002d3076       ?WriteProfileStringA@CWinApp@@UAEHPBD00@Z 0084f076 f   mfc100d:mfc100d.dll
 0002:002d307c       ?GetProfileBinary@CWinApp@@UAEHPBD0PAPAEPAI@Z 0084f07c f   mfc100d:mfc100d.dll
 0002:002d3082       ?WriteProfileBinary@CWinApp@@UAEHPBD0PAEI@Z 0084f082 f   mfc100d:mfc100d.dll
 0002:002d3088       ?InitLibId@CWinApp@@UAEXXZ 0084f088 f   mfc100d:mfc100d.dll
 0002:002d308e       ?Register@CWinApp@@UAEHXZ  0084f08e f   mfc100d:mfc100d.dll
 0002:002d3094       ?Unregister@CWinApp@@UAEHXZ 0084f094 f   mfc100d:mfc100d.dll
 0002:002d309a       ?OpenDocumentFile@CWinApp@@UAEPAVCDocument@@PBDH@Z 0084f09a f   mfc100d:mfc100d.dll
 0002:002d30a0       ?OpenDocumentFile@CWinApp@@UAEPAVCDocument@@PBD@Z 0084f0a0 f   mfc100d:mfc100d.dll
 0002:002d30a6       ?AddToRecentFileList@CWinApp@@UAEXPBD@Z 0084f0a6 f   mfc100d:mfc100d.dll
 0002:002d30ac       ?InitApplication@CWinApp@@UAEHXZ 0084f0ac f   mfc100d:mfc100d.dll
 0002:002d30b2       ?SaveAllModified@CWinApp@@UAEHXZ 0084f0b2 f   mfc100d:mfc100d.dll
 0002:002d30b8       ?DoWaitCursor@CWinApp@@UAEXH@Z 0084f0b8 f   mfc100d:mfc100d.dll
 0002:002d30be       ?OnDDECommand@CWinApp@@UAEHPAD@Z 0084f0be f   mfc100d:mfc100d.dll
 0002:002d30c4       ?WinHelpA@CWinApp@@UAEXKI@Z 0084f0c4 f   mfc100d:mfc100d.dll
 0002:002d30ca       ?HtmlHelpA@CWinApp@@UAEXKI@Z 0084f0ca f   mfc100d:mfc100d.dll
 0002:002d30d0       ?WinHelpInternal@CWinApp@@UAEXKI@Z 0084f0d0 f   mfc100d:mfc100d.dll
 0002:002d30d6       ?RegisterWithRestartManager@CWinApp@@UAEJPB_WKP6GKPAX@Z1KK@Z 0084f0d6 f   mfc100d:mfc100d.dll
 0002:002d30dc       ?RegisterWithRestartManager@CWinApp@@UAEJHABV?$CStringT@DV?$StrTraitMFC_DLL@DV?$ChTraitsCRT@D@ATL@@@@@ATL@@@Z 0084f0dc f   mfc100d:mfc100d.dll
 0002:002d30e2       ?ApplicationRecoveryCallback@CWinApp@@UAEKPAX@Z 0084f0e2 f   mfc100d:mfc100d.dll
 0002:002d30e8       ?GetDataRecoveryHandler@CWinApp@@UAEPAVCDataRecoveryHandler@@XZ 0084f0e8 f   mfc100d:mfc100d.dll
 0002:002d30ee       ?IsTaskbarInteractionEnabled@CWinApp@@UAEHXZ 0084f0ee f   mfc100d:mfc100d.dll
 0002:002d30f4       ?RestartInstance@CWinApp@@UAEHXZ 0084f0f4 f   mfc100d:mfc100d.dll
 0002:002d30fa       ?LoadAppLangResourceDLL@CWinApp@@UAEPAUHINSTANCE__@@XZ 0084f0fa f   mfc100d:mfc100d.dll
 0002:002d3100       ?LoadSysPolicies@CWinApp@@UAEHXZ 0084f100 f   mfc100d:mfc100d.dll
 0002:002d3106       ?GetActiveView@CFrameWnd@@QBEPAVCView@@XZ 0084f106 f   mfc100d:mfc100d.dll
 0002:002d310c       ??1CCommandLineInfo@@UAE@XZ 0084f10c f   mfc100d:mfc100d.dll
 0002:002d3112       ?ProcessShellCommand@CWinApp@@QAEHAAVCCommandLineInfo@@@Z 0084f112 f   mfc100d:mfc100d.dll
 0002:002d3118       ?ParseCommandLine@CWinApp@@QAEXAAVCCommandLineInfo@@@Z 0084f118 f   mfc100d:mfc100d.dll
 0002:002d311e       ??0CCommandLineInfo@@QAE@XZ 0084f11e f   mfc100d:mfc100d.dll
 0002:002d3124       ?AddDocTemplate@CWinApp@@QAEXPAVCDocTemplate@@@Z 0084f124 f   mfc100d:mfc100d.dll
 0002:002d312a       ??0CSingleDocTemplate@@QAE@IPAUCRuntimeClass@@00@Z 0084f12a f   mfc100d:mfc100d.dll
 0002:002d3130       ?EnableShellOpen@CWinApp@@IAEXXZ 0084f130 f   mfc100d:mfc100d.dll
 0002:002d3136       ?LoadStdProfileSettings@CWinApp@@IAEXI@Z 0084f136 f   mfc100d:mfc100d.dll
 0002:002d313c       ?SetRegistryKey@CWinApp@@IAEXPBD@Z 0084f13c f   mfc100d:mfc100d.dll
 0002:002d3142       ?Enable3dControls@CWinApp@@IAEHXZ 0084f142 f   mfc100d:mfc100d.dll
 0002:002d3148       ?AfxEnableControlContainer@@YAXPAVCOccManager@@@Z 0084f148 f   mfc100d:mfc100d.dll
 0002:002d314e       ?SetActiveView@CFrameWnd@@QAEXPAVCView@@H@Z 0084f14e f   mfc100d:mfc100d.dll
 0002:002d3154       ?AfxStaticDownCast@@YAPAVCObject@@PAUCRuntimeClass@@PAV1@@Z 0084f154 f   mfc100d:mfc100d.dll
 0002:002d315a       ?CreateView@CFrameWnd@@QAEPAVCWnd@@PAUCCreateContext@@I@Z 0084f15a f   mfc100d:mfc100d.dll
 0002:002d3160       ??0CCreateContext@@QAE@XZ  0084f160 f   mfc100d:mfc100d.dll
 0002:002d3166       ?ExitInstance@CWinApp@@UAEHXZ 0084f166 f   mfc100d:mfc100d.dll
 0002:002d316c       ?OnOpenRecentFile@CWinApp@@IAEHI@Z 0084f16c f   mfc100d:mfc100d.dll
 0002:002d3172       ?DoMessageBox@CWinApp@@UAEHPBDII@Z 0084f172 f   mfc100d:mfc100d.dll
 0002:002d3178       ?GetThisMessageMap@CDocument@@KGPBUAFX_MSGMAP@@XZ 0084f178 f   mfc100d:mfc100d.dll
 0002:002d317e       ?GetThisClass@CDocument@@SGPAUCRuntimeClass@@XZ 0084f17e f   mfc100d:mfc100d.dll
 0002:002d3184       ??1CDocument@@UAE@XZ       0084f184 f   mfc100d:mfc100d.dll
 0002:002d318a       ??0CDocument@@QAE@XZ       0084f18a f   mfc100d:mfc100d.dll
 0002:002d3190       ?OnCmdMsg@CDocument@@UAEHIHPAXPAUAFX_CMDHANDLERINFO@@@Z 0084f190 f   mfc100d:mfc100d.dll
 0002:002d3196       ?OnFinalRelease@CDocument@@UAEXXZ 0084f196 f   mfc100d:mfc100d.dll
 0002:002d319c       ?SetTitle@CDocument@@UAEXPBD@Z 0084f19c f   mfc100d:mfc100d.dll
 0002:002d31a2       ?SetPathName@CDocument@@UAEXPBDH@Z 0084f1a2 f   mfc100d:mfc100d.dll
 0002:002d31a8       ?ClearPathName@CDocument@@UAEXXZ 0084f1a8 f   mfc100d:mfc100d.dll
 0002:002d31ae       ?IsModified@CDocument@@UAEHXZ 0084f1ae f   mfc100d:mfc100d.dll
 0002:002d31b4       ?SetModifiedFlag@CDocument@@UAEXH@Z 0084f1b4 f   mfc100d:mfc100d.dll
 0002:002d31ba       ?GetFirstViewPosition@CDocument@@UBEPAU__POSITION@@XZ 0084f1ba f   mfc100d:mfc100d.dll
 0002:002d31c0       ?GetNextView@CDocument@@UBEPAVCView@@AAPAU__POSITION@@@Z 0084f1c0 f   mfc100d:mfc100d.dll
 0002:002d31c6       ?OnChangedViewList@CDocument@@UAEXXZ 0084f1c6 f   mfc100d:mfc100d.dll
 0002:002d31cc       ?DeleteContents@CDocument@@UAEXXZ 0084f1cc f   mfc100d:mfc100d.dll
 0002:002d31d2       ?OnOpenDocument@CDocument@@UAEHPBD@Z 0084f1d2 f   mfc100d:mfc100d.dll
 0002:002d31d8       ?OnCloseDocument@CDocument@@UAEXXZ 0084f1d8 f   mfc100d:mfc100d.dll
 0002:002d31de       ?ReportSaveLoadException@CDocument@@UAEXPBDPAVCException@@HI@Z 0084f1de f   mfc100d:mfc100d.dll
 0002:002d31e4       ?GetFile@CDocument@@UAEPAVCFile@@PBDIPAVCFileException@@@Z 0084f1e4 f   mfc100d:mfc100d.dll
 0002:002d31ea       ?ReleaseFile@CDocument@@UAEXPAVCFile@@H@Z 0084f1ea f   mfc100d:mfc100d.dll
 0002:002d31f0       ?OnRichPreviewUnload@CDocument@@UAEXXZ 0084f1f0 f   mfc100d:mfc100d.dll
 0002:002d31f6       ?LoadDocumentFromStream@CDocument@@UAEJPAUIStream@@K@Z 0084f1f6 f   mfc100d:mfc100d.dll
 0002:002d31fc       ?GetThumbnail@CDocument@@UAEHIPAPAUHBITMAP__@@PAW4WTS_ALPHATYPE@@@Z 0084f1fc f   mfc100d:mfc100d.dll
 0002:002d3202       ?ClearChunkList@CDocument@@UAEXXZ 0084f202 f   mfc100d:mfc100d.dll
 0002:002d3208       ?SetChunkValue@CDocument@@UAEHPAUIFilterChunkValue@ATL@@@Z 0084f208 f   mfc100d:mfc100d.dll
 0002:002d320e       ?BeginReadChunks@CDocument@@UAEXXZ 0084f20e f   mfc100d:mfc100d.dll
 0002:002d3214       ?ReadNextChunkValue@CDocument@@UAEHPAPAUIFilterChunkValue@ATL@@@Z 0084f214 f   mfc100d:mfc100d.dll
 0002:002d321a       ?RemoveChunk@CDocument@@UAEXABU_GUID@@K@Z 0084f21a f   mfc100d:mfc100d.dll
 0002:002d3220       ?FindChunk@CDocument@@UAEPAU__POSITION@@ABU_GUID@@K@Z 0084f220 f   mfc100d:mfc100d.dll
 0002:002d3226       ?OnDocumentEvent@CDocument@@UAEXW4DocumentEvent@1@@Z 0084f226 f   mfc100d:mfc100d.dll
 0002:002d322c       ?CanCloseFrame@CDocument@@UAEHPAVCFrameWnd@@@Z 0084f22c f   mfc100d:mfc100d.dll
 0002:002d3232       ?SaveModified@CDocument@@UAEHXZ 0084f232 f   mfc100d:mfc100d.dll
 0002:002d3238       ?PreCloseFrame@CDocument@@UAEXPAVCFrameWnd@@@Z 0084f238 f   mfc100d:mfc100d.dll
 0002:002d323e       ?DoSave@CDocument@@UAEHPBDH@Z 0084f23e f   mfc100d:mfc100d.dll
 0002:002d3244       ?DoFileSave@CDocument@@UAEHXZ 0084f244 f   mfc100d:mfc100d.dll
 0002:002d324a       ?UpdateFrameCounts@CDocument@@UAEXXZ 0084f24a f   mfc100d:mfc100d.dll
 0002:002d3250       ?GetDefaultMenu@CDocument@@UAEPAUHMENU__@@XZ 0084f250 f   mfc100d:mfc100d.dll
 0002:002d3256       ?GetDefaultAccelerator@CDocument@@UAEPAUHACCEL__@@XZ 0084f256 f   mfc100d:mfc100d.dll
 0002:002d325c       ?OnIdle@CDocument@@UAEXXZ  0084f25c f   mfc100d:mfc100d.dll
 0002:002d3262       ?OnLoadDocumentFromStream@CDocument@@UAEJPAUIStream@@K@Z 0084f262 f   mfc100d:mfc100d.dll
 0002:002d3268       ?OnPreviewHandlerQueryFocus@CDocument@@UAEJPAPAUHWND__@@@Z 0084f268 f   mfc100d:mfc100d.dll
 0002:002d326e       ?OnPreviewHandlerTranslateAccelerator@CDocument@@UAEJPAUtagMSG@@@Z 0084f26e f   mfc100d:mfc100d.dll
 0002:002d3274       ?OnCreatePreviewFrame@CDocument@@UAEHXZ 0084f274 f   mfc100d:mfc100d.dll
 0002:002d327a       ?OnUnloadHandler@CDocument@@UAEXXZ 0084f27a f   mfc100d:mfc100d.dll
 0002:002d3280       ?OnDrawThumbnail@CDocument@@UAEXAAVCDC@@PAUtagRECT@@@Z 0084f280 f   mfc100d:mfc100d.dll
 0002:002d3286       ?SendInitialUpdate@CDocument@@QAEXXZ 0084f286 f   mfc100d:mfc100d.dll
 0002:002d328c       ?OnNewDocument@CDocument@@UAEHXZ 0084f28c f   mfc100d:mfc100d.dll
 0002:002d3292       ?AssertValid@CDocument@@UBEXXZ 0084f292 f   mfc100d:mfc100d.dll
 0002:002d3298       ?Dump@CDocument@@UBEXAAVCDumpContext@@@Z 0084f298 f   mfc100d:mfc100d.dll
 0002:002d329e       ?OnSaveDocument@CDocument@@UAEHPBD@Z 0084f29e f   mfc100d:mfc100d.dll
 0002:002d32a4       ?GetActiveWindow@CWnd@@SGPAV1@XZ 0084f2a4 f   mfc100d:mfc100d.dll
 0002:002d32aa       ?GetLastWriteTime@CFileFind@@UBEHAAVCTime@ATL@@@Z 0084f2aa f   mfc100d:mfc100d.dll
 0002:002d32b0       ?MakeUpper@?$CStringT@DV?$StrTraitMFC_DLL@DV?$ChTraitsCRT@D@ATL@@@@@ATL@@QAEAAV12@XZ 0084f2b0 f   mfc100d:mfc100d.dll
 0002:002d32b6       ?Delete@?$CStringT@DV?$StrTraitMFC_DLL@DV?$ChTraitsCRT@D@ATL@@@@@ATL@@QAEHHH@Z 0084f2b6 f   mfc100d:mfc100d.dll
 0002:002d32bc       ?GetCount@CMapStringToPtr@@QBEHXZ 0084f2bc f   mfc100d:mfc100d.dll
 0002:002d32c2       ?Seek@CStdioFile@@UAE_K_JI@Z 0084f2c2 f   mfc100d:mfc100d.dll
 0002:002d32c8       ?GetFilePath@CFileFind@@UBE?AV?$CStringT@DV?$StrTraitMFC_DLL@DV?$ChTraitsCRT@D@ATL@@@@@ATL@@XZ 0084f2c8 f   mfc100d:mfc100d.dll
 0002:002d32ce       ?SeekToEnd@CFile@@QAE_KXZ  0084f2ce f   mfc100d:mfc100d.dll
 0002:002d32d4       ?SetAt@?$CSimpleStringT@D$00@ATL@@QAEXHD@Z 0084f2d4 f   mfc100d:mfc100d.dll
 0002:002d32da       ?Insert@?$CStringT@DV?$StrTraitMFC_DLL@DV?$ChTraitsCRT@D@ATL@@@@@ATL@@QAEHHPBD@Z 0084f2da f   mfc100d:mfc100d.dll
 0002:002d32e0       ?GetSafeHmenu@CMenu@@QBEPAUHMENU__@@XZ 0084f2e0 f   mfc100d:mfc100d.dll
 0002:002d32e6       ?DeleteMenu@CMenu@@QAEHII@Z 0084f2e6 f   mfc100d:mfc100d.dll
 0002:002d32ec       ?Delete@CException@@QAEXXZ 0084f2ec f   mfc100d:mfc100d.dll
 0002:002d32f2       ??2@YAPAXI@Z               0084f2f2 f   mfc100d:mfc100d.dll
 0002:002d32f8       ?GetBuffer@?$CSimpleStringT@D$00@ATL@@QAEPADXZ 0084f2f8 f   mfc100d:mfc100d.dll
 0002:002d32fe       ?OnMove@CWnd@@IAEXHH@Z     0084f2fe f   mfc100d:mfc100d.dll
 0002:002d3304       ?SeekToBegin@CFile@@QAEXXZ 0084f304 f   mfc100d:mfc100d.dll
 0002:002d330a       ?OnKeyUp@CWnd@@IAEXIII@Z   0084f30a f   mfc100d:mfc100d.dll
 0002:002d3310       ?Remove@?$CStringT@DV?$StrTraitMFC_DLL@DV?$ChTraitsCRT@D@ATL@@@@@ATL@@QAEHD@Z 0084f310 f   mfc100d:mfc100d.dll
 0002:002d3316       ?GetThisMessageMap@CFrameWnd@@KGPBUAFX_MSGMAP@@XZ 0084f316 f   mfc100d:mfc100d.dll
 0002:002d331c       ?GetThisClass@CFrameWnd@@SGPAUCRuntimeClass@@XZ 0084f31c f   mfc100d:mfc100d.dll
 0002:002d3322       ??1CFrameWnd@@UAE@XZ       0084f322 f   mfc100d:mfc100d.dll
 0002:002d3328       ??0CStatusBar@@QAE@XZ      0084f328 f   mfc100d:mfc100d.dll
 0002:002d332e       ??0CFrameWnd@@QAE@XZ       0084f32e f   mfc100d:mfc100d.dll
 0002:002d3334       ?OnCmdMsg@CFrameWnd@@UAEHIHPAXPAUAFX_CMDHANDLERINFO@@@Z 0084f334 f   mfc100d:mfc100d.dll
 0002:002d333a       ?GetMenu@CFrameWnd@@UBEPAVCMenu@@XZ 0084f33a f   mfc100d:mfc100d.dll
 0002:002d3340       ?SetMenu@CFrameWnd@@UAEHPAVCMenu@@@Z 0084f340 f   mfc100d:mfc100d.dll
 0002:002d3346       ?OnCommand@CFrameWnd@@MAEHIJ@Z 0084f346 f   mfc100d:mfc100d.dll
 0002:002d334c       ?BeginModalState@CFrameWnd@@UAEXXZ 0084f34c f   mfc100d:mfc100d.dll
 0002:002d3352       ?EndModalState@CFrameWnd@@UAEXXZ 0084f352 f   mfc100d:mfc100d.dll
 0002:002d3358       ?PreTranslateMessage@CFrameWnd@@UAEHPAUtagMSG@@@Z 0084f358 f   mfc100d:mfc100d.dll
 0002:002d335e       ?PostNcDestroy@CFrameWnd@@MAEXXZ 0084f35e f   mfc100d:mfc100d.dll
 0002:002d3364       ?IsFrameWnd@CFrameWnd@@UBEHXZ 0084f364 f   mfc100d:mfc100d.dll
 0002:002d336a       ?Create@CFrameWnd@@UAEHPBD0KABUtagRECT@@PAVCWnd@@0KPAUCCreateContext@@@Z 0084f36a f   mfc100d:mfc100d.dll
 0002:002d3370       ?LoadFrame@CFrameWnd@@UAEHIKPAVCWnd@@PAUCCreateContext@@@Z 0084f370 f   mfc100d:mfc100d.dll
 0002:002d3376       ?GetActiveDocument@CFrameWnd@@UAEPAVCDocument@@XZ 0084f376 f   mfc100d:mfc100d.dll
 0002:002d337c       ?GetActiveFrame@CFrameWnd@@UAEPAV1@XZ 0084f37c f   mfc100d:mfc100d.dll
 0002:002d3382       ?GetMessageString@CFrameWnd@@UBEXIAAV?$CStringT@DV?$StrTraitMFC_DLL@DV?$ChTraitsCRT@D@ATL@@@@@ATL@@@Z 0084f382 f   mfc100d:mfc100d.dll
 0002:002d3388       ?RecalcLayout@CFrameWnd@@UAEXH@Z 0084f388 f   mfc100d:mfc100d.dll
 0002:002d338e       ?ActivateFrame@CFrameWnd@@UAEXH@Z 0084f38e f   mfc100d:mfc100d.dll
 0002:002d3394       ?SetMenuBarVisibility@CFrameWnd@@UAEXK@Z 0084f394 f   mfc100d:mfc100d.dll
 0002:002d339a       ?GetMenuBarVisibility@CFrameWnd@@UBEKXZ 0084f39a f   mfc100d:mfc100d.dll
 0002:002d33a0       ?SetMenuBarState@CFrameWnd@@UAEHK@Z 0084f3a0 f   mfc100d:mfc100d.dll
 0002:002d33a6       ?GetMenuBarState@CFrameWnd@@UBEKXZ 0084f3a6 f   mfc100d:mfc100d.dll
 0002:002d33ac       ?OnSetPreviewMode@CFrameWnd@@UAEXHPAUCPrintPreviewState@@@Z 0084f3ac f   mfc100d:mfc100d.dll
 0002:002d33b2       ?GetMessageBar@CFrameWnd@@UAEPAVCWnd@@XZ 0084f3b2 f   mfc100d:mfc100d.dll
 0002:002d33b8       ?NegotiateBorderSpace@CFrameWnd@@UAEHIPAUtagRECT@@@Z 0084f3b8 f   mfc100d:mfc100d.dll
 0002:002d33be       ?OnCreateClient@CFrameWnd@@MAEHPAUtagCREATESTRUCTA@@PAUCCreateContext@@@Z 0084f3be f   mfc100d:mfc100d.dll
 0002:002d33c4       ?OnUpdateFrameTitle@CFrameWnd@@UAEXH@Z 0084f3c4 f   mfc100d:mfc100d.dll
 0002:002d33ca       ?OnUpdateFrameMenu@CFrameWnd@@UAEXPAUHMENU__@@@Z 0084f3ca f   mfc100d:mfc100d.dll
 0002:002d33d0       ?GetDefaultAccelerator@CFrameWnd@@UAEPAUHACCEL__@@XZ 0084f3d0 f   mfc100d:mfc100d.dll
 0002:002d33d6       ?DelayUpdateFrameMenu@CFrameWnd@@UAEXPAUHMENU__@@@Z 0084f3d6 f   mfc100d:mfc100d.dll
 0002:002d33dc       ?ExitHelpMode@CFrameWnd@@UAEXXZ 0084f3dc f   mfc100d:mfc100d.dll
 0002:002d33e2       ?OnShowMenuBar@CFrameWnd@@MAEXXZ 0084f3e2 f   mfc100d:mfc100d.dll
 0002:002d33e8       ?OnHideMenuBar@CFrameWnd@@MAEXXZ 0084f3e8 f   mfc100d:mfc100d.dll
 0002:002d33ee       ??1CStatusBar@@UAE@XZ      0084f3ee f   mfc100d:mfc100d.dll
 0002:002d33f4       ?DragAcceptFiles@CWnd@@QAEXH@Z 0084f3f4 f   mfc100d:mfc100d.dll
 0002:002d33fa       ?SetPaneText@CStatusBar@@QAEHHPBDH@Z 0084f3fa f   mfc100d:mfc100d.dll
 0002:002d3400       ?GetFont@CWnd@@QBEPAVCFont@@XZ 0084f400 f   mfc100d:mfc100d.dll
 0002:002d3406       ?SetPaneInfo@CStatusBar@@QAEXHIIH@Z 0084f406 f   mfc100d:mfc100d.dll
 0002:002d340c       ?GetPaneInfo@CStatusBar@@QBEXHAAI0AAH@Z 0084f40c f   mfc100d:mfc100d.dll
 0002:002d3412       ?SetIndicators@CStatusBar@@QAEHPBIH@Z 0084f412 f   mfc100d:mfc100d.dll
 0002:002d3418       ?OnCreate@CFrameWnd@@IAEHPAUtagCREATESTRUCTA@@@Z 0084f418 f   mfc100d:mfc100d.dll
 0002:002d341e       ?PreCreateWindow@CFrameWnd@@MAEHAAUtagCREATESTRUCTA@@@Z 0084f41e f   mfc100d:mfc100d.dll
 0002:002d3424       ?AssertValid@CFrameWnd@@UBEXXZ 0084f424 f   mfc100d:mfc100d.dll
 0002:002d342a       ?Dump@CFrameWnd@@UBEXAAVCDumpContext@@@Z 0084f42a f   mfc100d:mfc100d.dll
 0002:002d3430       ?OnSysCommand@CFrameWnd@@IAEXIJ@Z 0084f430 f   mfc100d:mfc100d.dll
 0002:002d3436       ?OnTimer@CWnd@@IAEXI@Z     0084f436 f   mfc100d:mfc100d.dll
 0002:002d343c       ?OnSetCursor@CFrameWnd@@IAEHPAVCWnd@@II@Z 0084f43c f   mfc100d:mfc100d.dll
 0002:002d3442       ?OnSize@CFrameWnd@@IAEXIHH@Z 0084f442 f   mfc100d:mfc100d.dll
 0002:002d3448       ?GetThisMessageMap@CToolBar@@KGPBUAFX_MSGMAP@@XZ 0084f448 f   mfc100d:mfc100d.dll
 0002:002d344e       ?GetThisClass@CToolBar@@SGPAUCRuntimeClass@@XZ 0084f44e f   mfc100d:mfc100d.dll
 0002:002d3454       ??1CToolBar@@UAE@XZ        0084f454 f   mfc100d:mfc100d.dll
 0002:002d345a       ??0CToolBar@@QAE@XZ        0084f45a f   mfc100d:mfc100d.dll
 0002:002d3460       ?AssertValid@CToolBar@@UBEXXZ 0084f460 f   mfc100d:mfc100d.dll
 0002:002d3466       ?Dump@CToolBar@@UBEXAAVCDumpContext@@@Z 0084f466 f   mfc100d:mfc100d.dll
 0002:002d346c       ?DestroyWindow@CControlBar@@UAEHXZ 0084f46c f   mfc100d:mfc100d.dll
 0002:002d3472       ?PreCreateWindow@CControlBar@@UAEHAAUtagCREATESTRUCTA@@@Z 0084f472 f   mfc100d:mfc100d.dll
 0002:002d3478       ?OnToolHitTest@CToolBar@@UBEHVCPoint@@PAUtagTOOLINFOA@@@Z 0084f478 f   mfc100d:mfc100d.dll
 0002:002d347e       ?get_accName@CToolBar@@UAEJUtagVARIANT@@PAPA_W@Z 0084f47e f   mfc100d:mfc100d.dll
 0002:002d3484       ?PreTranslateMessage@CControlBar@@UAEHPAUtagMSG@@@Z 0084f484 f   mfc100d:mfc100d.dll
 0002:002d348a       ?WindowProc@CControlBar@@UAEJIIJ@Z 0084f48a f   mfc100d:mfc100d.dll
 0002:002d3490       ?PostNcDestroy@CControlBar@@UAEXXZ 0084f490 f   mfc100d:mfc100d.dll
 0002:002d3496       ?CalcFixedLayout@CToolBar@@UAE?AVCSize@@HH@Z 0084f496 f   mfc100d:mfc100d.dll
 0002:002d349c       ?CalcDynamicLayout@CToolBar@@UAE?AVCSize@@HK@Z 0084f49c f   mfc100d:mfc100d.dll
 0002:002d34a2       ?OnUpdateCmdUI@CToolBar@@UAEXPAVCFrameWnd@@H@Z 0084f4a2 f   mfc100d:mfc100d.dll
 0002:002d34a8       ?CalcInsideRect@CControlBar@@UBEXAAVCRect@@H@Z 0084f4a8 f   mfc100d:mfc100d.dll
 0002:002d34ae       ?DoPaint@CControlBar@@UAEXPAVCDC@@@Z 0084f4ae f   mfc100d:mfc100d.dll
 0002:002d34b4       ?DrawBorders@CControlBar@@UAEXPAVCDC@@AAVCRect@@@Z 0084f4b4 f   mfc100d:mfc100d.dll
 0002:002d34ba       ?DrawGripper@CControlBar@@UAEXPAVCDC@@ABVCRect@@@Z 0084f4ba f   mfc100d:mfc100d.dll
 0002:002d34c0       ?DrawNCGripper@CControlBar@@UAEXPAVCDC@@ABVCRect@@@Z 0084f4c0 f   mfc100d:mfc100d.dll
 0002:002d34c6       ?DrawThemedGripper@CControlBar@@UAEHPAVCDC@@ABVCRect@@H@Z 0084f4c6 f   mfc100d:mfc100d.dll
 0002:002d34cc       ?DrawNonThemedGripper@CControlBar@@UAEHPAVCDC@@ABVCRect@@@Z 0084f4cc f   mfc100d:mfc100d.dll
 0002:002d34d2       ?DelayShow@CControlBar@@UAEXH@Z 0084f4d2 f   mfc100d:mfc100d.dll
 0002:002d34d8       ?IsVisible@CControlBar@@UBEHXZ 0084f4d8 f   mfc100d:mfc100d.dll
 0002:002d34de       ?RecalcDelayShow@CControlBar@@UAEKPAUAFX_SIZEPARENTPARAMS@@@Z 0084f4de f   mfc100d:mfc100d.dll
 0002:002d34e4       ?IsDockBar@CControlBar@@UBEHXZ 0084f4e4 f   mfc100d:mfc100d.dll
 0002:002d34ea       ?OnBarStyleChange@CToolBar@@UAEXKK@Z 0084f4ea f   mfc100d:mfc100d.dll
 0002:002d34f0       ?SetStatusText@CControlBar@@UAEHH@Z 0084f4f0 f   mfc100d:mfc100d.dll
 0002:002d34f6       ?Create@CToolBar@@UAEHPAVCWnd@@KI@Z 0084f4f6 f   mfc100d:mfc100d.dll
 0002:002d34fc       ?CreateEx@CToolBar@@UAEHPAVCWnd@@KKVCRect@@I@Z 0084f4fc f   mfc100d:mfc100d.dll
 0002:002d3502       ?GetItemRect@CToolBar@@UBEXHPAUtagRECT@@@Z 0084f502 f   mfc100d:mfc100d.dll
 0002:002d3508       ?SetButtonInfo@CToolBar@@QAEXHIIH@Z 0084f508 f   mfc100d:mfc100d.dll
 0002:002d350e       ?LoadToolBar@CToolBar@@QAEHI@Z 0084f50e f   mfc100d:mfc100d.dll
 0002:002d3514       ?OnCreate@CControlBar@@QAEHPAUtagCREATESTRUCTA@@@Z 0084f514 f   mfc100d:mfc100d.dll
 0002:002d351a       ?ResetContent@CComboBox@@QAEXXZ 0084f51a f   mfc100d:mfc100d.dll
 0002:002d3520       ?GetSize@CMapStringToPtr@@QBEHXZ 0084f520 f   mfc100d:mfc100d.dll
 0002:002d3526       ?Append@?$CSimpleStringT@D$00@ATL@@QAEXABV12@@Z 0084f526 f   mfc100d:mfc100d.dll
 0002:002d352c       ?GetThisMessageMap@CWnd@@KGPBUAFX_MSGMAP@@XZ 0084f52c f   mfc100d:mfc100d.dll
 0002:002d3532       ?GetSafeOwner@CWnd@@SGPAV1@PAV1@PAPAUHWND__@@@Z 0084f532 f   mfc100d:mfc100d.dll
 0002:002d3538       ??0CWnd@@QAE@XZ            0084f538 f   mfc100d:mfc100d.dll
 0002:002d353e       ?GetRuntimeClass@CWnd@@UBEPAUCRuntimeClass@@XZ 0084f53e f   mfc100d:mfc100d.dll
 0002:002d3544       ?AssertValid@CWnd@@UBEXXZ  0084f544 f   mfc100d:mfc100d.dll
 0002:002d354a       ?Dump@CWnd@@UBEXAAVCDumpContext@@@Z 0084f54a f   mfc100d:mfc100d.dll
 0002:002d3550       ?SubclassWindow@CWnd@@QAEHPAUHWND__@@@Z 0084f550 f   mfc100d:mfc100d.dll
 0002:002d3556       ?EndWaitCursor@CCmdTarget@@QAEXXZ 0084f556 f   mfc100d:mfc100d.dll
 0002:002d355c       ?CloseEnhanced@CMetaFileDC@@QAEPAUHENHMETAFILE__@@XZ 0084f55c f   mfc100d:mfc100d.dll
 0002:002d3562       ??BCDC@@QBEPAUHDC__@@XZ    0084f562 f   mfc100d:mfc100d.dll
 0002:002d3568       ?CreateEnhanced@CMetaFileDC@@QAEHPAVCDC@@PBDPBUtagRECT@@1@Z 0084f568 f   mfc100d:mfc100d.dll
 0002:002d356e       ?GetDeviceCaps@CDC@@QBEHH@Z 0084f56e f   mfc100d:mfc100d.dll
 0002:002d3574       ??0CPtrArray@@QAE@XZ       0084f574 f   mfc100d:mfc100d.dll
 0002:002d357a       ?GetRuntimeClass@CPtrArray@@UBEPAUCRuntimeClass@@XZ 0084f57a f   mfc100d:mfc100d.dll
 0002:002d3580       ?AssertValid@CPtrArray@@UBEXXZ 0084f580 f   mfc100d:mfc100d.dll
 0002:002d3586       ?Dump@CPtrArray@@UBEXAAVCDumpContext@@@Z 0084f586 f   mfc100d:mfc100d.dll
 0002:002d358c       ??1CPtrArray@@UAE@XZ       0084f58c f   mfc100d:mfc100d.dll
 0002:002d3592       ?RemoveAll@CPtrArray@@QAEXXZ 0084f592 f   mfc100d:mfc100d.dll
 0002:002d3598       ??1CFileDialog@@UAE@XZ     0084f598 f   mfc100d:mfc100d.dll
 0002:002d359e       ?GetPathName@CFileDialog@@QBE?AV?$CStringT@DV?$StrTraitMFC_DLL@DV?$ChTraitsCRT@D@ATL@@@@@ATL@@XZ 0084f59e f   mfc100d:mfc100d.dll
 0002:002d35a4       ?DoModal@CFileDialog@@UAEHXZ 0084f5a4 f   mfc100d:mfc100d.dll
 0002:002d35aa       ?GetOFN@CFileDialog@@QAEAAUtagOFNA@@XZ 0084f5aa f   mfc100d:mfc100d.dll
 0002:002d35b0       ??0CFileDialog@@QAE@HPBD0K0PAVCWnd@@KH@Z 0084f5b0 f   mfc100d:mfc100d.dll
 0002:002d35b6       ?Add@CPtrArray@@QAEHPAX@Z  0084f5b6 f   mfc100d:mfc100d.dll
 0002:002d35bc       ??ACPtrArray@@QAEAAPAXH@Z  0084f5bc f   mfc100d:mfc100d.dll
 0002:002d35c2       ?RemoveMenu@CMenu@@QAEHII@Z 0084f5c2 f   mfc100d:mfc100d.dll
 0002:002d35c8       ?GetMenuItemCount@CMenu@@QBEHXZ 0084f5c8 f   mfc100d:mfc100d.dll
 0002:002d35ce       ?InsertMenuA@CMenu@@QAEHIIIPBD@Z 0084f5ce f   mfc100d:mfc100d.dll
 0002:002d35d4       ?IsSystem@CFileFind@@QBEHXZ 0084f5d4 f   mfc100d:mfc100d.dll
 0002:002d35da       ?IsHidden@CFileFind@@QBEHXZ 0084f5da f   mfc100d:mfc100d.dll
 0002:002d35e0       ?SpanIncluding@?$CStringT@DV?$StrTraitMFC_DLL@DV?$ChTraitsCRT@D@ATL@@@@@ATL@@QBE?AV12@PBD@Z 0084f5e0 f   mfc100d:mfc100d.dll
 0002:002d35e6       ?Arc@CDC@@QAEHHHHHHHHH@Z   0084f5e6 f   mfc100d:mfc100d.dll
 0002:002d35ec       ?Arc@CDC@@QAEHPBUtagRECT@@UtagPOINT@@1@Z 0084f5ec f   mfc100d:mfc100d.dll
 0002:002d35f2       ??4?$CStringT@DV?$StrTraitMFC_DLL@DV?$ChTraitsCRT@D@ATL@@@@@ATL@@QAEAAV01@PBE@Z 0084f5f2 f   mfc100d:mfc100d.dll
 0002:002d3600       __RTC_CheckEsp             0084f600 f   msvcrtd:_stack_.obj
 0002:002d3630       @_RTC_CheckStackVars@8     0084f630 f   msvcrtd:_stack_.obj
 0002:002d36b0       @_RTC_AllocaHelper@12      0084f6b0 f   msvcrtd:_stack_.obj
 0002:002d36f0       @_RTC_CheckStackVars2@12   0084f6f0 f   msvcrtd:_stack_.obj
 0002:002d3800       __ftol2_sse                0084f800 f   msvcrtd:ftol2.obj
 0002:002d3809       __ftol2_pentium4           0084f809 f   msvcrtd:ftol2.obj
 0002:002d381c       __ftol2_sse_excpt          0084f81c f   msvcrtd:ftol2.obj
 0002:002d3836       __ftol2                    0084f836 f   msvcrtd:ftol2.obj
 0002:002d38e0       __RTC_InitBase             0084f8e0 f   msvcrtd:_init_.obj
 0002:002d3920       __RTC_Shutdown             0084f920 f   msvcrtd:_init_.obj
 0002:002d3938       __CrtDbgReport             0084f938 f   msvcrtd:MSVCR100D.dll
 0002:002d393e       _srand                     0084f93e f   msvcrtd:MSVCR100D.dll
 0002:002d3944       __wassert                  0084f944 f   msvcrtd:MSVCR100D.dll
 0002:002d394a       _rand                      0084f94a f   msvcrtd:MSVCR100D.dll
 0002:002d3950       ?_RTC_Failure@@YAXPAXH@Z   0084f950 f   msvcrtd:_error_.obj
 0002:002d3de0       ?_RTC_StackFailure@@YAXPAXPBD@Z 0084fde0 f   msvcrtd:_error_.obj
 0002:002d3f20       ?_RTC_AllocaFailure@@YAXPAXPAU_RTC_ALLOCA_NODE@@H@Z 0084ff20 f   msvcrtd:_error_.obj
 0002:002d4130       __RTC_UninitUse            00850130 f   msvcrtd:_error_.obj
 0002:002d4254       ___CxxFrameHandler3        00850254 f   msvcrtd:MSVCR100D.dll
 0002:002d4260       @__security_check_cookie@4 00850260 f   msvcrtd:secchk.obj
 0002:002d4272       __stat64i32                00850272 f   msvcrtd:MSVCR100D.dll
 0002:002d4278       _free                      00850278 f   msvcrtd:MSVCR100D.dll
 0002:002d427e       _clock                     0085027e f   msvcrtd:MSVCR100D.dll
 0002:002d4284       _labs                      00850284 f   msvcrtd:MSVCR100D.dll
 0002:002d428a       _abs                       0085028a f   msvcrtd:MSVCR100D.dll
 0002:002d4290       __chkstk                   00850290 f   msvcrtd:chkstk.obj
 0002:002d4290       __alloca_probe             00850290     msvcrtd:chkstk.obj
 0002:002d42d0       __alldiv                   008502d0 f   msvcrtd:lldiv.obj
 0002:002d43b0       __allmul                   008503b0 f   msvcrtd:llmul.obj
 0002:002d43f2       _floor                     008503f2 f   msvcrtd:MSVCR100D.dll
 0002:002d43f8       _calloc                    008503f8 f   msvcrtd:MSVCR100D.dll
 0002:002d4400       ??0type_info@@AAE@ABV0@@Z  00850400 f   msvcrtd:ti_inst.obj
 0002:002d4430       ??_Etype_info@@UAEPAXI@Z   00850430 f i msvcrtd:ti_inst.obj
 0002:002d44c0       ??4type_info@@AAEAAV0@ABV0@@Z 008504c0 f   msvcrtd:ti_inst.obj
 0002:002d44d6       _memset                    008504d6 f   msvcrtd:MSVCR100D.dll
 0002:002d44dc       _memcpy_s                  008504dc f   msvcrtd:MSVCR100D.dll
 0002:002d44e2       _atof                      008504e2 f   msvcrtd:MSVCR100D.dll
 0002:002d44f0       __onexit                   008504f0 f   msvcrtd:atonexit.obj
 0002:002d4620       _atexit                    00850620 f   msvcrtd:atonexit.obj
 0002:002d4644       _atoi                      00850644 f   msvcrtd:MSVCR100D.dll
 0002:002d4650       ??_L@YGXPAXIHP6EX0@Z1@Z    00850650 f   msvcrtd:ehvecctr.obj
 0002:002d4730       ??_M@YGXPAXIHP6EX0@Z@Z     00850730 f   msvcrtd:ehvecdtr.obj
 0002:002d4810       ?__ArrayUnwind@@YGXPAXIHP6EX0@Z@Z 00850810 f   msvcrtd:ehvecdtr.obj
 0002:002d48fa       _memmove_s                 008508fa f   msvcrtd:MSVCR100D.dll
 0002:002d4900       __chdir                    00850900 f   msvcrtd:MSVCR100D.dll
 0002:002d4906       __mkdir                    00850906 f   msvcrtd:MSVCR100D.dll
 0002:002d490c       __localtime64              0085090c f   msvcrtd:MSVCR100D.dll
 0002:002d4912       __time64                   00850912 f   msvcrtd:MSVCR100D.dll
 0002:002d4918       _strcmp                    00850918 f   msvcrtd:MSVCR100D.dll
 0002:002d491e       _cos                       0085091e f   msvcrtd:MSVCR100D.dll
 0002:002d4924       _sin                       00850924 f   msvcrtd:MSVCR100D.dll
 0002:002d492a       _sqrt                      0085092a f   msvcrtd:MSVCR100D.dll
 0002:002d4930       _fabs                      00850930 f   msvcrtd:MSVCR100D.dll
 0002:002d4936       _qsort                     00850936 f   msvcrtd:MSVCR100D.dll
 0002:002d493c       _malloc                    0085093c f   msvcrtd:MSVCR100D.dll
 0002:002d4942       _ldiv                      00850942 f   msvcrtd:MSVCR100D.dll
 0002:002d4948       _rename                    00850948 f   msvcrtd:MSVCR100D.dll
 0002:002d494e       _remove                    0085094e f   msvcrtd:MSVCR100D.dll
 0002:002d4954       __splitpath                00850954 f   msvcrtd:MSVCR100D.dll
 0002:002d495a       _strcat_s                  0085095a f   msvcrtd:MSVCR100D.dll
 0002:002d4960       _strlen                    00850960 f   msvcrtd:MSVCR100D.dll
 0002:002d4966       __ftime64                  00850966 f   msvcrtd:MSVCR100D.dll
 0002:002d496c       __difftime64               0085096c f   msvcrtd:MSVCR100D.dll
 0002:002d4972       _atan2                     00850972 f   msvcrtd:MSVCR100D.dll
 0002:002d4978       _fmod                      00850978 f   msvcrtd:MSVCR100D.dll
 0002:002d497e       _strcpy_s                  0085097e f   msvcrtd:MSVCR100D.dll
 0002:002d4984       _memcpy                    00850984 f   msvcrtd:MSVCR100D.dll
 0002:002d498a       __fullpath                 0085098a f   msvcrtd:MSVCR100D.dll
 0002:002d4990       __CxxThrowException@8      00850990 f   msvcrtd:MSVCR100D.dll
 0002:002d4996       ___sys_errlist             00850996 f   msvcrtd:MSVCR100D.dll
 0002:002d499c       __purecall                 0085099c f   msvcrtd:MSVCR100D.dll
 0002:002d49a2       _tan                       008509a2 f   msvcrtd:MSVCR100D.dll
 0002:002d49a8       _strchr                    008509a8 f   msvcrtd:MSVCR100D.dll
 0002:002d49ae       _modf                      008509ae f   msvcrtd:MSVCR100D.dll
 0002:002d49b4       _memcmp                    008509b4 f   msvcrtd:MSVCR100D.dll
 0002:002d49ba       _llabs                     008509ba f   msvcrtd:MSVCR100D.dll
 0002:002d49c0       _exit                      008509c0 f   msvcrtd:MSVCR100D.dll
 0002:002d49c6       _fprintf                   008509c6 f   msvcrtd:MSVCR100D.dll
 0002:002d49cc       ___iob_func                008509cc f   msvcrtd:MSVCR100D.dll
 0002:002d49d2       _fscanf                    008509d2 f   msvcrtd:MSVCR100D.dll
 0002:002d49d8       __gmtime64                 008509d8 f   msvcrtd:MSVCR100D.dll
 0002:002d49de       _strcpy                    008509de f   msvcrtd:MSVCR100D.dll
 0002:002d49e4       __access                   008509e4 f   msvcrtd:MSVCR100D.dll
 0002:002d49ea       _strcat                    008509ea f   msvcrtd:MSVCR100D.dll
 0002:002d49f0       _acos                      008509f0 f   msvcrtd:MSVCR100D.dll
 0002:002d49f6       _asin                      008509f6 f   msvcrtd:MSVCR100D.dll
 0002:002d49fc       __mbsrchr                  008509fc f   msvcrtd:MSVCR100D.dll
 0002:002d4a02       _fread                     00850a02 f   msvcrtd:MSVCR100D.dll
 0002:002d4a08       _fwrite                    00850a08 f   msvcrtd:MSVCR100D.dll
 0002:002d4a0e       _sscanf                    00850a0e f   msvcrtd:MSVCR100D.dll
 0002:002d4a14       _fgets                     00850a14 f   msvcrtd:MSVCR100D.dll
 0002:002d4a1a       _feof                      00850a1a f   msvcrtd:MSVCR100D.dll
 0002:002d4a20       _fclose                    00850a20 f   msvcrtd:MSVCR100D.dll
 0002:002d4a26       _fopen                     00850a26 f   msvcrtd:MSVCR100D.dll
 0002:002d4a2c       __exit                     00850a2c f   msvcrtd:MSVCR100D.dll
 0002:002d4a32       _atan                      00850a32 f   msvcrtd:MSVCR100D.dll
 0002:002d4b60       _WinMainCRTStartup         00850b60 f   msvcrtd:crtexew.obj
 0002:002d4f40       _NtCurrentTeb              00850f40 f i msvcrtd:crtexew.obj
 0002:002d4fda       _strstr                    00850fda f   msvcrtd:MSVCR100D.dll
 0002:002d4fe0       _strncpy                   00850fe0 f   msvcrtd:MSVCR100D.dll
 0002:002d4fe6       _sprintf                   00850fe6 f   msvcrtd:MSVCR100D.dll
 0002:002d4fec       _fputs                     00850fec f   msvcrtd:MSVCR100D.dll
 0002:002d4ff2       _fputc                     00850ff2 f   msvcrtd:MSVCR100D.dll
 0002:002d4ff8       _strncmp                   00850ff8 f   msvcrtd:MSVCR100D.dll
 0002:002d4ffe       _vfprintf                  00850ffe f   msvcrtd:MSVCR100D.dll
 0002:002d5004       _strncat                   00851004 f   msvcrtd:MSVCR100D.dll
 0002:002d500a       _realloc                   0085100a f   msvcrtd:MSVCR100D.dll
 0002:002d5010       _log10                     00851010 f   msvcrtd:MSVCR100D.dll
 0002:002d5016       _pow                       00851016 f   msvcrtd:MSVCR100D.dll
 0002:002d501c       _fgetc                     0085101c f   msvcrtd:MSVCR100D.dll
 0002:002d5022       _printf                    00851022 f   msvcrtd:MSVCR100D.dll
 0002:002d5028       _getc                      00851028 f   msvcrtd:MSVCR100D.dll
 0002:002d502e       _fseek                     0085102e f   msvcrtd:MSVCR100D.dll
 0002:002d5034       _ceil                      00851034 f   msvcrtd:MSVCR100D.dll
 0002:002d5040       ___sse2_available_init     00851040 f   msvcrtd:cpu_disp.obj
 0002:002d5060       __RTC_NumErrors            00851060 f   msvcrtd:_userapi_.obj
 0002:002d5070       __RTC_GetErrDesc           00851070 f   msvcrtd:_userapi_.obj
 0002:002d5090       __RTC_SetErrorType         00851090 f   msvcrtd:_userapi_.obj
 0002:002d50c0       __RTC_SetErrorFunc         008510c0 f   msvcrtd:_userapi_.obj
 0002:002d50f0       __RTC_SetErrorFuncW        008510f0 f   msvcrtd:_userapi_.obj
 0002:002d5120       ?_RTC_GetErrorFunc@@YAP6AHHPBDH00ZZPBX@Z 00851120 f   msvcrtd:_userapi_.obj
 0002:002d5130       ?_RTC_GetErrorFuncW@@YAP6AHHPB_WH00ZZPBX@Z 00851130 f   msvcrtd:_userapi_.obj
 0002:002d5136       __CRT_RTC_INITW            00851136 f   msvcrtd:MSVCR100D.dll
 0002:002d5140       ?_RTC_GetSrcLine@@YAHPAEPA_WKPAH1K@Z 00851140 f   msvcrtd:_pdblkup_.obj
 0002:002d5720       __except_handler4          00851720 f   msvcrtd:chandler4gs.obj
 0002:002d5760       ___report_gsfailure        00851760 f   msvcrtd:gs_report.obj
 0002:002d58b2       __unlock                   008518b2 f   msvcrtd:MSVCR100D.dll
 0002:002d58b8       ___dllonexit               008518b8 f   msvcrtd:MSVCR100D.dll
 0002:002d58be       __lock                     008518be f   msvcrtd:MSVCR100D.dll
 0002:002d58c4       ?terminate@@YAXXZ          008518c4 f   msvcrtd:MSVCR100D.dll
 0002:002d58d0       ?__CxxUnhandledExceptionFilter@@YGJPAU_EXCEPTION_POINTERS@@@Z 008518d0 f   msvcrtd:unhandld.obj
 0002:002d5950       ___CxxSetUnhandledExceptionFilter 00851950 f   msvcrtd:unhandld.obj
 0002:002d596a       __configthreadlocale       0085196a f   msvcrtd:MSVCR100D.dll
 0002:002d5970       __setdefaultprecision      00851970 f   msvcrtd:fp8.obj
 0002:002d59c0       __invoke_watson_if_error   008519c0 f i msvcrtd:fp8.obj
 0002:002d59f2       ___setusermatherr          008519f2 f   msvcrtd:MSVCR100D.dll
 0002:002d5a00       __matherr                  00851a00 f   msvcrtd:merr.obj
 0002:002d5a10       __setargv                  00851a10 f   msvcrtd:dllargv.obj
 0002:002d5a20       __RTC_Initialize           00851a20 f   msvcrtd:_initsect_.obj
 0002:002d5a50       __RTC_Terminate            00851a50 f   msvcrtd:_initsect_.obj
 0002:002d5a80       ___set_app_type            00851a80 f   msvcrtd:MSVCR100D.dll
 0002:002d5a86       __amsg_exit                00851a86 f   msvcrtd:MSVCR100D.dll
 0002:002d5a8c       ___getmainargs             00851a8c f   msvcrtd:MSVCR100D.dll
 0002:002d5aa0       ___security_init_cookie    00851aa0 f   msvcrtd:gs_support.obj
 0002:002d5bb8       __XcptFilter               00851bb8 f   msvcrtd:MSVCR100D.dll
 0002:002d5bbe       __cexit                    00851bbe f   msvcrtd:MSVCR100D.dll
 0002:002d5bc4       __ismbblead                00851bc4 f   msvcrtd:MSVCR100D.dll
 0002:002d5bca       __CrtSetCheckCount         00851bca f   msvcrtd:MSVCR100D.dll
 0002:002d5bd0       __ValidateImageBase        00851bd0 f   msvcrtd:pesect.obj
 0002:002d5c50       __FindPESection            00851c50 f   msvcrtd:pesect.obj
 0002:002d5cf0       __IsNonwritableInCurrentImage 00851cf0 f   msvcrtd:pesect.obj
 0002:002d5e46       __CrtDbgReportW            00851e46 f   msvcrtd:MSVCR100D.dll
 0002:002d5e4c       __initterm                 00851e4c f   msvcrtd:MSVCR100D.dll
 0002:002d5e52       __initterm_e               00851e52 f   msvcrtd:MSVCR100D.dll
 0002:002d5e58       __stat32                   00851e58 f   msvcrtd:MSVCR100D.dll
 0002:002d5e5e       __localtime32              00851e5e f   msvcrtd:MSVCR100D.dll
 0002:002d5e64       __mktime32                 00851e64 f   msvcrtd:MSVCR100D.dll
 0002:002d5e6a       __time32                   00851e6a f   msvcrtd:MSVCR100D.dll
 0002:002d5e70       __except_handler4_common   00851e70 f   msvcrtd:MSVCR100D.dll
 0002:002d5e76       __crt_debugger_hook        00851e76 f   msvcrtd:MSVCR100D.dll
 0002:002d5e7c       ?_type_info_dtor_internal_method@type_info@@QAEXXZ 00851e7c f   msvcrtd:MSVCR100D.dll
 0002:002d5e7c       ??1type_info@@UAE@XZ       00851e7c f   msvcrtd:MSVCR100D.dll
 0002:002d5e82       __controlfp_s              00851e82 f   msvcrtd:MSVCR100D.dll
 0002:002d5e88       __invoke_watson            00851e88 f   msvcrtd:MSVCR100D.dll
 0002:002d5e8e       _MoveFileA@8               00851e8e f   kernel32:KERNEL32.dll
 0002:002d5e94       _DeleteFileA@4             00851e94 f   kernel32:KERNEL32.dll
 0002:002d5e9a       _CopyFileA@12              00851e9a f   kernel32:KERNEL32.dll
 0002:002d5ea0       _FindNextFileA@8           00851ea0 f   kernel32:KERNEL32.dll
 0002:002d5ea6       _FindFirstFileA@8          00851ea6 f   kernel32:KERNEL32.dll
 0002:002d5eac       _Sleep@4                   00851eac f   kernel32:KERNEL32.dll
 0002:002d5eb2       _GlobalAlloc@8             00851eb2 f   kernel32:KERNEL32.dll
 0002:002d5eb8       _GetFileAttributesA@4      00851eb8 f   kernel32:KERNEL32.dll
 0002:002d5ebe       _GetCommandLineA@0         00851ebe f   kernel32:KERNEL32.dll
 0002:002d5ec4       _GetFullPathNameA@16       00851ec4 f   kernel32:KERNEL32.dll
 0002:002d5eca       _GetLastError@0            00851eca f   kernel32:KERNEL32.dll
 0002:002d5ed0       _InterlockedIncrement@4    00851ed0 f   kernel32:KERNEL32.dll
 0002:002d5ed6       _InterlockedDecrement@4    00851ed6 f   kernel32:KERNEL32.dll
 0002:002d5edc       _GetCurrentDirectoryA@8    00851edc f   kernel32:KERNEL32.dll
 0002:002d5ee2       _CreateDirectoryA@8        00851ee2 f   kernel32:KERNEL32.dll
 0002:002d5ee8       _FreeLibrary@4             00851ee8 f   kernel32:KERNEL32.dll
 0002:002d5eee       _GetProcAddress@8          00851eee f   kernel32:KERNEL32.dll
 0002:002d5ef4       _LoadLibraryA@4            00851ef4 f   kernel32:KERNEL32.dll
 0002:002d5efa       _EnterCriticalSection@4    00851efa f   kernel32:KERNEL32.dll
 0002:002d5f00       _InitializeCriticalSection@4 00851f00 f   kernel32:KERNEL32.dll
 0002:002d5f06       _DeleteCriticalSection@4   00851f06 f   kernel32:KERNEL32.dll
 0002:002d5f0c       _LeaveCriticalSection@4    00851f0c f   kernel32:KERNEL32.dll
 0002:002d5f12       _WaitForSingleObject@8     00851f12 f   kernel32:KERNEL32.dll
 0002:002d5f18       _ReleaseMutex@4            00851f18 f   kernel32:KERNEL32.dll
 0002:002d5f1e       _MapViewOfFile@20          00851f1e f   kernel32:KERNEL32.dll
 0002:002d5f24       _CreateFileMappingA@24     00851f24 f   kernel32:KERNEL32.dll
 0002:002d5f2a       _CreateMutexA@12           00851f2a f   kernel32:KERNEL32.dll
 0002:002d5f30       _OutputDebugStringA@4      00851f30 f   kernel32:KERNEL32.dll
 0002:002d5f36       _CloseHandle@4             00851f36 f   kernel32:KERNEL32.dll
 0002:002d5f3c       _WriteFile@20              00851f3c f   kernel32:KERNEL32.dll
 0002:002d5f42       _SetFilePointer@16         00851f42 f   kernel32:KERNEL32.dll
 0002:002d5f48       _GetModuleFileNameA@12     00851f48 f   kernel32:KERNEL32.dll
 0002:002d5f4e       _GetCurrentThreadId@0      00851f4e f   kernel32:KERNEL32.dll
 0002:002d5f54       _GetCurrentProcessId@0     00851f54 f   kernel32:KERNEL32.dll
 0002:002d5f5a       _GetLocalTime@4            00851f5a f   kernel32:KERNEL32.dll
 0002:002d5f60       _MoveFileExA@12            00851f60 f   kernel32:KERNEL32.dll
 0002:002d5f66       _GetFileSize@8             00851f66 f   kernel32:KERNEL32.dll
 0002:002d5f6c       _CreateFileA@28            00851f6c f   kernel32:KERNEL32.dll
 0002:002d5f72       _LocalFree@4               00851f72 f   kernel32:KERNEL32.dll
 0002:002d5f78       _FormatMessageA@28         00851f78 f   kernel32:KERNEL32.dll
 0002:002d5f7e       _GetEnvironmentVariableA@12 00851f7e f   kernel32:KERNEL32.dll
 0002:002d5f84       _UnmapViewOfFile@4         00851f84 f   kernel32:KERNEL32.dll
 0002:002d5f8a       _CreateProcessA@40         00851f8a f   kernel32:KERNEL32.dll
 0002:002d5f90       _GetStdHandle@4            00851f90 f   kernel32:KERNEL32.dll
 0002:002d5f96       _DuplicateHandle@28        00851f96 f   kernel32:KERNEL32.dll
 0002:002d5f9c       _GetCurrentProcess@0       00851f9c f   kernel32:KERNEL32.dll
 0002:002d5fa2       _CreatePipe@16             00851fa2 f   kernel32:KERNEL32.dll
 0002:002d5fa8       _ReadFile@20               00851fa8 f   kernel32:KERNEL32.dll
 0002:002d5fae       _QueryPerformanceFrequency@4 00851fae f   kernel32:KERNEL32.dll
 0002:002d5fb4       _QueryPerformanceCounter@4 00851fb4 f   kernel32:KERNEL32.dll
 0002:002d5fba       _SetThreadPriority@8       00851fba f   kernel32:KERNEL32.dll
 0002:002d5fc0       _GetCurrentThread@0        00851fc0 f   kernel32:KERNEL32.dll
 0002:002d5fc6       _WideCharToMultiByte@32    00851fc6 f   kernel32:KERNEL32.dll
 0002:002d5fcc       _IsDebuggerPresent@0       00851fcc f   kernel32:KERNEL32.dll
 0002:002d5fd2       _MultiByteToWideChar@24    00851fd2 f   kernel32:KERNEL32.dll
 0002:002d5fd8       _RaiseException@16         00851fd8 f   kernel32:KERNEL32.dll
 0002:002d5fde       _lstrlenA@4                00851fde f   kernel32:KERNEL32.dll
 0002:002d5fe4       _LoadLibraryW@4            00851fe4 f   kernel32:KERNEL32.dll
 0002:002d5fea       _EncodePointer@4           00851fea f   kernel32:KERNEL32.dll
 0002:002d5ff0       _DecodePointer@4           00851ff0 f   kernel32:KERNEL32.dll
 0002:002d5ff6       _InterlockedExchange@8     00851ff6 f   kernel32:KERNEL32.dll
 0002:002d5ffc       _InterlockedCompareExchange@12 00851ffc f   kernel32:KERNEL32.dll
 0002:002d6002       _HeapSetInformation@16     00852002 f   kernel32:KERNEL32.dll
 0002:002d6008       _GetStartupInfoW@4         00852008 f   kernel32:KERNEL32.dll
 0002:002d600e       _IsProcessorFeaturePresent@4 0085200e f   kernel32:KERNEL32.dll
 0002:002d6014       _HeapFree@12               00852014 f   kernel32:KERNEL32.dll
 0002:002d601a       _HeapAlloc@12              0085201a f   kernel32:KERNEL32.dll
 0002:002d6020       _GetProcessHeap@0          00852020 f   kernel32:KERNEL32.dll
 0002:002d6026       _GetModuleFileNameW@12     00852026 f   kernel32:KERNEL32.dll
 0002:002d602c       _VirtualQuery@12           0085202c f   kernel32:KERNEL32.dll
 0002:002d6032       _TerminateProcess@8        00852032 f   kernel32:KERNEL32.dll
 0002:002d6038       _UnhandledExceptionFilter@4 00852038 f   kernel32:KERNEL32.dll
 0002:002d603e       _SetUnhandledExceptionFilter@4 0085203e f   kernel32:KERNEL32.dll
 0002:002d6044       _GetTickCount@0            00852044 f   kernel32:KERNEL32.dll
 0002:002d604a       _GetSystemTimeAsFileTime@4 0085204a f   kernel32:KERNEL32.dll
 0002:002d6050       _PostQuitMessage@4         00852050 f   user32:USER32.dll
 0002:002d6056       _PeekMessageA@20           00852056 f   user32:USER32.dll
 0002:002d605c       _LoadImageA@24             0085205c f   user32:USER32.dll
 0002:002d6062       _SetWindowLongA@12         00852062 f   user32:USER32.dll
 0002:002d6068       _GetWindowLongA@8          00852068 f   user32:USER32.dll
 0002:002d606e       _ShowCursor@4              0085206e f   user32:USER32.dll
 0002:002d6074       _SetWindowTextA@8          00852074 f   user32:USER32.dll
 0002:002d607a       _SendMessageA@16           0085207a f   user32:USER32.dll
 0002:002d6080       _GetSystemMetrics@4        00852080 f   user32:USER32.dll
 0002:002d6086       _SetCursorPos@8            00852086 f   user32:USER32.dll
 0002:002d608c       _GetCursorPos@4            0085208c f   user32:USER32.dll
 0002:002d6092       _GetKeyState@4             00852092 f   user32:USER32.dll
 0002:002d6098       _CloseClipboard@0          00852098 f   user32:USER32.dll
 0002:002d609e       _SetClipboardData@8        0085209e f   user32:USER32.dll
 0002:002d60a4       _EmptyClipboard@0          008520a4 f   user32:USER32.dll
 0002:002d60aa       _OpenClipboard@4           008520aa f   user32:USER32.dll
 0002:002d60b0       _SetForegroundWindow@4     008520b0 f   user32:USER32.dll
 0002:002d60b6       _DispatchMessageA@4        008520b6 f   user32:USER32.dll
 0002:002d60bc       _TranslateMessage@4        008520bc f   user32:USER32.dll
 0002:002d60c2       _UpdateWindow@4            008520c2 f   user32:USER32.dll
 0002:002d60c8       _BringWindowToTop@4        008520c8 f   user32:USER32.dll
 0002:002d60ce       _FindWindowA@8             008520ce f   user32:USER32.dll
 0002:002d60d4       _SetWindowPlacement@8      008520d4 f   user32:USER32.dll
 0002:002d60da       _GetWindowPlacement@8      008520da f   user32:USER32.dll
 0002:002d60e0       _AppendMenuA@16            008520e0 f   user32:USER32.dll
 0002:002d60e6       _InsertMenuItemA@16        008520e6 f   user32:USER32.dll
 0002:002d60ec       _CreatePopupMenu@0         008520ec f   user32:USER32.dll
 0002:002d60f2       _LoadCursorA@8             008520f2 f   user32:USER32.dll
 0002:002d60f8       _SetCursor@4               008520f8 f   user32:USER32.dll
 0002:002d60fe       _SetFocus@4                008520fe f   user32:USER32.dll
 0002:002d6104       _EndDialog@8               00852104 f   user32:USER32.dll
 0002:002d610a       _GetWindowTextA@12         0085210a f   user32:USER32.dll
 0002:002d6110       _GetDlgItem@8              00852110 f   user32:USER32.dll
 0002:002d6116       _CreateWindowExA@48        00852116 f   user32:USER32.dll
 0002:002d611c       _ScreenToClient@8          0085211c f   user32:USER32.dll
 0002:002d6122       _GetWindowRect@8           00852122 f   user32:USER32.dll
 0002:002d6128       _ShowWindow@8              00852128 f   user32:USER32.dll
 0002:002d612e       _wsprintfA                 0085212e f   user32:USER32.dll
 0002:002d6134       _MessageBoxA@16            00852134 f   user32:USER32.dll
 0002:002d613a       _GetStockObject@4          0085213a f   gdi32:GDI32.dll
 0002:002d6140       _SelectObject@8            00852140 f   gdi32:GDI32.dll
 0002:002d6146       _CommDlgExtendedError@0    00852146 f   comdlg32:COMDLG32.dll
 0002:002d614c       _ShellExecuteA@24          0085214c f   shell32:SHELL32.dll
 0002:002d6152       _ShellExecuteExA@4         00852152 f   shell32:SHELL32.dll
 0002:002d6158       _DragFinish@4              00852158 f   shell32:SHELL32.dll
 0002:002d615e       _DragQueryFileA@16         0085215e f   shell32:SHELL32.dll
 0002:002d6164       _SHGetPathFromIDListA@8    00852164 f   shell32:SHELL32.dll
 0002:002d616a       _SHBrowseForFolderA@4      0085216a f   shell32:SHELL32.dll
 0002:002d6170       _SHGetMalloc@4             00852170 f   shell32:SHELL32.dll
 0002:002d6180       ??0CSize@@QAE@XZ           00852180 f   atlsd:atltypes.obj
 0002:002d61b0       ??0CSize@@QAE@HH@Z         008521b0 f   atlsd:atltypes.obj
 0002:002d61e0       ??0CSize@@QAE@UtagSIZE@@@Z 008521e0 f   atlsd:atltypes.obj
 0002:002d6210       ??0CSize@@QAE@UtagPOINT@@@Z 00852210 f   atlsd:atltypes.obj
 0002:002d6240       ??0CSize@@QAE@K@Z          00852240 f   atlsd:atltypes.obj
 0002:002d6290       ??8CSize@@QBEHUtagSIZE@@@Z 00852290 f   atlsd:atltypes.obj
 0002:002d62e0       ??9CSize@@QBEHUtagSIZE@@@Z 008522e0 f   atlsd:atltypes.obj
 0002:002d6330       ??YCSize@@QAEXUtagSIZE@@@Z 00852330 f   atlsd:atltypes.obj
 0002:002d6370       ??ZCSize@@QAEXUtagSIZE@@@Z 00852370 f   atlsd:atltypes.obj
 0002:002d63b0       ?SetSize@CSize@@QAEXHH@Z   008523b0 f   atlsd:atltypes.obj
 0002:002d63e0       ??HCSize@@QBE?AV0@UtagSIZE@@@Z 008523e0 f   atlsd:atltypes.obj
 0002:002d6420       ??GCSize@@QBE?AV0@UtagSIZE@@@Z 00852420 f   atlsd:atltypes.obj
 0002:002d6460       ??GCSize@@QBE?AV0@XZ       00852460 f   atlsd:atltypes.obj
 0002:002d64a0       ??HCSize@@QBE?AVCPoint@@UtagPOINT@@@Z 008524a0 f   atlsd:atltypes.obj
 0002:002d64e0       ??GCSize@@QBE?AVCPoint@@UtagPOINT@@@Z 008524e0 f   atlsd:atltypes.obj
 0002:002d6520       ??HCSize@@QBE?AVCRect@@PBUtagRECT@@@Z 00852520 f   atlsd:atltypes.obj
 0002:002d6590       ??GCSize@@QBE?AVCRect@@PBUtagRECT@@@Z 00852590 f   atlsd:atltypes.obj
 0002:002d6600       ??0CPoint@@QAE@XZ          00852600 f   atlsd:atltypes.obj
 0002:002d6630       ??0CPoint@@QAE@HH@Z        00852630 f   atlsd:atltypes.obj
 0002:002d6660       ??0CPoint@@QAE@UtagPOINT@@@Z 00852660 f   atlsd:atltypes.obj
 0002:002d6690       ??0CPoint@@QAE@UtagSIZE@@@Z 00852690 f   atlsd:atltypes.obj
 0002:002d66c0       ??0CPoint@@QAE@J@Z         008526c0 f   atlsd:atltypes.obj
 0002:002d6710       ?Offset@CPoint@@QAEXHH@Z   00852710 f   atlsd:atltypes.obj
 0002:002d6750       ?Offset@CPoint@@QAEXUtagPOINT@@@Z 00852750 f   atlsd:atltypes.obj
 0002:002d6790       ?Offset@CPoint@@QAEXUtagSIZE@@@Z 00852790 f   atlsd:atltypes.obj
 0002:002d67d0       ?SetPoint@CPoint@@QAEXHH@Z 008527d0 f   atlsd:atltypes.obj
 0002:002d6800       ??8CPoint@@QBEHUtagPOINT@@@Z 00852800 f   atlsd:atltypes.obj
 0002:002d6850       ??9CPoint@@QBEHUtagPOINT@@@Z 00852850 f   atlsd:atltypes.obj
 0002:002d68a0       ??YCPoint@@QAEXUtagSIZE@@@Z 008528a0 f   atlsd:atltypes.obj
 0002:002d68e0       ??ZCPoint@@QAEXUtagSIZE@@@Z 008528e0 f   atlsd:atltypes.obj
 0002:002d6920       ??YCPoint@@QAEXUtagPOINT@@@Z 00852920 f   atlsd:atltypes.obj
 0002:002d6960       ??ZCPoint@@QAEXUtagPOINT@@@Z 00852960 f   atlsd:atltypes.obj
 0002:002d69a0       ??HCPoint@@QBE?AV0@UtagSIZE@@@Z 008529a0 f   atlsd:atltypes.obj
 0002:002d69e0       ??GCPoint@@QBE?AV0@UtagSIZE@@@Z 008529e0 f   atlsd:atltypes.obj
 0002:002d6a20       ??GCPoint@@QBE?AV0@XZ      00852a20 f   atlsd:atltypes.obj
 0002:002d6a60       ??HCPoint@@QBE?AV0@UtagPOINT@@@Z 00852a60 f   atlsd:atltypes.obj
 0002:002d6aa0       ??GCPoint@@QBE?AVCSize@@UtagPOINT@@@Z 00852aa0 f   atlsd:atltypes.obj
 0002:002d6ae0       ??HCPoint@@QBE?AVCRect@@PBUtagRECT@@@Z 00852ae0 f   atlsd:atltypes.obj
 0002:002d6b50       ??GCPoint@@QBE?AVCRect@@PBUtagRECT@@@Z 00852b50 f   atlsd:atltypes.obj
 0002:002d6bc0       ??0CRect@@QAE@XZ           00852bc0 f   atlsd:atltypes.obj
 0002:002d6c10       ??0CRect@@QAE@HHHH@Z       00852c10 f   atlsd:atltypes.obj
 0002:002d6c60       ??0CRect@@QAE@ABUtagRECT@@@Z 00852c60 f   atlsd:atltypes.obj
 0002:002d6c90       ??0CRect@@QAE@PBUtagRECT@@@Z 00852c90 f   atlsd:atltypes.obj
 0002:002d6cc0       ??0CRect@@QAE@UtagPOINT@@UtagSIZE@@@Z 00852cc0 f   atlsd:atltypes.obj
 0002:002d6d10       ??0CRect@@QAE@UtagPOINT@@0@Z 00852d10 f   atlsd:atltypes.obj
 0002:002d6d60       ?Width@CRect@@QBEHXZ       00852d60 f   atlsd:atltypes.obj
 0002:002d6d80       ?Height@CRect@@QBEHXZ      00852d80 f   atlsd:atltypes.obj
 0002:002d6da0       ?Size@CRect@@QBE?AVCSize@@XZ 00852da0 f   atlsd:atltypes.obj
 0002:002d6de0       ?TopLeft@CRect@@QAEAAVCPoint@@XZ 00852de0 f   atlsd:atltypes.obj
 0002:002d6e00       ?BottomRight@CRect@@QAEAAVCPoint@@XZ 00852e00 f   atlsd:atltypes.obj
 0002:002d6e20       ?TopLeft@CRect@@QBEABVCPoint@@XZ 00852e20 f   atlsd:atltypes.obj
 0002:002d6e40       ?BottomRight@CRect@@QBEABVCPoint@@XZ 00852e40 f   atlsd:atltypes.obj
 0002:002d6e60       ?CenterPoint@CRect@@QBE?AVCPoint@@XZ 00852e60 f   atlsd:atltypes.obj
 0002:002d6eb0       ?SwapLeftRight@CRect@@QAEXXZ 00852eb0 f   atlsd:atltypes.obj
 0002:002d6ed0       ?SwapLeftRight@CRect@@SGXPAUtagRECT@@@Z 00852ed0 f   atlsd:atltypes.obj
 0002:002d6f10       ??BCRect@@QAEPAUtagRECT@@XZ 00852f10 f   atlsd:atltypes.obj
 0002:002d6f30       ??BCRect@@QBEPBUtagRECT@@XZ 00852f30 f   atlsd:atltypes.obj
 0002:002d6f50       ?IsRectEmpty@CRect@@QBEHXZ 00852f50 f   atlsd:atltypes.obj
 0002:002d6f70       ?IsRectNull@CRect@@QBEHXZ  00852f70 f   atlsd:atltypes.obj
 0002:002d6fd0       ?PtInRect@CRect@@QBEHUtagPOINT@@@Z 00852fd0 f   atlsd:atltypes.obj
 0002:002d7000       ?SetRect@CRect@@QAEXHHHH@Z 00853000 f   atlsd:atltypes.obj
 0002:002d7040       ?SetRect@CRect@@QAEXUtagPOINT@@0@Z 00853040 f   atlsd:atltypes.obj
 0002:002d7080       ?SetRectEmpty@CRect@@QAEXXZ 00853080 f   atlsd:atltypes.obj
 0002:002d70a0       ?CopyRect@CRect@@QAEXPBUtagRECT@@@Z 008530a0 f   atlsd:atltypes.obj
 0002:002d70d0       ?EqualRect@CRect@@QBEHPBUtagRECT@@@Z 008530d0 f   atlsd:atltypes.obj
 0002:002d7100       ?InflateRect@CRect@@QAEXHH@Z 00853100 f   atlsd:atltypes.obj
 0002:002d7130       ?InflateRect@CRect@@QAEXUtagSIZE@@@Z 00853130 f   atlsd:atltypes.obj
 0002:002d7160       ?DeflateRect@CRect@@QAEXHH@Z 00853160 f   atlsd:atltypes.obj
 0002:002d7190       ?DeflateRect@CRect@@QAEXUtagSIZE@@@Z 00853190 f   atlsd:atltypes.obj
 0002:002d71c0       ?OffsetRect@CRect@@QAEXHH@Z 008531c0 f   atlsd:atltypes.obj
 0002:002d71f0       ?OffsetRect@CRect@@QAEXUtagPOINT@@@Z 008531f0 f   atlsd:atltypes.obj
 0002:002d7220       ?OffsetRect@CRect@@QAEXUtagSIZE@@@Z 00853220 f   atlsd:atltypes.obj
 0002:002d7250       ?MoveToY@CRect@@QAEXH@Z    00853250 f   atlsd:atltypes.obj
 0002:002d7290       ?MoveToX@CRect@@QAEXH@Z    00853290 f   atlsd:atltypes.obj
 0002:002d72d0       ?MoveToXY@CRect@@QAEXHH@Z  008532d0 f   atlsd:atltypes.obj
 0002:002d7300       ?MoveToXY@CRect@@QAEXUtagPOINT@@@Z 00853300 f   atlsd:atltypes.obj
 0002:002d7330       ?IntersectRect@CRect@@QAEHPBUtagRECT@@0@Z 00853330 f   atlsd:atltypes.obj
 0002:002d7360       ?UnionRect@CRect@@QAEHPBUtagRECT@@0@Z 00853360 f   atlsd:atltypes.obj
 0002:002d7390       ??4CRect@@QAEXABUtagRECT@@@Z 00853390 f   atlsd:atltypes.obj
 0002:002d73c0       ??8CRect@@QBEHABUtagRECT@@@Z 008533c0 f   atlsd:atltypes.obj
 0002:002d73f0       ??9CRect@@QBEHABUtagRECT@@@Z 008533f0 f   atlsd:atltypes.obj
 0002:002d7420       ??YCRect@@QAEXUtagPOINT@@@Z 00853420 f   atlsd:atltypes.obj
 0002:002d7450       ??YCRect@@QAEXUtagSIZE@@@Z 00853450 f   atlsd:atltypes.obj
 0002:002d7480       ??YCRect@@QAEXPBUtagRECT@@@Z 00853480 f   atlsd:atltypes.obj
 0002:002d74b0       ??ZCRect@@QAEXUtagPOINT@@@Z 008534b0 f   atlsd:atltypes.obj
 0002:002d74e0       ??ZCRect@@QAEXUtagSIZE@@@Z 008534e0 f   atlsd:atltypes.obj
 0002:002d7510       ??ZCRect@@QAEXPBUtagRECT@@@Z 00853510 f   atlsd:atltypes.obj
 0002:002d7540       ??_4CRect@@QAEXABUtagRECT@@@Z 00853540 f   atlsd:atltypes.obj
 0002:002d7570       ??_5CRect@@QAEXABUtagRECT@@@Z 00853570 f   atlsd:atltypes.obj
 0002:002d75a0       ??HCRect@@QBE?AV0@UtagPOINT@@@Z 008535a0 f   atlsd:atltypes.obj
 0002:002d7630       ??GCRect@@QBE?AV0@UtagPOINT@@@Z 00853630 f   atlsd:atltypes.obj
 0002:002d76c0       ??HCRect@@QBE?AV0@UtagSIZE@@@Z 008536c0 f   atlsd:atltypes.obj
 0002:002d7750       ??GCRect@@QBE?AV0@UtagSIZE@@@Z 00853750 f   atlsd:atltypes.obj
 0002:002d77e0       ??HCRect@@QBE?AV0@PBUtagRECT@@@Z 008537e0 f   atlsd:atltypes.obj
 0002:002d7850       ??GCRect@@QBE?AV0@PBUtagRECT@@@Z 00853850 f   atlsd:atltypes.obj
 0002:002d78c0       ??ICRect@@QBE?AV0@ABUtagRECT@@@Z 008538c0 f   atlsd:atltypes.obj
 0002:002d7940       ??UCRect@@QBE?AV0@ABUtagRECT@@@Z 00853940 f   atlsd:atltypes.obj
 0002:002d79c0       ?SubtractRect@CRect@@QAEHPBUtagRECT@@0@Z 008539c0 f   atlsd:atltypes.obj
 0002:002d79f0       ?NormalizeRect@CRect@@QAEXXZ 008539f0 f   atlsd:atltypes.obj
 0002:002d7a70       ?InflateRect@CRect@@QAEXPBUtagRECT@@@Z 00853a70 f   atlsd:atltypes.obj
 0002:002d7ae0       ?InflateRect@CRect@@QAEXHHHH@Z 00853ae0 f   atlsd:atltypes.obj
 0002:002d7b40       ?DeflateRect@CRect@@QAEXPBUtagRECT@@@Z 00853b40 f   atlsd:atltypes.obj
 0002:002d7bb0       ?DeflateRect@CRect@@QAEXHHHH@Z 00853bb0 f   atlsd:atltypes.obj
 0002:002d7c10       ?MulDiv@CRect@@QBE?AV1@HH@Z 00853c10 f   atlsd:atltypes.obj
 0002:002d7ca0       ??0CTimeSpan@ATL@@QAE@XZ   00853ca0 f   atlsd:atltime.obj
 0002:002d7cd0       ??0CTimeSpan@ATL@@QAE@_J@Z 00853cd0 f   atlsd:atltime.obj
 0002:002d7d00       ??0CTimeSpan@ATL@@QAE@JHHH@Z 00853d00 f   atlsd:atltime.obj
 0002:002d7da0       ?GetDays@CTimeSpan@ATL@@QBE_JXZ 00853da0 f   atlsd:atltime.obj
 0002:002d7dd0       ?GetTotalHours@CTimeSpan@ATL@@QBE_JXZ 00853dd0 f   atlsd:atltime.obj
 0002:002d7e00       ?GetHours@CTimeSpan@ATL@@QBEJXZ 00853e00 f   atlsd:atltime.obj
 0002:002d7e50       ?GetTotalMinutes@CTimeSpan@ATL@@QBE_JXZ 00853e50 f   atlsd:atltime.obj
 0002:002d7e80       ?GetMinutes@CTimeSpan@ATL@@QBEJXZ 00853e80 f   atlsd:atltime.obj
 0002:002d7ed0       ?GetTotalSeconds@CTimeSpan@ATL@@QBE_JXZ 00853ed0 f   atlsd:atltime.obj
 0002:002d7ef0       ?GetSeconds@CTimeSpan@ATL@@QBEJXZ 00853ef0 f   atlsd:atltime.obj
 0002:002d7f40       ?GetTimeSpan@CTimeSpan@ATL@@QBE_JXZ 00853f40 f   atlsd:atltime.obj
 0002:002d7f60       ??HCTimeSpan@ATL@@QBE?AV01@V01@@Z 00853f60 f   atlsd:atltime.obj
 0002:002d7fa0       ??GCTimeSpan@ATL@@QBE?AV01@V01@@Z 00853fa0 f   atlsd:atltime.obj
 0002:002d7fe0       ??YCTimeSpan@ATL@@QAEAAV01@V01@@Z 00853fe0 f   atlsd:atltime.obj
 0002:002d8020       ??ZCTimeSpan@ATL@@QAEAAV01@V01@@Z 00854020 f   atlsd:atltime.obj
 0002:002d8060       ??8CTimeSpan@ATL@@QBE_NV01@@Z 00854060 f   atlsd:atltime.obj
 0002:002d80b0       ??9CTimeSpan@ATL@@QBE_NV01@@Z 008540b0 f   atlsd:atltime.obj
 0002:002d8100       ??MCTimeSpan@ATL@@QBE_NV01@@Z 00854100 f   atlsd:atltime.obj
 0002:002d8160       ??OCTimeSpan@ATL@@QBE_NV01@@Z 00854160 f   atlsd:atltime.obj
 0002:002d81c0       ??NCTimeSpan@ATL@@QBE_NV01@@Z 008541c0 f   atlsd:atltime.obj
 0002:002d8220       ??PCTimeSpan@ATL@@QBE_NV01@@Z 00854220 f   atlsd:atltime.obj
 0002:002d8280       ?GetTickCount@CTime@ATL@@SG?AV12@XZ 00854280 f   atlsd:atltime.obj
 0002:002d82b0       ?IsValidFILETIME@CTime@ATL@@SGHABU_FILETIME@@@Z 008542b0 f   atlsd:atltime.obj
 0002:002d8320       ??0CTime@ATL@@QAE@XZ       00854320 f   atlsd:atltime.obj
 0002:002d8350       ??0CTime@ATL@@QAE@_J@Z     00854350 f   atlsd:atltime.obj
 0002:002d8380       ??0CTime@ATL@@QAE@HHHHHHH@Z 00854380 f   atlsd:atltime.obj
 0002:002d8760       ??0CTime@ATL@@QAE@GGH@Z    00854760 f   atlsd:atltime.obj
 0002:002d88a0       ??0CTime@ATL@@QAE@ABU_SYSTEMTIME@@H@Z 008548a0 f   atlsd:atltime.obj
 0002:002d8960       ??0CTime@ATL@@QAE@ABU_FILETIME@@H@Z 00854960 f   atlsd:atltime.obj
 0002:002d8a30       ??4CTime@ATL@@QAEAAV01@_J@Z 00854a30 f   atlsd:atltime.obj
 0002:002d8a60       ??YCTime@ATL@@QAEAAV01@VCTimeSpan@1@@Z 00854a60 f   atlsd:atltime.obj
 0002:002d8aa0       ??ZCTime@ATL@@QAEAAV01@VCTimeSpan@1@@Z 00854aa0 f   atlsd:atltime.obj
 0002:002d8ae0       ??GCTime@ATL@@QBE?AVCTimeSpan@1@V01@@Z 00854ae0 f   atlsd:atltime.obj
 0002:002d8b20       ??GCTime@ATL@@QBE?AV01@VCTimeSpan@1@@Z 00854b20 f   atlsd:atltime.obj
 0002:002d8b60       ??HCTime@ATL@@QBE?AV01@VCTimeSpan@1@@Z 00854b60 f   atlsd:atltime.obj
 0002:002d8ba0       ??8CTime@ATL@@QBE_NV01@@Z  00854ba0 f   atlsd:atltime.obj
 0002:002d8bf0       ??9CTime@ATL@@QBE_NV01@@Z  00854bf0 f   atlsd:atltime.obj
 0002:002d8c40       ??MCTime@ATL@@QBE_NV01@@Z  00854c40 f   atlsd:atltime.obj
 0002:002d8ca0       ??OCTime@ATL@@QBE_NV01@@Z  00854ca0 f   atlsd:atltime.obj
 0002:002d8d00       ??NCTime@ATL@@QBE_NV01@@Z  00854d00 f   atlsd:atltime.obj
 0002:002d8d60       ??PCTime@ATL@@QBE_NV01@@Z  00854d60 f   atlsd:atltime.obj
 0002:002d8dc0       ?GetGmtTm@CTime@ATL@@QBEPAUtm@@PAU3@@Z 00854dc0 f   atlsd:atltime.obj
 0002:002d8ea0       ?GetLocalTm@CTime@ATL@@QBEPAUtm@@PAU3@@Z 00854ea0 f   atlsd:atltime.obj
 0002:002d8f80       ?GetAsSystemTime@CTime@ATL@@QBE_NAAU_SYSTEMTIME@@@Z 00854f80 f   atlsd:atltime.obj
 0002:002d9060       ?GetTime@CTime@ATL@@QBE_JXZ 00855060 f   atlsd:atltime.obj
 0002:002d9080       ?GetYear@CTime@ATL@@QBEHXZ 00855080 f   atlsd:atltime.obj
 0002:002d90f0       ?GetMonth@CTime@ATL@@QBEHXZ 008550f0 f   atlsd:atltime.obj
 0002:002d9160       ?GetDay@CTime@ATL@@QBEHXZ  00855160 f   atlsd:atltime.obj
 0002:002d91c0       ?GetHour@CTime@ATL@@QBEHXZ 008551c0 f   atlsd:atltime.obj
 0002:002d9220       ?GetMinute@CTime@ATL@@QBEHXZ 00855220 f   atlsd:atltime.obj
 0002:002d9280       ?GetSecond@CTime@ATL@@QBEHXZ 00855280 f   atlsd:atltime.obj
 0002:002d92e0       ?GetDayOfWeek@CTime@ATL@@QBEHXZ 008552e0 f   atlsd:atltime.obj
 0002:002d9350       ??0CFileTimeSpan@ATL@@QAE@XZ 00855350 f   atlsd:atltime.obj
 0002:002d9380       ??0CFileTimeSpan@ATL@@QAE@ABV01@@Z 00855380 f   atlsd:atltime.obj
 0002:002d93b0       ??0CFileTimeSpan@ATL@@QAE@_J@Z 008553b0 f   atlsd:atltime.obj
 0002:002d93e0       ??4CFileTimeSpan@ATL@@QAEAAV01@ABV01@@Z 008553e0 f   atlsd:atltime.obj
 0002:002d9410       ??YCFileTimeSpan@ATL@@QAEAAV01@V01@@Z 00855410 f   atlsd:atltime.obj
 0002:002d9450       ??ZCFileTimeSpan@ATL@@QAEAAV01@V01@@Z 00855450 f   atlsd:atltime.obj
 0002:002d9490       ??HCFileTimeSpan@ATL@@QBE?AV01@V01@@Z 00855490 f   atlsd:atltime.obj
 0002:002d94d0       ??GCFileTimeSpan@ATL@@QBE?AV01@V01@@Z 008554d0 f   atlsd:atltime.obj
 0002:002d9510       ??8CFileTimeSpan@ATL@@QBE_NV01@@Z 00855510 f   atlsd:atltime.obj
 0002:002d9560       ??9CFileTimeSpan@ATL@@QBE_NV01@@Z 00855560 f   atlsd:atltime.obj
 0002:002d95b0       ??MCFileTimeSpan@ATL@@QBE_NV01@@Z 008555b0 f   atlsd:atltime.obj
 0002:002d9610       ??OCFileTimeSpan@ATL@@QBE_NV01@@Z 00855610 f   atlsd:atltime.obj
 0002:002d9670       ??NCFileTimeSpan@ATL@@QBE_NV01@@Z 00855670 f   atlsd:atltime.obj
 0002:002d96d0       ??PCFileTimeSpan@ATL@@QBE_NV01@@Z 008556d0 f   atlsd:atltime.obj
 0002:002d9730       ?GetTimeSpan@CFileTimeSpan@ATL@@QBE_JXZ 00855730 f   atlsd:atltime.obj
 0002:002d9750       ?SetTimeSpan@CFileTimeSpan@ATL@@QAEX_J@Z 00855750 f   atlsd:atltime.obj
 0002:002d9780       ??0CFileTime@ATL@@QAE@XZ   00855780 f   atlsd:atltime.obj
 0002:002d97b0       ??0CFileTime@ATL@@QAE@ABU_FILETIME@@@Z 008557b0 f   atlsd:atltime.obj
 0002:002d97f0       ??0CFileTime@ATL@@QAE@_K@Z 008557f0 f   atlsd:atltime.obj
 0002:002d9830       ??4CFileTime@ATL@@QAEAAV01@ABU_FILETIME@@@Z 00855830 f   atlsd:atltime.obj
 0002:002d9870       ?GetTickCount@CFileTime@ATL@@SG?AV12@XZ 00855870 f   atlsd:atltime.obj
 0002:002d98b0       ??YCFileTime@ATL@@QAEAAV01@VCFileTimeSpan@1@@Z 008558b0 f   atlsd:atltime.obj
 0002:002d9900       ??ZCFileTime@ATL@@QAEAAV01@VCFileTimeSpan@1@@Z 00855900 f   atlsd:atltime.obj
 0002:002d9950       ??HCFileTime@ATL@@QBE?AV01@VCFileTimeSpan@1@@Z 00855950 f   atlsd:atltime.obj
 0002:002d99a0       ??GCFileTime@ATL@@QBE?AV01@VCFileTimeSpan@1@@Z 008559a0 f   atlsd:atltime.obj
 0002:002d99f0       ??GCFileTime@ATL@@QBE?AVCFileTimeSpan@1@V01@@Z 008559f0 f   atlsd:atltime.obj
 0002:002d9a40       ??8CFileTime@ATL@@QBE_NV01@@Z 00855a40 f   atlsd:atltime.obj
 0002:002d9ab0       ??9CFileTime@ATL@@QBE_NV01@@Z 00855ab0 f   atlsd:atltime.obj
 0002:002d9b20       ??MCFileTime@ATL@@QBE_NV01@@Z 00855b20 f   atlsd:atltime.obj
 0002:002d9b90       ??OCFileTime@ATL@@QBE_NV01@@Z 00855b90 f   atlsd:atltime.obj
 0002:002d9c00       ??NCFileTime@ATL@@QBE_NV01@@Z 00855c00 f   atlsd:atltime.obj
 0002:002d9c70       ??PCFileTime@ATL@@QBE_NV01@@Z 00855c70 f   atlsd:atltime.obj
 0002:002d9ce0       ?GetTime@CFileTime@ATL@@QBE_KXZ 00855ce0 f   atlsd:atltime.obj
 0002:002d9d20       ?SetTime@CFileTime@ATL@@QAEX_K@Z 00855d20 f   atlsd:atltime.obj
 0002:002d9d60       ?UTCToLocal@CFileTime@ATL@@QBE?AV12@XZ 00855d60 f   atlsd:atltime.obj
 0002:002d9db0       ?LocalToUTC@CFileTime@ATL@@QBE?AV12@XZ 00855db0 f   atlsd:atltime.obj
 0002:002d9e00       ?AtlThrowImpl@ATL@@YGXJ@Z  00855e00 f i atlsd:atltime.obj
 0002:002d9eb0       ??RCTraceFileAndLineInfo@ATL@@QBAXKIPBDZZ 00855eb0 f i atlsd:atltime.obj
 0002:002d9f10       ?_AtlRaiseException@ATL@@YAXKK@Z 00855f10 f i atlsd:atltime.obj
 0002:002d9f30       ??0CAtlAllocator@@QAE@XZ   00855f30 f i atlsd:Externs.obj
 0002:002d9f90       ??0CTraceSnapshot@@QAE@XZ  00855f90 f i atlsd:Externs.obj
 0002:002d9fc0       ??0?$CSimpleArray@UCModuleInfo@CTraceSnapshot@@V?$CSimpleArrayEqualHelper@UCModuleInfo@CTraceSnapshot@@@ATL@@@ATL@@QAE@XZ 00855fc0 f i atlsd:Externs.obj
 0002:002da000       ??0?$CSimpleArray@KV?$CSimpleArrayEqualHelper@K@ATL@@@ATL@@QAE@XZ 00856000 f i atlsd:Externs.obj
 0002:002da170       ??0CAtlException@ATL@@QAE@J@Z 00856170 f i atlsd:Externs.obj
 0002:002da190       ?AtlCrtErrorCheck@ATL@@YAHH@Z 00856190 f i atlsd:Externs.obj
 0002:002da270       ??0CTrace@ATL@@AAE@P6AHHPBDH00ZZ@Z 00856270 f i atlsd:Externs.obj
 0002:002da2c0       ??1CAtlAllocator@@QAE@XZ   008562c0 f i atlsd:Externs.obj
 0002:002da2f0       ??1CTraceSnapshot@@QAE@XZ  008562f0 f i atlsd:Externs.obj
 0002:002da320       ??1?$CSimpleArray@UCModuleInfo@CTraceSnapshot@@V?$CSimpleArrayEqualHelper@UCModuleInfo@CTraceSnapshot@@@ATL@@@ATL@@QAE@XZ 00856320 f i atlsd:Externs.obj
 0002:002da340       ??1?$CSimpleArray@KV?$CSimpleArrayEqualHelper@K@ATL@@@ATL@@QAE@XZ 00856340 f i atlsd:Externs.obj
 0002:002da360       ?RemoveAll@?$CSimpleArray@UCModuleInfo@CTraceSnapshot@@V?$CSimpleArrayEqualHelper@UCModuleInfo@CTraceSnapshot@@@ATL@@@ATL@@QAEXXZ 00856360 f i atlsd:Externs.obj
 0002:002da3e0       ?RemoveAll@?$CSimpleArray@KV?$CSimpleArrayEqualHelper@K@ATL@@@ATL@@QAEXXZ 008563e0 f i atlsd:Externs.obj
 0002:002da460       ??1CTrace@ATL@@AAE@XZ      00856460 f i atlsd:Externs.obj
 0002:002da480       ??0CTraceCategory@ATL@@QAE@PBDI@Z 00856480 f i atlsd:atltrace.obj
 0002:002da4e0       ?ChangeCategory@CTrace@ATL@@QAE_NKIW4ATLTRACESTATUS@2@@Z 008564e0 f i atlsd:atltrace.obj
 0002:002da520       ?RegisterCategory@CTrace@ATL@@QAEKPBD@Z 00856520 f i atlsd:atltrace.obj
 0002:002da550       ?NotifyTool@ATL@@YGXXZ     00856550 f   atlsd:AtlDebugAPI.obj
 0002:002da5a0       _AtlTraceRegister@8        008565a0 f   atlsd:AtlDebugAPI.obj
 0002:002da630       _AtlTraceUnregister@4      00856630 f   atlsd:AtlDebugAPI.obj
 0002:002da670       _AtlTraceRegisterCategoryA@8 00856670 f   atlsd:AtlDebugAPI.obj
 0002:002da6f0       _AtlTraceRegisterCategoryU@8 008566f0 f   atlsd:AtlDebugAPI.obj
 0002:002da750       _AtlTraceModifyProcess@20  00856750 f   atlsd:AtlDebugAPI.obj
 0002:002da820       ?GetProcess@CAtlAllocator@@QBEPAVCAtlTraceProcess@@XZ 00856820 f i atlsd:AtlDebugAPI.obj
 0002:002da840       _AtlTraceModifyModule@16   00856840 f   atlsd:AtlDebugAPI.obj
 0002:002da960       _AtlTraceModifyCategory@16 00856960 f   atlsd:AtlDebugAPI.obj
 0002:002daa40       _AtlTraceGetProcess@20     00856a40 f   atlsd:AtlDebugAPI.obj
 0002:002dab50       _AtlTraceGetModule@16      00856b50 f   atlsd:AtlDebugAPI.obj
 0002:002daca0       _AtlTraceGetCategory@16    00856ca0 f   atlsd:AtlDebugAPI.obj
 0002:002dadc0       _AtlTraceGetUpdateEventNameA@4 00856dc0 f   atlsd:AtlDebugAPI.obj
 0002:002dae00       _AtlTraceGetUpdateEventNameA_s@8 00856e00 f   atlsd:AtlDebugAPI.obj
 0002:002dae40       _AtlTraceGetUpdateEventNameU@4 00856e40 f   atlsd:AtlDebugAPI.obj
 0002:002daec0       _AtlTraceGetUpdateEventNameU_s@8 00856ec0 f   atlsd:AtlDebugAPI.obj
 0002:002daf50       _AtlTraceVA                00856f50 f   atlsd:AtlDebugAPI.obj
 0002:002db330       ?Name@CAtlTraceCategory@@QBEPB_WXZ 00857330 f i atlsd:AtlDebugAPI.obj
 0002:002db350       _AtlTraceVU                00857350 f   atlsd:AtlDebugAPI.obj
 0002:002db770       _AtlTraceOpenProcess@4     00857770 f   atlsd:AtlDebugAPI.obj
 0002:002db8a0       ??_GCAtlAllocator@@QAEPAXI@Z 008578a0 f i atlsd:AtlDebugAPI.obj
 0002:002db8e0       _AtlTraceCloseProcess@4    008578e0 f   atlsd:AtlDebugAPI.obj
 0002:002db9a0       _AtlTraceSnapshotProcess@4 008579a0 f   atlsd:AtlDebugAPI.obj
 0002:002dba30       _AtlTraceGetProcessInfo@8  00857a30 f   atlsd:AtlDebugAPI.obj
 0002:002dbc40       ?Path@CAtlTraceModuleInfo@@QBEPB_WXZ 00857c40 f i atlsd:AtlDebugAPI.obj
 0002:002dbc60       ?Name@CAtlTraceModuleInfo@@QBEPB_WXZ 00857c60 f i atlsd:AtlDebugAPI.obj
 0002:002dbc80       ?Id@CAtlTraceProcess@@QBEKXZ 00857c80 f i atlsd:AtlDebugAPI.obj
 0002:002dbca0       _AtlTraceGetModuleInfo@12  00857ca0 f   atlsd:AtlDebugAPI.obj
 0002:002dbea0       _AtlTraceGetCategoryInfo@16 00857ea0 f   atlsd:AtlDebugAPI.obj
 0002:002dc300       ?CrtDbgReport@CAtlTraceModule@@QBEP6AHHPBDH00ZZXZ 00858300 f i atlsd:AtlDebugAPI.obj
 0002:002dc320       ?_IsTracingEnabled@ATL@@YA_NKKI@Z 00858320 f   atlsd:AtlDebugAPI.obj
 0002:002dc360       ?GetSize@?$CSimpleArray@UCModuleInfo@CTraceSnapshot@@V?$CSimpleArrayEqualHelper@UCModuleInfo@CTraceSnapshot@@@ATL@@@ATL@@QBEHXZ 00858360 f i atlsd:AtlDebugAPI.obj
 0002:002dc380       ??A?$CSimpleArray@UCModuleInfo@CTraceSnapshot@@V?$CSimpleArrayEqualHelper@UCModuleInfo@CTraceSnapshot@@@ATL@@@ATL@@QAEAAUCModuleInfo@CTraceSnapshot@@H@Z 00858380 f i atlsd:AtlDebugAPI.obj
 0002:002dc410       ?strcpy_s@Checked@ATL@@YAXPADIPBD@Z 00858410 f i atlsd:AtlDebugAPI.obj
 0002:002dc440       ?wcscpy_s@Checked@ATL@@YAXPA_WIPB_W@Z 00858440 f i atlsd:AtlDebugAPI.obj
 0002:002dc470       ??0?$CA2WEX@$0IA@@ATL@@QAE@PBD@Z 00858470 f i atlsd:AtlDebugAPI.obj
 0002:002dc4b0       ?_AtlGetConversionACP@ATL@@YGIXZ 008584b0 f i atlsd:AtlDebugAPI.obj
 0002:002dc4c0       ??1?$CA2WEX@$0IA@@ATL@@QAE@XZ 008584c0 f i atlsd:AtlDebugAPI.obj
 0002:002dc4f0       ??B?$CA2WEX@$0IA@@ATL@@QBEPA_WXZ 008584f0 f i atlsd:AtlDebugAPI.obj
 0002:002dc510       ?Init@?$CA2WEX@$0IA@@ATL@@AAEXPBDI@Z 00858510 f i atlsd:AtlDebugAPI.obj
 0002:002dc650       ?AtlThrowLastWin32@ATL@@YGXXZ 00858650 f i atlsd:AtlDebugAPI.obj
 0002:002dc680       _HRESULT_FROM_WIN32        00858680 f i atlsd:AtlDebugAPI.obj
 0002:002dc6c0       ??$AtlConvFreeMemory@_W@ATL@@YAXPA_W0H@Z 008586c0 f i atlsd:AtlDebugAPI.obj
 0002:002dc710       ??$AtlConvAllocMemory@_W@ATL@@YAXPAPA_WHPA_WH@Z 00858710 f i atlsd:AtlDebugAPI.obj
 0002:002dc900       ?Init@CAtlAllocator@@QAE_NPBDK@Z 00858900 f   atlsd:Allocate.obj
 0002:002dcd00       ?IncRef@CAtlTraceProcess@@QAEIXZ 00858d00 f i atlsd:Allocate.obj
 0002:002dcd40       ?Base@CAtlTraceProcess@@QBEPAXXZ 00858d40 f i atlsd:Allocate.obj
 0002:002dcd60       ?Open@CAtlAllocator@@QAE_NPBD@Z 00858d60 f   atlsd:Allocate.obj
 0002:002dcef0       ?Close@CAtlAllocator@@QAEX_N@Z 00858ef0 f   atlsd:Allocate.obj
 0002:002dcf70       ?DecRef@CAtlTraceProcess@@QAEIXZ 00858f70 f i atlsd:Allocate.obj
 0002:002dcfb0       ?GetModule@CAtlAllocator@@QBEPAVCAtlTraceModule@@H@Z 00858fb0 f   atlsd:Allocate.obj
 0002:002dd070       ?ModuleCount@CAtlTraceProcess@@QBEHXZ 00859070 f i atlsd:Allocate.obj
 0002:002dd090       ?GetCategory@CAtlAllocator@@QBEPAVCAtlTraceCategory@@H@Z 00859090 f   atlsd:Allocate.obj
 0002:002dd170       ?MaxSize@CAtlTraceProcess@@QBEKXZ 00859170 f i atlsd:Allocate.obj
 0002:002dd190       ?CategoryCount@CAtlTraceProcess@@QBEHXZ 00859190 f i atlsd:Allocate.obj
 0002:002dd1b0       ?GetCategoryCount@CAtlAllocator@@QBEHH@Z 008591b0 f   atlsd:Allocate.obj
 0002:002dd250       ?GetCategoryCount@CAtlAllocator@@QBEHABVCAtlTraceModule@@@Z 00859250 f   atlsd:Allocate.obj
 0002:002dd2d0       ?GetModuleCount@CAtlAllocator@@QBEHXZ 008592d0 f   atlsd:Allocate.obj
 0002:002dd340       ?FindModule@CAtlAllocator@@QBE_NPB_WPAI@Z 00859340 f   atlsd:Allocate.obj
 0002:002dd3e0       ?AddModule@CAtlAllocator@@QAEHPAUHINSTANCE__@@@Z 008593e0 f   atlsd:Allocate.obj
 0002:002dd620       ?TryAllocate@CAtlTraceSettings@@QAE_NXZ 00859620 f i atlsd:Allocate.obj
 0002:002dd670       ?MarkValid@CAtlTraceSettings@@QAEXJ@Z 00859670 f i atlsd:Allocate.obj
 0002:002dd6c0       ?IncModuleCount@CAtlTraceProcess@@QAEXI@Z 008596c0 f i atlsd:Allocate.obj
 0002:002dd6f0       ?AddCategory@CAtlAllocator@@QAEHHPB_W@Z 008596f0 f   atlsd:Allocate.obj
 0002:002dd9b0       ?TryAddRef@CAtlTraceSettings@@QAE_NXZ 008599b0 f i atlsd:Allocate.obj
 0002:002dda00       ?Release@CAtlTraceSettings@@QAEXXZ 00859a00 f i atlsd:Allocate.obj
 0002:002dda40       ?IncCategoryCount@CAtlTraceProcess@@QAEXI@Z 00859a40 f i atlsd:Allocate.obj
 0002:002dda70       ?RemoveModule@CAtlAllocator@@QAE_NH@Z 00859a70 f   atlsd:Allocate.obj
 0002:002ddb50       ?CleanUp@CAtlAllocator@@QAEXXZ 00859b50 f   atlsd:Allocate.obj
 0002:002ddb70       ?TakeSnapshot@CAtlAllocator@@QAEXXZ 00859b70 f   atlsd:Allocate.obj
 0002:002dddd0       ?ReleaseSnapshot@CAtlAllocator@@QAEXXZ 00859dd0 f   atlsd:Allocate.obj
 0002:002ddee0       ?Add@?$CSimpleArray@UCModuleInfo@CTraceSnapshot@@V?$CSimpleArrayEqualHelper@UCModuleInfo@CTraceSnapshot@@@ATL@@@ATL@@QAEHABUCModuleInfo@CTraceSnapshot@@@Z 00859ee0 f i atlsd:Allocate.obj
 0002:002de060       ?GetSize@?$CSimpleArray@KV?$CSimpleArrayEqualHelper@K@ATL@@@ATL@@QBEHXZ 0085a060 f i atlsd:Allocate.obj
 0002:002de080       ?Add@?$CSimpleArray@KV?$CSimpleArrayEqualHelper@K@ATL@@@ATL@@QAEHABK@Z 0085a080 f i atlsd:Allocate.obj
 0002:002de200       ?RemoveAt@?$CSimpleArray@KV?$CSimpleArrayEqualHelper@K@ATL@@@ATL@@QAEHH@Z 0085a200 f i atlsd:Allocate.obj
 0002:002de2f0       ??A?$CSimpleArray@KV?$CSimpleArrayEqualHelper@K@ATL@@@ATL@@QAEAAKH@Z 0085a2f0 f i atlsd:Allocate.obj
 0002:002de380       ?InternalSetAtIndex@?$CSimpleArray@UCModuleInfo@CTraceSnapshot@@V?$CSimpleArrayEqualHelper@UCModuleInfo@CTraceSnapshot@@@ATL@@@ATL@@QAEXHABUCModuleInfo@CTraceSnapshot@@@Z 0085a380 f i atlsd:Allocate.obj
 0002:002de3e0       ?InternalSetAtIndex@?$CSimpleArray@KV?$CSimpleArrayEqualHelper@K@ATL@@@ATL@@QAEXHABK@Z 0085a3e0 f i atlsd:Allocate.obj
 0002:002de440       ??0Wrapper@?$CSimpleArray@UCModuleInfo@CTraceSnapshot@@V?$CSimpleArrayEqualHelper@UCModuleInfo@CTraceSnapshot@@@ATL@@@ATL@@QAE@ABUCModuleInfo@CTraceSnapshot@@@Z 0085a440 f i atlsd:Allocate.obj
 0002:002de480       ??0Wrapper@?$CSimpleArray@KV?$CSimpleArrayEqualHelper@K@ATL@@@ATL@@QAE@ABK@Z 0085a480 f i atlsd:Allocate.obj
 0002:002de4b0       ??$?2UCModuleInfo@CTraceSnapshot@@@Wrapper@?$CSimpleArray@UCModuleInfo@CTraceSnapshot@@V?$CSimpleArrayEqualHelper@UCModuleInfo@CTraceSnapshot@@@ATL@@@ATL@@SAPAXIPAUCModuleInfo@CTraceSnapshot@@@Z 0085a4b0 f i atlsd:Allocate.obj
 0002:002de4c0       ??$?2K@Wrapper@?$CSimpleArray@KV?$CSimpleArrayEqualHelper@K@ATL@@@ATL@@SAPAXIPAK@Z 0085a4c0 f i atlsd:Allocate.obj
 0002:002de4d0       ??0CAtlTraceModuleInfo@@QAE@XZ 0085a4d0 f   atlsd:AtlTraceModuleManager.obj
 0002:002de530       ?Reset@CAtlTraceModuleInfo@@QAEXPAUHINSTANCE__@@@Z 0085a530 f   atlsd:AtlTraceModuleManager.obj
 0002:002de6c0       ??0CAtlTraceCategory@@QAE@XZ 0085a6c0 f   atlsd:AtlTraceModuleManager.obj
 0002:002de710       ??0CAtlTraceSettings@@QAE@XZ 0085a710 f i atlsd:AtlTraceModuleManager.obj
 0002:002de760       ?Reset@CAtlTraceCategory@@QAEXPB_WJ@Z 0085a760 f   atlsd:AtlTraceModuleManager.obj
 0002:002de7c0       ??0CAtlTraceModule@@QAE@XZ 0085a7c0 f   atlsd:AtlTraceModuleManager.obj
 0002:002de800       ?CrtDbgReport@CAtlTraceModule@@QAEXP6AHHPBDH00ZZ@Z 0085a800 f   atlsd:AtlTraceModuleManager.obj
 0002:002de840       ??0CAtlTraceProcess@@QAE@K@Z 0085a840 f   atlsd:AtlTraceModuleManager.obj
 0002:002de950       ?GetNextCookie@CAtlTraceProcess@@QAEJXZ 0085a950 f   atlsd:AtlTraceModuleManager.obj
 0002:002de974       _OleLoadPicture@20         0085a974 f   oleaut32:OLEAUT32.dll
 0002:002de97a       _SysFreeString@4           0085a97a f   oleaut32:OLEAUT32.dll
 0002:002de980       _WinMain@16                0085a980 f   mfcs100d:appmodul.obj
 0002:002de9b0       ?AfxInitialize@@YGHHK@Z    0085a9b0 f   mfcs100d:appmodul.obj
 0002:002dea1c       __mktime64                 0085aa1c f   msvcrtd:MSVCR100D.dll
 0002:002dea22       __gmtime64_s               0085aa22 f   msvcrtd:MSVCR100D.dll
 0002:002dea28       __localtime64_s            0085aa28 f   msvcrtd:MSVCR100D.dll
 0002:002dea30       __aullshr                  0085aa30 f   msvcrtd:ullshr.obj
 0002:002dea60       __allshl                   0085aa60 f   msvcrtd:llshl.obj
 0002:002dea86       __snprintf_s               0085aa86 f   msvcrtd:MSVCR100D.dll
 0002:002dea8c       __errno                    0085aa8c f   msvcrtd:MSVCR100D.dll
 0002:002dea92       _wcscpy                    0085aa92 f   msvcrtd:MSVCR100D.dll
 0002:002dea98       __vsnprintf_s              0085aa98 f   msvcrtd:MSVCR100D.dll
 0002:002dea9e       __vsnwprintf_s             0085aa9e f   msvcrtd:MSVCR100D.dll
 0002:002deaa4       __snwprintf_s              0085aaa4 f   msvcrtd:MSVCR100D.dll
 0002:002deaaa       _wcscpy_s                  0085aaaa f   msvcrtd:MSVCR100D.dll
 0002:002deab0       _wcsncpy_s                 0085aab0 f   msvcrtd:MSVCR100D.dll
 0002:002deab6       __recalloc                 0085aab6 f   msvcrtd:MSVCR100D.dll
 0002:002deabc       __wcsicmp                  0085aabc f   msvcrtd:MSVCR100D.dll
 0002:002deac2       _wcslen                    0085aac2 f   msvcrtd:MSVCR100D.dll
 0002:002deac8       __setmode                  0085aac8 f   msvcrtd:MSVCR100D.dll
 0002:002deac8       _setmode                   0085aac8 f   msvcrtd:MSVCR100D.dll
 0002:002deace       __fileno                   0085aace f   msvcrtd:MSVCR100D.dll
 0002:002dead4       __setmbcp                  0085aad4 f   msvcrtd:MSVCR100D.dll
 0002:002deada       _MulDiv@12                 0085aada f   kernel32:KERNEL32.dll
 0002:002deae0       _FileTimeToSystemTime@8    0085aae0 f   kernel32:KERNEL32.dll
 0002:002deae6       _FileTimeToLocalFileTime@8 0085aae6 f   kernel32:KERNEL32.dll
 0002:002deaec       _LocalFileTimeToFileTime@8 0085aaec f   kernel32:KERNEL32.dll
 0002:002deaf2       _SetEvent@4                0085aaf2 f   kernel32:KERNEL32.dll
 0002:002deaf8       _OpenEventA@12             0085aaf8 f   kernel32:KERNEL32.dll
 0002:002deafe       _OutputDebugStringW@4      0085aafe f   kernel32:KERNEL32.dll
 0002:002deb04       _VirtualAlloc@16           0085ab04 f   kernel32:KERNEL32.dll
 0002:002deb0a       _GetSystemInfo@4           0085ab0a f   kernel32:KERNEL32.dll
 0002:002deb10       _OpenFileMappingA@12       0085ab10 f   kernel32:KERNEL32.dll
 0002:002deb16       _CopyRect@8                0085ab16 f   user32:USER32.dll
 0002:002deb1c       _IsRectEmpty@4             0085ab1c f   user32:USER32.dll
 0002:002deb22       _PtInRect@12               0085ab22 f   user32:USER32.dll
 0002:002deb28       _SetRect@20                0085ab28 f   user32:USER32.dll
 0002:002deb2e       _SetRectEmpty@4            0085ab2e f   user32:USER32.dll
 0002:002deb34       _EqualRect@8               0085ab34 f   user32:USER32.dll
 0002:002deb3a       _InflateRect@12            0085ab3a f   user32:USER32.dll
 0002:002deb40       _OffsetRect@12             0085ab40 f   user32:USER32.dll
 0002:002deb46       _IntersectRect@12          0085ab46 f   user32:USER32.dll
 0002:002deb4c       _UnionRect@12              0085ab4c f   user32:USER32.dll
 0002:002deb52       _SubtractRect@12           0085ab52 f   user32:USER32.dll
 0002:002deb58       _SetThreadToken@8          0085ab58 f   advapi32:ADVAPI32.dll
 0002:002deb5e       _RevertToSelf@0            0085ab5e f   advapi32:ADVAPI32.dll
 0002:002deb64       _OpenThreadToken@16        0085ab64 f   advapi32:ADVAPI32.dll
 0002:002deb6a       ?AfxWinMain@@YGHPAUHINSTANCE__@@0PADH@Z 0085ab6a f   mfc100d:mfc100d.dll
 0002:002deb70       ?AfxGetModuleState@@YGPAVAFX_MODULE_STATE@@XZ 0085ab70 f   mfc100d:mfc100d.dll
 0002:00304240       ??__Fstd_err@?1??instance@CQAFDebug@@KAAAV1@XZ@YAXXZ 00880240 f i QAFDebug.obj
 0003:00000000       ___xc_a                    00882000     msvcrtd:cinitexe.obj
 0003:00000668       ___xc_z                    00882668     msvcrtd:cinitexe.obj
 0003:0000076c       ___xi_a                    0088276c     msvcrtd:cinitexe.obj
 0003:00000b7c       ___xi_z                    00882b7c     msvcrtd:cinitexe.obj
 0003:00000c9c       ??_C@_13COJANIEC@?$AA0?$AA?$AA@ 00882c9c     Cuid.obj
 0003:00000ca0       ??_C@_1EC@GDBHLFJM@?$AAd?$AA?3?$AA?2?$AAf?$AAr?$AAe?$AAe?$AAp?$AAc?$AAb?$AAd?$AAe?$AAv?$AA?2?$AAf?$AAr?$AAe?$AAe?$AAp?$AAc?$AAb?$AA?9?$AA2?$AA?2?$AAc?$AAu?$AAi?$AAd?$AA?4?$AAc?$AAp?$AAp@ 00882ca0     Cuid.obj
 0003:00000cf0       __real@4000000000000000    00882cf0     DesignRules.obj
 0003:00000d00       __real@413360f000000000    00882d00     DesignRules.obj
 0003:00000d0c       ??_C@_0CI@EHGHNGAO@d?3?2freepcbdev?2freepcb?92?2designru@ 00882d0c     DesignRules.obj
 0003:00000d40       ??_C@_0FB@LMHGDHBC@c?3?2program?5files?5?$CIx86?$CJ?2microsoft@ 00882d40     DesignRules.obj
 0003:00000da1       ??_C@_00CNPNBAHC@?$AA@     00882da1     DisplayList.obj
 0003:00000da8       ??_C@_0HK@PAGFEDFA@?T?n?r?n?5?l?n?f?m?n?5?g?$OA?c?p?s?g?h?r?$PM?5?r?n?k?$PM?j?n?5?m?$OA?5?j@ 00882da8     DisplayList.obj
 0003:00000e40       ??_C@_0IB@KJCMGHOF@The?5photo?5can?5only?5be?5uploaded?5t@ 00882e40     DisplayList.obj
 0003:00000edc       ??_C@_01HIHLOKLC@1?$AA@    00882edc     DisplayList.obj
 0003:00000ee0       ??_C@_01FDFGLJHB@2?$AA@    00882ee0     DisplayList.obj
 0003:00000ee4       ??_C@_04MMEBIPMJ@?4tmp?$AA@ 00882ee4     DisplayList.obj
 0003:00000ef0       __real@0000000000000000    00882ef0     DisplayList.obj
 0003:00000f00       __real@4093d80000000000    00882f00     DisplayList.obj
 0003:00000f0c       ??_C@_0CI@HKACBLOF@d?3?2freepcbdev?2freepcb?92?2displayl@ 00882f0c     DisplayList.obj
 0003:00000f40       __real@403e000000000000    00882f40     DisplayList.obj
 0003:00000f50       __real@4024000000000000    00882f50     DisplayList.obj
 0003:00000f60       __real@402e000000000000    00882f60     DisplayList.obj
 0003:00000f70       ??_C@_1FA@HBKLNOCG@?$AAd?$AA?3?$AA?2?$AAf?$AAr?$AAe?$AAe?$AAp?$AAc?$AAb?$AAd?$AAe?$AAv?$AA?2?$AAf?$AAr?$AAe?$AAe?$AAp?$AAc?$AAb?$AA?9?$AA2?$AA?2?$AAd?$AAi?$AAs?$AAp?$AAl?$AAa?$AAy?$AAl@ 00882f70     DisplayList.obj
 0003:00000fd0       __real@4014000000000000    00882fd0     DisplayList.obj
 0003:00000fe0       __real@4008000000000000    00882fe0     DisplayList.obj
 0003:00000ff0       __real@4028000000000000    00882ff0     DisplayList.obj
 0003:00001000       __real@4010000000000000    00883000     DisplayList.obj
 0003:00001010       __real@4018000000000000    00883010     DisplayList.obj
 0003:00001020       __real@3fe0000000000000    00883020     DisplayList.obj
 0003:0000102c       ??_C@_1DM@MMGFGJEG@?$AAm?$AA_?$AAd?$AAr?$AAa?$AAg?$AA_?$AAs?$AAt?$AAy?$AAl?$AAe?$AA1?$AA?5?$AA?$DN?$AA?$DN?$AA?5?$AAD?$AAS?$AAS?$AA_?$AAS?$AAT?$AAR?$AAA?$AAI?$AAG?$AAH?$AAT?$AA?$AA@ 0088302c     DisplayList.obj
 0003:00001074       ??_C@_1DM@FJBFLNND@?$AAm?$AA_?$AAd?$AAr?$AAa?$AAg?$AA_?$AAs?$AAt?$AAy?$AAl?$AAe?$AA0?$AA?5?$AA?$DN?$AA?$DN?$AA?5?$AAD?$AAS?$AAS?$AA_?$AAS?$AAT?$AAR?$AAA?$AAI?$AAG?$AAH?$AAT?$AA?$AA@ 00883074     DisplayList.obj
 0003:000010bc       __real@c2b40000            008830bc     DisplayList.obj
 0003:000010c4       ??_7?$CArray@VCPoint@@ABV1@@@6B@ 008830c4     DisplayList.obj
 0003:000010dc       ??_C@_01EEMJAFIK@?6?$AA@   008830dc     DisplayList.obj
 0003:000010e0       ??_C@_05PLCFPPOI@with?5?$AA@ 008830e0     DisplayList.obj
 0003:000010e8       ??_C@_09HCLNAIDE@?5elements?$AA@ 008830e8     DisplayList.obj
 0003:000010f4       ??_C@_0M@MJGLJDGE@CDlgAddArea?$AA@ 008830f4     DlgAddArea.obj
 0003:00001104       ?classCDlgAddArea@CDlgAddArea@@2UCRuntimeClass@@B 00883104     DlgAddArea.obj
 0003:00001204       ??_7CDlgAddArea@@6B@       00883204     DlgAddArea.obj
 0003:000013e4       ??_C@_0CO@FGGDJGHI@?M?e?d?n?o?s?q?r?h?l?n?e?5?g?m?$OA?w?e?m?h?e?5?r?n?k?y?h?m?$PL?5?j?n@ 008833e4     DlgAddArea.obj
 0003:0000141c       ??_C@_0BD@DFOOBCB@Illegal?5fill?5width?$AA@ 0088341c     DlgAddArea.obj
 0003:00001438       __real@412e848000000000    00883438     DlgAddArea.obj
 0003:00001448       __real@40d8ce0000000000    00883448     DlgAddArea.obj
 0003:00001454       ??_C@_0BJ@PKPBCKHJ@?M?e?d?n?o?s?q?r?h?l?n?e?5?h?l?$PP?5?$PN?k?4?v?e?o?h?$AA@ 00883454     DlgAddArea.obj
 0003:00001474       ??_C@_0BB@KAOONMBF@Illegal?5net?5name?$AA@ 00883474     DlgAddArea.obj
 0003:00001488       ??_C@_1EO@OJAKABMP@?$AAd?$AA?3?$AA?2?$AAf?$AAr?$AAe?$AAe?$AAp?$AAc?$AAb?$AAd?$AAe?$AAv?$AA?2?$AAf?$AAr?$AAe?$AAe?$AAp?$AAc?$AAb?$AA?9?$AA2?$AA?2?$AAd?$AAl?$AAg?$AAa?$AAd?$AAd?$AAa?$AAr@ 00883488     DlgAddArea.obj
 0003:000014e8       ??_C@_0LO@ICBAOIDN@?$NN?r?n?r?5?r?h?o?5?o?n?k?h?c?n?m?$OA?5?o?p?e?d?q?r?$OA?b?k?$PP?e?r?5?q@ 008834e8     DlgAddArea.obj
 0003:000015d0       ??_C@_0KJ@DCFMLBFM@This?5type?5of?5copper?5area?5is?5a?5co@ 008835d0     DlgAddArea.obj
 0003:000016a0       ??_C@_0CEE@KOAGKMEP@?$NN?r?n?r?5?r?h?o?5?o?n?k?h?c?n?m?n?b?5?o?p?h?n?a?p?e?r?$OA?e?r?5?q@ 008836a0     DlgAddArea.obj
 0003:00001958       ??_C@_0BNK@FNHGOAKF@This?5type?5of?5copper?5area?5takes?5o@ 00883958     DlgAddArea.obj
 0003:00001b90       ??_C@_0GL@NLKMBAME@?N?a?z?e?j?r?5?l?e?d?m?n?i?5?g?$OA?k?h?b?j?h?4?5?L?n?f?m?n?5?d?n?a@ 00883b90     DlgAddArea.obj
 0003:00001c10       ??_C@_0GJ@GPJDCPOM@Copper?5fill?5object?4?5You?5can?5add?5@ 00883c10     DlgAddArea.obj
 0003:00001c90       ??_C@_0M@HEHGOAHF@CDlgAddCode?$AA@ 00883c90     DlgAddCode.obj
 0003:00001ca0       ?classCDlgAddCode@CDlgAddCode@@2UCRuntimeClass@@B 00883ca0     DlgAddCode.obj
 0003:00001d44       ??_C@_0M@KGGAJAJ@Courier?5New?$AA@ 00883d44     DlgAddCode.obj
 0003:00001d5c       ??_7CDlgAddCode@@6B@       00883d5c     DlgAddCode.obj
 0003:00001f3c       ??_C@_01NLNLIGKH@?$GA?$AA@ 00883f3c     DlgAddCode.obj
 0003:00001f40       ??_C@_01BJJEKLCA@?$CC?$AA@ 00883f40     DlgAddCode.obj
 0003:00001f44       ??_C@_02PCIJFNDE@?$AN?6?$AA@ 00883f44     DlgAddCode.obj
 0003:00001f48       ??_C@_01CELHOKLL@?$HN?$AA@ 00883f48     DlgAddCode.obj
 0003:00001f4c       ??_C@_0DA@DBNGNAGD@?5?5?5?5import?$CI?$GA?4?4?2?2?4?4?2?2?4?4?2?2?4?4?2?2?4?4?2?2@ 00883f4c     DlgAddCode.obj
 0003:00001f88       ??_C@_0BE@CGLBOEMM@?5?5?5?5rotate?$CI?$FL0?00?00?$FN?$CJ?$AA@ 00883f88     DlgAddCode.obj
 0003:00001fa0       ??_C@_0BH@KPDHCKKN@?5?5?5?5translate?$CI?$FL0?00?00?$FN?$CJ?$AA@ 00883fa0     DlgAddCode.obj
 0003:00001fbc       ??_C@_0BC@MEPFMHGL@?5?5?5?5color?$CI?$GAAqua?$GA?$CJ?$AA@ 00883fbc     DlgAddCode.obj
 0003:00001fd4       ??_C@_0CI@EJLKFFLG@?5?5?5?5?1?1?5add?5your?5code?5here?0?5for?5e@ 00883fd4     DlgAddCode.obj
 0003:00002004       ??_C@_01HCONENDN@?$HL?$AA@ 00884004     DlgAddCode.obj
 0003:00002008       ??_C@_0EN@PHHEDEIJ@scale?$CI?$FL1?01?01?$FN?$CJ?5?5?5?5?5?1?1?5?$CIautomatic@ 00884008     DlgAddCode.obj
 0003:00002068       ??_C@_0EO@LKKOEJDN@translate?$CI?$FL0?00?00?$FN?$CJ?5?1?1?5?$CIautomatic@ 00884068     DlgAddCode.obj
 0003:000020c8       ??_C@_01LIIJDEN@?$AN?$AA@  008840c8     DlgAddCode.obj
 0003:000020cc       ??_C@_0BF@DIICAJHD@?5?5?5?5?1?1?5add?5your?5code?$AA@ 008840cc     DlgAddCode.obj
 0003:000020e8       ??_C@_0BK@NJJFLCFM@?5?5?5?5?1?1?9?9?9?9?9?9?9?9?9?9?9?9?9?9?9?9?9?9?9?$AA@ 008840e8     DlgAddCode.obj
 0003:00002108       ??_C@_0M@NLFIANM@CDlgAddHole?$AA@ 00884108     DlgAddHole.obj
 0003:00002118       ?classCDlgAddHole@CDlgAddHole@@2UCRuntimeClass@@B 00884118     DlgAddHole.obj
 0003:000021c4       ??_7CDlgAddHole@@6B@       008841c4     DlgAddHole.obj
 0003:000023a4       ??_C@_0BA@DANGMKMI@?5?5?5?5sphere?$CI10?$CJ?$DL?$AA@ 008843a4     DlgAddHole.obj
 0003:000023b8       ??_C@_0BD@PDPMENCB@?5?5?5?5color?$CI?$GABrown?$GA?$CJ?$AA@ 008843b8     DlgAddHole.obj
 0003:000023d0       ??_C@_0BC@KHHBAGNL@CDlgAddMaskCutout?$AA@ 008843d0     DlgAddMaskCutout.obj
 0003:000023e8       ?classCDlgAddMaskCutout@CDlgAddMaskCutout@@2UCRuntimeClass@@B 008843e8     DlgAddMaskCutout.obj
 0003:00002454       ??_7CDlgAddMaskCutout@@6B@ 00884454     DlgAddMaskCutout.obj
 0003:00002638       ??_C@_1FK@DFKOBJOG@?$AAd?$AA?3?$AA?2?$AAf?$AAr?$AAe?$AAe?$AAp?$AAc?$AAb?$AAd?$AAe?$AAv?$AA?2?$AAf?$AAr?$AAe?$AAe?$AAp?$AAc?$AAb?$AA?9?$AA2?$AA?2?$AAd?$AAl?$AAg?$AAa?$AAd?$AAd?$AAm?$AAa@ 00884638     DlgAddMaskCutout.obj
 0003:000026a4       ??_C@_0M@KDOMEKJG@BOTTOM?5SILK?$AA@ 008846a4     DlgAddMaskCutout.obj
 0003:000026b4       ??_C@_08BBCOIHCN@TOP?5SILK?$AA@ 008846b4     DlgAddMaskCutout.obj
 0003:000026c0       ??_C@_0BD@ILAKGHAN@BOTTOM?5SOLDER?5MASK?$AA@ 008846c0     DlgAddMaskCutout.obj
 0003:000026d8       ??_C@_0BA@CAKAEMJH@TOP?5SOLDER?5MASK?$AA@ 008846d8     DlgAddMaskCutout.obj
 0003:000026ec       ??_C@_0N@CHGCGCDD@BOTTOM?5NOTES?$AA@ 008846ec     DlgAddMaskCutout.obj
 0003:000026fc       ??_C@_09HLGDMKPK@TOP?5NOTES?$AA@ 008846fc     DlgAddMaskCutout.obj
 0003:00002708       ??_C@_0BB@KPAAACJF@SCRIBING?5?$CIV?9cut?$CJ?$AA@ 00884708     DlgAddMaskCutout.obj
 0003:0000271c       ??_C@_0O@BAIAKODM@BOARD?5OUTLINE?$AA@ 0088471c     DlgAddMaskCutout.obj
 0003:0000272c       ??_C@_0N@DONNMJEN@CDlgAddMerge?$AA@ 0088472c     DlgAddMerge.obj
 0003:0000273c       ?classCDlgAddMerge@CDlgAddMerge@@2UCRuntimeClass@@B 0088473c     DlgAddMerge.obj
 0003:0000278c       ??_7CDlgAddMerge@@6B@      0088478c     DlgAddMerge.obj
 0003:0000296c       ??_C@_08ELFMLPKD@Units?5NM?$AA@ 0088496c     DlgAddMerge.obj
 0003:00002978       ??_C@_09GOEKJNG@Units?5MIL?$AA@ 00884978     DlgAddMerge.obj
 0003:00002984       ??_C@_08EJBKABPK@Units?5MM?$AA@ 00884984     DlgAddMerge.obj
 0003:00002990       ??_C@_03MDAFIFFL@0?40?$AA@ 00884990     DlgAddMerge.obj
 0003:00002994       ??_C@_04OHJIHAFH@None?$AA@ 00884994     DlgAddMerge.obj
 0003:0000299c       ??_C@_08PJDIHONO@Merge?9?$CFs?$AA@ 0088499c     DlgAddMerge.obj
 0003:000029a8       ??_C@_07GGADEGEP@Merge?91?$AA@ 008849a8     DlgAddMerge.obj
 0003:000029b4       ??_C@_05LGDANENA@Empty?$AA@ 008849b4     DlgAddMerge.obj
 0003:000029bc       ??_C@_03JEECBGEF@MIL?$AA@  008849bc     DlgAddMerge.obj
 0003:000029c0       ??_C@_02DNCLAJDG@MM?$AA@   008849c0     DlgAddMerge.obj
 0003:000029c4       ??_C@_0DJ@KMINLEAD@?M?e?d?n?o?s?q?r?h?l?n?e?5?h?l?$PP?5?q?k?h?$PP?m?h?$PP?4?5?H?l?$PP?5?m?e@ 008849c4     DlgAddMerge.obj
 0003:00002a08       ??_C@_0EA@ELJPDJIE@Illegal?5merge?5name?4?5The?5name?5can@ 00884a08     DlgAddMerge.obj
 0003:00002a54       ??_C@_01CLKCMJKC@?5?$AA@   00884a54     DlgAddMerge.obj
 0003:00002a58       ??_C@_0EB@GNOMCMHF@?M?e?d?n?o?s?q?r?h?l?n?e?5?h?l?$PP?5?q?k?h?$PP?m?h?$PP?4?5?H?l?$PP?5?m?e@ 00884a58     DlgAddMerge.obj
 0003:00002aa8       ??_C@_0EC@GCOJNCKG@Illegal?5merge?5name?4?5The?5name?5can@ 00884aa8     DlgAddMerge.obj
 0003:00002af8       ??_C@_0O@KLCDJKNJ@CDlgAddModule?$AA@ 00884af8     DlgAddModule.obj
 0003:00002b08       ?classCDlgAddModule@CDlgAddModule@@2UCRuntimeClass@@B 00884b08     DlgAddModule.obj
 0003:00002bb4       ??_7CDlgAddModule@@6B@     00884bb4     DlgAddModule.obj
 0003:00002d94       ??_C@_0L@EPNFDFAO@CDlgAddNet?$AA@ 00884d94     DlgAddNet.obj
 0003:00002da4       ?classCDlgAddNet@CDlgAddNet@@2UCRuntimeClass@@B 00884da4     DlgAddNet.obj
 0003:00002df4       ??_7CDlgAddNet@@6B@        00884df4     DlgAddNet.obj
 0003:00002fd4       ??_C@_0M@PIJLIGMG@CDlgAddPart?$AA@ 00884fd4     DlgAddPart.obj
 0003:00002fe4       ?classCDlgAddPart@CDlgAddPart@@2UCRuntimeClass@@B 00884fe4     DlgAddPart.obj
 0003:000031ac       ??_7CDlgAddPart@@6B@       008851ac     DlgAddPart.obj
 0003:0000338c       ??_C@_03KGPELIJG@VIA?$AA@  0088538c     DlgAddPart.obj
 0003:00003390       ??_C@_1EO@HANAGNBK@?$AAd?$AA?3?$AA?2?$AAf?$AAr?$AAe?$AAe?$AAp?$AAc?$AAb?$AAd?$AAe?$AAv?$AA?2?$AAf?$AAr?$AAe?$AAe?$AAp?$AAc?$AAb?$AA?9?$AA2?$AA?2?$AAd?$AAl?$AAg?$AAa?$AAd?$AAd?$AAp?$AAa@ 00885390     DlgAddPart.obj
 0003:000033f0       ??_C@_0DD@CNJGOCEL@?N?x?h?a?j?$OA?3?5?t?s?r?o?p?h?m?r?5?m?e?5?b?$PL?a?p?$OA?m?4?5?M?s?f?m@ 008853f0     DlgAddPart.obj
 0003:00003430       ??_C@_0BN@PMAGCCDM@Error?3?5No?5footprint?5selected?$AA@ 00885430     DlgAddPart.obj
 0003:00003454       ??_C@_0CH@EJMJAEKB@d?3?2freepcbdev?2freepcb?92?2dlgaddpa@ 00885454     DlgAddPart.obj
 0003:00003488       ??_C@_0FE@FPMEDOOE@Loading?5this?5new?5footprint?5will?5@ 00885488     DlgAddPart.obj
 0003:000034f0       ??_C@_0EF@MILNOPKJ@Warning?3?5A?5footprint?5named?5?$CC?$CFs?$CC?$AN@ 008854f0     DlgAddPart.obj
 0003:00003548       ??_C@_0MJ@LMGFNOEE@?O?p?e?d?s?o?p?e?f?d?e?m?h?e?3?5?s?5?$CFs?5?l?e?m?$PM?x?e?5?j?n?m?r@ 00885548     DlgAddPart.obj
 0003:00003640       ??_C@_0JM@CDNBCOHD@Warning?3?5?$CFs?5has?5fewer?5pins?5than?5@ 00885640     DlgAddPart.obj
 0003:00003700       ??_C@_0FD@JLNPCODF@?B?m?h?l?$OA?m?h?e?3?5?s?5?$CFs?5?l?e?m?$PM?x?e?5?j?n?m?r?$OA?j?r?n?b?0@ 00885700     DlgAddPart.obj
 0003:00003768       ??_C@_0EI@KNKBNFHF@Warning?3?5?$CFs?5has?5fewer?5pins?5than?5@ 00885768     DlgAddPart.obj
 0003:000037c0       ??_C@_01MCMALHOG@a?$AA@    008857c0     DlgAddPart.obj
 0003:000037c4       ??_C@_01FHEEJDEE@A?$AA@    008857c4     DlgAddPart.obj
 0003:000037c8       ??_C@_02LHLLMGKI@A1?$AA@   008857c8     DlgAddPart.obj
 0003:000037cc       ??_C@_0M@BIOLIJGA@EMPTY_SHAPE?$AA@ 008857cc     DlgAddPart.obj
 0003:000037dc       ??_C@_0CB@BIIEKMGL@?M?$OA?g?b?$OA?m?h?e?5?m?e?5?d?n?k?f?m?n?5?q?n?d?e?p?f?$OA?r?$PM?5?$KL?$EA?$LL@ 008857dc     DlgAddPart.obj
 0003:00003804       ??_C@_0BJ@MLDHLFOF@Value?5cannot?5contain?5?$KL?$EA?$LL?$AA@ 00885804     DlgAddPart.obj
 0003:00003824       ??_C@_01EOFPKCAF@?$EA?$AA@ 00885824     DlgAddPart.obj
 0003:00003828       ??_C@_0DP@MLCPHPIF@?D?e?r?$OA?k?$PM?5?$CFs?5?s?f?e?5?q?s?y?e?q?r?b?s?e?r?5?h?5?r?$OA?j?f?e@ 00885828     DlgAddPart.obj
 0003:00003874       ??_C@_0DL@BEFHMLCI@Part?5?$CFs?5already?5exists?5and?5will?5@ 00885874     DlgAddPart.obj
 0003:000038bc       ??_C@_04HGGBINEM@?$CFs?$CFd?$AA@ 008858bc     DlgAddPart.obj
 0003:000038c8       ??_C@_0GM@FKOFMDLE@?5?D?s?a?k?h?p?n?b?$OA?m?h?e?5?n?a?n?g?m?$OA?w?e?m?h?$PP?$CB?5?$CFs?5?s?f@ 008858c8     DlgAddPart.obj
 0003:00003950       ??_C@_0GA@FCMNPDDM@?5Duplicate?5reference?$CB?5?$CFs?5already@ 00885950     DlgAddPart.obj
 0003:000039c4       ??_C@_02EAOCEIGI@?$DP?$CK?$AA@ 008859c4     DlgAddPart.obj
 0003:000039c8       ??_C@_01OGPIMHDM@?$DP?$AA@ 008859c8     DlgAddPart.obj
 0003:000039cc       ??_C@_0CH@CHLMOCHC@?M?e?d?n?o?s?q?r?h?l?n?e?5?s?q?k?n?b?m?n?e?5?n?a?n?g?m?$OA?w?e?m?h@ 008859cc     DlgAddPart.obj
 0003:000039fc       ??_C@_0CC@DFCOOCID@Illegal?5reference?5designator?5?$CC?$CFs@ 008859fc     DlgAddPart.obj
 0003:00003a24       ??_C@_06FDNENHEC@?0?4?5?$CD?2?1?$AA@ 00885a24     DlgAddPart.obj
 0003:00003a2c       ??_C@_0CC@COECJLBG@?M?e?d?n?o?s?q?r?h?l?n?e?5?s?q?k?n?b?m?n?e?5?n?a?n?g?m?$OA?w?e?m?h@ 00885a2c     DlgAddPart.obj
 0003:00003a54       ??_C@_0BN@BOBOMOCC@Illegal?5reference?5designator?$AA@ 00885a54     DlgAddPart.obj
 0003:00003a78       ??_C@_08CKJFGDBG@multiple?$AA@ 00885a78     DlgAddPart.obj
 0003:00003a84       ??_C@_01GBGANLPD@0?$AA@    00885a84     DlgAddPart.obj
 0003:00003a88       ??_C@_06PMMPCIPB@bottom?$AA@ 00885a88     DlgAddPart.obj
 0003:00003a90       ??_C@_03FGFCOCMD@top?$AA@  00885a90     DlgAddPart.obj
 0003:00003a94       ??_C@_0O@JLADMJKO@?K?n?j?$OA?k?$PM?m?$PL?i?5?j?$PN?x?$AA@ 00885a94     DlgAddPart.obj
 0003:00003aa4       ??_C@_0M@OIAKCIF@local?5cache?$AA@ 00885aa4     DlgAddPart.obj
 0003:00003ab8       ??_C@_0EC@ONACHLOA@?B?m?h?l?$OA?m?h?e?3?5?a?h?a?k?h?n?r?e?j?$OA?5?a?$PL?k?$OA?5?h?g?l?e?m?e@ 00885ab8     DlgAddPart.obj
 0003:00003b08       ??_C@_0BO@OPJKDEJF@Warning?3?5Library?5was?5changed?$CB?$AA@ 00885b08     DlgAddPart.obj
 0003:00003b2c       ??_C@_0M@PLFNJNKD@?B?$PL?a?n?p?5?o?$OA?o?j?h?$AA@ 00885b2c     DlgAddPart.obj
 0003:00003b3c       ??_C@_0O@GBCKEAFH@Select?5Folder?$AA@ 00885b3c     DlgAddPart.obj
 0003:00003b4c       ??_C@_0P@EKIOPILD@?B?$PL?a?e?p?h?r?e?5?o?$OA?o?j?s?$AA@ 00885b4c     DlgAddPart.obj
 0003:00003b60       ??_C@_0CA@DNAHDAEA@Select?5footprint?5library?5folder?$AA@ 00885b60     DlgAddPart.obj
 0003:00003b88       ??_C@_05NNLGJKHO@VIA?$CFd?$AA@ 00885b88     DlgAddPart.obj
 0003:00003b90       ??_C@_0BA@FJLLAICL@?2components?4txt?$AA@ 00885b90     DlgAddPart.obj
 0003:00003ba4       ??_C@_01LBDDMOBJ@?$FN?$AA@ 00885ba4     DlgAddPart.obj
 0003:00003ba8       ??_C@_0L@EGCEBGBN@CDlgAddPin?$AA@ 00885ba8     DlgAddPin.obj
 0003:00003bb8       ?classCDlgAddPin@CDlgAddPin@@2UCRuntimeClass@@B 00885bb8     DlgAddPin.obj
 0003:00003fa0       __real@4044000000000000    00885fa0     DlgAddPin.obj
 0003:00003fb4       ??_7CDlgAddPin@@6B@        00885fb4     DlgAddPin.obj
 0003:00004194       ??_C@_04HDOCAJNK@?$CFs?$CFs?$AA@ 00886194     DlgAddPin.obj
 0003:0000419c       ??_C@_0DI@KCCACKPH@?h?k?h?5?M?E?R?0?5?w?r?n?a?$PL?5?s?q?r?$OA?m?n?b?h?r?$PM?5?h?u?5?b?q?e@ 0088619c     DlgAddPin.obj
 0003:000041e0       ??_C@_0DM@KNKAPABP@?M?$OA?f?l?h?r?e?5?D?$MA?0?5?w?r?n?a?$PL?5?q?n?u?p?$OA?m?h?r?$PM?5?q?k?n?h@ 008861e0     DlgAddPin.obj
 0003:00004228       ??_C@_0CJ@HKGJHMAA@?j?$OA?j?5?m?$OA?5?b?e?p?u?m?e?l?0?5?r?$OA?j?5?h?5?m?$OA?5?m?h?f?m?e?l?5@ 00886228     DlgAddPin.obj
 0003:0000425c       ??_C@_0DK@LAHCFHHP@?B?$PL?5?o?p?h?l?e?m?$PP?e?r?e?5?m?n?b?$PL?e?5?o?$OA?p?$OA?l?e?r?p?$PL?5?j?5@ 0088625c     DlgAddPin.obj
 0003:000042a4       ??_C@_0DC@CEKCPGIG@or?5NO?5to?5set?5them?5all?5to?5the?5lay@ 008862a4     DlgAddPin.obj
 0003:000042e0       ??_C@_0DB@HJFKDKLP@Click?5YES?5to?5preserve?5the?5layers@ 008862e0     DlgAddPin.obj
 0003:0000431c       ??_C@_0CB@IBABIBBG@on?5both?5top?5and?5bottom?5layers?4?6?6@ 0088631c     DlgAddPin.obj
 0003:00004344       ??_C@_0DB@GJLDMHHA@You?5are?5applying?5new?5pad?5paramet@ 00886344     DlgAddPin.obj
 0003:00004380       ??_C@_0GE@OPGOFGIF@?H?l?e?m?$OA?5?j?n?m?r?$OA?j?r?n?b?5?n?r?5?$KL?$CFs?$CFd?$LL?5?d?n?5?$KL?$CFs@ 00886380     DlgAddPin.obj
 0003:000043f8       ??_C@_0EO@CHMFFMDD@Pin?5names?5?$CC?$CFs?$CFd?$CC?5through?5?$CC?$CFs?$CFd?$CC?5@ 008863f8     DlgAddPin.obj
 0003:00004458       ??_C@_0EP@NJCEJAA@?H?l?$PP?5?j?n?m?r?$OA?j?r?$OA?5?$KL?$CFs?$LL?5?j?n?m?t?k?h?j?r?s?e?r?5?q?5@ 00886458     DlgAddPin.obj
 0003:000044b8       ??_C@_0DO@MILAFAFC@Pin?5name?5?$CC?$CFs?$CC?5conflicts?5with?5an?5@ 008864b8     DlgAddPin.obj
 0003:00004508       ??_C@_0EJ@JNFKMNAH@?B?m?h?l?$OA?m?h?e?3?5?m?e?r?5?n?r?b?e?p?q?r?h?$PP?0?5?q?n?e?d?h?m?$PP@ 00886508     DlgAddPin.obj
 0003:00004560       ??_C@_0EM@GHBKHAKA@Warning?3?5there?5is?5no?5hole?5connec@ 00886560     DlgAddPin.obj
 0003:000045c0       ??_C@_0FC@EADLKMDK@?P?$OA?d?h?s?q?5?b?m?s?r?p?e?m?m?e?i?5?g?$OA?j?p?s?c?k?e?m?m?n?i?5?o@ 008865c0     DlgAddPin.obj
 0003:00004624       ??_C@_0DH@CAMOPKPB@Radius?5of?5inner?5rounded?9rect?5pad@ 00886624     DlgAddPin.obj
 0003:00004668       ??_C@_0FD@JHKHJPKN@?P?$OA?d?h?s?q?5?g?$OA?j?p?s?c?k?$LI?m?m?n?9?o?p?$PP?l?n?s?c?n?k?$PM?m?n?i@ 00886668     DlgAddPin.obj
 0003:000046cc       ??_C@_0DO@CCHMJPAF@Radius?5of?5bottom?5paste?5rounded?9r@ 008866cc     DlgAddPin.obj
 0003:00004718       ??_C@_0FD@FHCNLOHF@?P?$OA?d?h?s?q?5?g?$OA?j?p?s?c?k?$LI?m?m?n?9?o?p?$PP?l?n?s?c?n?k?$PM?m?n?i@ 00886718     DlgAddPin.obj
 0003:0000477c       ??_C@_0DN@GJJFGDHB@Radius?5of?5bottom?5mask?5rounded?9re@ 0088677c     DlgAddPin.obj
 0003:000047c8       ??_C@_0EN@OFKNBLBL@?P?$OA?d?h?s?q?5?m?h?f?m?e?i?5?g?$OA?j?p?s?c?k?$LI?m?m?n?9?o?p?$PP?l?n?s@ 008867c8     DlgAddPin.obj
 0003:00004824       ??_C@_0DI@IJJIEECD@Radius?5of?5bottom?5rounded?9rect?5pa@ 00886824     DlgAddPin.obj
 0003:00004868       ??_C@_0FE@BNJGKDHP@?P?$OA?d?h?s?q?5?g?$OA?j?p?s?c?k?$LI?m?m?n?9?o?p?$PP?l?n?s?c?n?k?$PM?m?n?i@ 00886868     DlgAddPin.obj
 0003:000048cc       ??_C@_0DL@KAPEEDOO@Radius?5of?5top?5paste?5rounded?9rect@ 008868cc     DlgAddPin.obj
 0003:00004918       ??_C@_0FE@NNBMICKH@?P?$OA?d?h?s?q?5?g?$OA?j?p?s?c?k?$LI?m?m?n?9?o?p?$PP?l?n?s?c?n?k?$PM?m?n?i@ 00886918     DlgAddPin.obj
 0003:0000497c       ??_C@_0DK@OJLNEJCH@Radius?5of?5top?5mask?5rounded?9rect?5@ 0088697c     DlgAddPin.obj
 0003:000049c8       ??_C@_0EO@OAIDFFMK@?P?$OA?d?h?s?q?5?b?e?p?u?m?e?i?5?g?$OA?j?p?s?c?k?$LI?m?m?n?9?o?p?$PP?l?n@ 008869c8     DlgAddPin.obj
 0003:00004a28       ??_C@_0DF@OJPLDOLB@Radius?5of?5top?5rounded?9rect?5pad?5?$DO@ 00886a28     DlgAddPin.obj
 0003:00004a68       ??_C@_0BK@ILIAANKH@?M?e?d?n?o?s?q?r?h?l?$OA?$PP?5?x?h?p?h?m?$OA?5?l?$OA?q?j?h?$AA@ 00886a68     DlgAddPin.obj
